ARM GAS  C:\Users\Miguel\AppData\Local\Temp\ccmTzdaG.s 			page 1


   1              		.cpu cortex-m7
   2              		.eabi_attribute 28, 1
   3              		.eabi_attribute 20, 1
   4              		.eabi_attribute 21, 1
   5              		.eabi_attribute 23, 3
   6              		.eabi_attribute 24, 1
   7              		.eabi_attribute 25, 1
   8              		.eabi_attribute 26, 1
   9              		.eabi_attribute 30, 2
  10              		.eabi_attribute 34, 1
  11              		.eabi_attribute 18, 4
  12              		.file	"adenv.cpp"
  13              		.text
  14              	.Ltext0:
  15              		.cfi_sections	.debug_frame
  16              		.section	.text._ZN7daisysp5AdEnvD2Ev,"axG",%progbits,_ZN7daisysp5AdEnvD5Ev,comdat
  17              		.align	1
  18              		.p2align 2,,3
  19              		.weak	_ZN7daisysp5AdEnvD2Ev
  20              		.arch armv7e-m
  21              		.syntax unified
  22              		.thumb
  23              		.thumb_func
  24              		.fpu fpv5-d16
  26              	_ZN7daisysp5AdEnvD2Ev:
  27              	.LVL0:
  28              	.LFB548:
  29              		.file 1 "../../../DaisySP/Source/Control/adenv.h"
   1:../../../DaisySP/Source/Control/adenv.h **** /*
   2:../../../DaisySP/Source/Control/adenv.h **** Copyright (c) 2020 Electrosmith, Corp
   3:../../../DaisySP/Source/Control/adenv.h **** 
   4:../../../DaisySP/Source/Control/adenv.h **** Use of this source code is governed by an MIT-style
   5:../../../DaisySP/Source/Control/adenv.h **** license that can be found in the LICENSE file or at
   6:../../../DaisySP/Source/Control/adenv.h **** https://opensource.org/licenses/MIT.
   7:../../../DaisySP/Source/Control/adenv.h **** */
   8:../../../DaisySP/Source/Control/adenv.h **** 
   9:../../../DaisySP/Source/Control/adenv.h **** #pragma once
  10:../../../DaisySP/Source/Control/adenv.h **** #ifndef ADENV_H
  11:../../../DaisySP/Source/Control/adenv.h **** #define ADENV_H
  12:../../../DaisySP/Source/Control/adenv.h **** #include <stdint.h>
  13:../../../DaisySP/Source/Control/adenv.h **** #ifdef __cplusplus
  14:../../../DaisySP/Source/Control/adenv.h **** 
  15:../../../DaisySP/Source/Control/adenv.h **** namespace daisysp
  16:../../../DaisySP/Source/Control/adenv.h **** {
  17:../../../DaisySP/Source/Control/adenv.h **** /** Distinct stages that the phase of the envelope can be located in.
  18:../../../DaisySP/Source/Control/adenv.h ****     @see AdEnv
  19:../../../DaisySP/Source/Control/adenv.h **** */
  20:../../../DaisySP/Source/Control/adenv.h **** enum AdEnvSegment
  21:../../../DaisySP/Source/Control/adenv.h **** {
  22:../../../DaisySP/Source/Control/adenv.h ****     /** located at phase location 0, and not currently running */
  23:../../../DaisySP/Source/Control/adenv.h ****     ADENV_SEG_IDLE,
  24:../../../DaisySP/Source/Control/adenv.h ****     /** First segment of envelope where phase moves from MIN value to MAX value */
  25:../../../DaisySP/Source/Control/adenv.h ****     ADENV_SEG_ATTACK,
  26:../../../DaisySP/Source/Control/adenv.h ****     /** Second segment of envelope where phase moves from MAX to MIN value */
  27:../../../DaisySP/Source/Control/adenv.h ****     ADENV_SEG_DECAY,
  28:../../../DaisySP/Source/Control/adenv.h ****     /** The final segment of the envelope (currently decay) */
  29:../../../DaisySP/Source/Control/adenv.h ****     ADENV_SEG_LAST,
ARM GAS  C:\Users\Miguel\AppData\Local\Temp\ccmTzdaG.s 			page 2


  30:../../../DaisySP/Source/Control/adenv.h **** };
  31:../../../DaisySP/Source/Control/adenv.h **** 
  32:../../../DaisySP/Source/Control/adenv.h **** /** Trigger-able envelope with adjustable min/max, and independent per-segment time control.
  33:../../../DaisySP/Source/Control/adenv.h **** 
  34:../../../DaisySP/Source/Control/adenv.h ****     \author shensley
  35:../../../DaisySP/Source/Control/adenv.h ****     \todo - Add Cycling
  36:../../../DaisySP/Source/Control/adenv.h ****     \todo - Implement Curve (its only linear for now).
  37:../../../DaisySP/Source/Control/adenv.h ****     \todo - Maybe make this an ADsr_ that has AD/AR/Asr_ modes.
  38:../../../DaisySP/Source/Control/adenv.h ****  */
  39:../../../DaisySP/Source/Control/adenv.h **** class AdEnv
  40:../../../DaisySP/Source/Control/adenv.h **** {
  41:../../../DaisySP/Source/Control/adenv.h ****   public:
  42:../../../DaisySP/Source/Control/adenv.h ****     AdEnv() {}
  43:../../../DaisySP/Source/Control/adenv.h ****     ~AdEnv() {}
  30              		.loc 1 43 5 view -0
  31              		.cfi_startproc
  32              		@ args = 0, pretend = 0, frame = 0
  33              		@ frame_needed = 0, uses_anonymous_args = 0
  34              		@ link register save eliminated.
  35              		.loc 1 43 15 is_stmt 0 view .LVU1
  36 0000 7047     		bx	lr
  37              		.cfi_endproc
  38              	.LFE548:
  40              		.weak	_ZN7daisysp5AdEnvD1Ev
  41              		.thumb_set _ZN7daisysp5AdEnvD1Ev,_ZN7daisysp5AdEnvD2Ev
  42 0002 00BF     		.section	.text._ZN7daisysp10OscillatorD2Ev,"axG",%progbits,_ZN7daisysp10OscillatorD5Ev,comdat
  43              		.align	1
  44              		.p2align 2,,3
  45              		.weak	_ZN7daisysp10OscillatorD2Ev
  46              		.syntax unified
  47              		.thumb
  48              		.thumb_func
  49              		.fpu fpv5-d16
  51              	_ZN7daisysp10OscillatorD2Ev:
  52              	.LVL1:
  53              	.LFB2825:
  54              		.file 2 "../../../DaisySP/Source/Synthesis/oscillator.h"
   1:../../../DaisySP/Source/Synthesis/oscillator.h **** /*
   2:../../../DaisySP/Source/Synthesis/oscillator.h **** Copyright (c) 2020 Electrosmith, Corp
   3:../../../DaisySP/Source/Synthesis/oscillator.h **** 
   4:../../../DaisySP/Source/Synthesis/oscillator.h **** Use of this source code is governed by an MIT-style
   5:../../../DaisySP/Source/Synthesis/oscillator.h **** license that can be found in the LICENSE file or at
   6:../../../DaisySP/Source/Synthesis/oscillator.h **** https://opensource.org/licenses/MIT.
   7:../../../DaisySP/Source/Synthesis/oscillator.h **** */
   8:../../../DaisySP/Source/Synthesis/oscillator.h **** 
   9:../../../DaisySP/Source/Synthesis/oscillator.h **** #pragma once
  10:../../../DaisySP/Source/Synthesis/oscillator.h **** #ifndef DSY_OSCILLATOR_H
  11:../../../DaisySP/Source/Synthesis/oscillator.h **** #define DSY_OSCILLATOR_H
  12:../../../DaisySP/Source/Synthesis/oscillator.h **** #include <stdint.h>
  13:../../../DaisySP/Source/Synthesis/oscillator.h **** #include "Utility/dsp.h"
  14:../../../DaisySP/Source/Synthesis/oscillator.h **** #ifdef __cplusplus
  15:../../../DaisySP/Source/Synthesis/oscillator.h **** 
  16:../../../DaisySP/Source/Synthesis/oscillator.h **** namespace daisysp
  17:../../../DaisySP/Source/Synthesis/oscillator.h **** {
  18:../../../DaisySP/Source/Synthesis/oscillator.h **** /** Synthesis of several waveforms, including polyBLEP bandlimited waveforms.
  19:../../../DaisySP/Source/Synthesis/oscillator.h **** */
  20:../../../DaisySP/Source/Synthesis/oscillator.h **** class Oscillator
ARM GAS  C:\Users\Miguel\AppData\Local\Temp\ccmTzdaG.s 			page 3


  21:../../../DaisySP/Source/Synthesis/oscillator.h **** {
  22:../../../DaisySP/Source/Synthesis/oscillator.h ****   public:
  23:../../../DaisySP/Source/Synthesis/oscillator.h ****     Oscillator() {}
  24:../../../DaisySP/Source/Synthesis/oscillator.h ****     ~Oscillator() {}
  55              		.loc 2 24 5 is_stmt 1 view -0
  56              		.cfi_startproc
  57              		@ args = 0, pretend = 0, frame = 0
  58              		@ frame_needed = 0, uses_anonymous_args = 0
  59              		@ link register save eliminated.
  60              		.loc 2 24 20 is_stmt 0 view .LVU3
  61 0000 7047     		bx	lr
  62              		.cfi_endproc
  63              	.LFE2825:
  65              		.weak	_ZN7daisysp10OscillatorD1Ev
  66              		.thumb_set _ZN7daisysp10OscillatorD1Ev,_ZN7daisysp10OscillatorD2Ev
  67              		.section	.text._ZN7daisysp5MetroD2Ev,"axG",%progbits,_ZN7daisysp5MetroD5Ev,comdat
  68              		.align	1
  69              		.p2align 2,,3
  70              		.weak	_ZN7daisysp5MetroD2Ev
  71              		.syntax unified
  72              		.thumb
  73              		.thumb_func
  74              		.fpu fpv5-d16
  76              	_ZN7daisysp5MetroD2Ev:
  77              	.LVL2:
  78              	.LFB3488:
  79              		.file 3 "../../../DaisySP/Source/Utility/metro.h"
   1:../../../DaisySP/Source/Utility/metro.h **** /*
   2:../../../DaisySP/Source/Utility/metro.h **** Copyright (c) 2020 Electrosmith, Corp
   3:../../../DaisySP/Source/Utility/metro.h **** 
   4:../../../DaisySP/Source/Utility/metro.h **** Use of this source code is governed by an MIT-style
   5:../../../DaisySP/Source/Utility/metro.h **** license that can be found in the LICENSE file or at
   6:../../../DaisySP/Source/Utility/metro.h **** https://opensource.org/licenses/MIT.
   7:../../../DaisySP/Source/Utility/metro.h **** */
   8:../../../DaisySP/Source/Utility/metro.h **** 
   9:../../../DaisySP/Source/Utility/metro.h **** #pragma once
  10:../../../DaisySP/Source/Utility/metro.h **** #ifndef DSY_METRO_H
  11:../../../DaisySP/Source/Utility/metro.h **** #define DSY_METRO_H
  12:../../../DaisySP/Source/Utility/metro.h **** #include <stdint.h>
  13:../../../DaisySP/Source/Utility/metro.h **** #ifdef __cplusplus
  14:../../../DaisySP/Source/Utility/metro.h **** 
  15:../../../DaisySP/Source/Utility/metro.h **** namespace daisysp
  16:../../../DaisySP/Source/Utility/metro.h **** {
  17:../../../DaisySP/Source/Utility/metro.h **** /** Creates a clock signal at a specific frequency.
  18:../../../DaisySP/Source/Utility/metro.h **** */
  19:../../../DaisySP/Source/Utility/metro.h **** class Metro
  20:../../../DaisySP/Source/Utility/metro.h **** {
  21:../../../DaisySP/Source/Utility/metro.h ****   public:
  22:../../../DaisySP/Source/Utility/metro.h ****     Metro() {}
  23:../../../DaisySP/Source/Utility/metro.h ****     ~Metro() {}
  80              		.loc 3 23 5 is_stmt 1 view -0
  81              		.cfi_startproc
  82              		@ args = 0, pretend = 0, frame = 0
  83              		@ frame_needed = 0, uses_anonymous_args = 0
  84              		@ link register save eliminated.
  85              		.loc 3 23 15 is_stmt 0 view .LVU5
  86 0000 7047     		bx	lr
ARM GAS  C:\Users\Miguel\AppData\Local\Temp\ccmTzdaG.s 			page 4


  87              		.cfi_endproc
  88              	.LFE3488:
  90              		.weak	_ZN7daisysp5MetroD1Ev
  91              		.thumb_set _ZN7daisysp5MetroD1Ev,_ZN7daisysp5MetroD2Ev
  92              		.section	.text._ZN5daisy9DaisySeedD2Ev,"axG",%progbits,_ZN5daisy9DaisySeedD5Ev,comdat
  93              		.align	1
  94              		.p2align 2,,3
  95              		.weak	_ZN5daisy9DaisySeedD2Ev
  96              		.syntax unified
  97              		.thumb
  98              		.thumb_func
  99              		.fpu fpv5-d16
 101              	_ZN5daisy9DaisySeedD2Ev:
 102              	.LVL3:
 103              	.LFB4676:
 104              		.file 4 "../../../libDaisy/src/daisy_seed.h"
   1:../../../libDaisy/src/daisy_seed.h **** #pragma once
   2:../../../libDaisy/src/daisy_seed.h **** #ifndef DSY_SEED_H
   3:../../../libDaisy/src/daisy_seed.h **** #define DSY_SEED_H
   4:../../../libDaisy/src/daisy_seed.h **** 
   5:../../../libDaisy/src/daisy_seed.h **** #include "daisy.h"
   6:../../../libDaisy/src/daisy_seed.h **** 
   7:../../../libDaisy/src/daisy_seed.h **** //Uncomment this out if you're still using the rev2 hardware
   8:../../../libDaisy/src/daisy_seed.h **** //#define SEED_REV2
   9:../../../libDaisy/src/daisy_seed.h **** 
  10:../../../libDaisy/src/daisy_seed.h **** namespace daisy
  11:../../../libDaisy/src/daisy_seed.h **** {
  12:../../../libDaisy/src/daisy_seed.h **** /**
  13:../../../libDaisy/src/daisy_seed.h ****    @brief This is the higher-level interface for the Daisy board. \n 
  14:../../../libDaisy/src/daisy_seed.h ****     All basic peripheral configuration/initialization is setup here. \n
  15:../../../libDaisy/src/daisy_seed.h **** 
  16:../../../libDaisy/src/daisy_seed.h ****    @ingroup boards
  17:../../../libDaisy/src/daisy_seed.h **** */
  18:../../../libDaisy/src/daisy_seed.h **** class DaisySeed
  19:../../../libDaisy/src/daisy_seed.h **** {
  20:../../../libDaisy/src/daisy_seed.h ****   public:
  21:../../../libDaisy/src/daisy_seed.h ****     DaisySeed() {}
  22:../../../libDaisy/src/daisy_seed.h ****     ~DaisySeed() {}
 105              		.loc 4 22 5 is_stmt 1 view -0
 106              		.cfi_startproc
 107              		@ args = 0, pretend = 0, frame = 0
 108              		@ frame_needed = 0, uses_anonymous_args = 0
 109              		@ link register save eliminated.
 110              	.LBB104:
 111              	.LBI104:
 112              		.file 5 "../../../libDaisy/src/sys/system.h"
   1:../../../libDaisy/src/sys/system.h **** #ifndef DSY_SYSTEM_H
   2:../../../libDaisy/src/sys/system.h **** #define DSY_SYSTEM_H
   3:../../../libDaisy/src/sys/system.h **** 
   4:../../../libDaisy/src/sys/system.h **** #ifndef UNIT_TEST // for unit tests, a dummy implementation is provided below
   5:../../../libDaisy/src/sys/system.h **** 
   6:../../../libDaisy/src/sys/system.h **** #include <cstdint>
   7:../../../libDaisy/src/sys/system.h **** #include "per/tim.h"
   8:../../../libDaisy/src/sys/system.h **** 
   9:../../../libDaisy/src/sys/system.h **** namespace daisy
  10:../../../libDaisy/src/sys/system.h **** {
  11:../../../libDaisy/src/sys/system.h **** /** A handle for interacting with the Core System.
ARM GAS  C:\Users\Miguel\AppData\Local\Temp\ccmTzdaG.s 			page 5


  12:../../../libDaisy/src/sys/system.h ****  ** This includes the Clock tree, MPU, global DMA initialization,
  13:../../../libDaisy/src/sys/system.h ****  ** cache handling, and any other necessary global initiailzation
  14:../../../libDaisy/src/sys/system.h ****  **
  15:../../../libDaisy/src/sys/system.h ****  ** @author shensley
  16:../../../libDaisy/src/sys/system.h ****  ** @ingroup system
  17:../../../libDaisy/src/sys/system.h ****  */
  18:../../../libDaisy/src/sys/system.h **** class System
  19:../../../libDaisy/src/sys/system.h **** {
  20:../../../libDaisy/src/sys/system.h ****   public:
  21:../../../libDaisy/src/sys/system.h ****     /** Contains settings for initializing the System */
  22:../../../libDaisy/src/sys/system.h ****     struct Config
  23:../../../libDaisy/src/sys/system.h ****     {
  24:../../../libDaisy/src/sys/system.h ****         /** Specifies the system clock frequency that feeds APB/AHB clocks, etc. */
  25:../../../libDaisy/src/sys/system.h ****         enum class SysClkFreq
  26:../../../libDaisy/src/sys/system.h ****         {
  27:../../../libDaisy/src/sys/system.h ****             FREQ_400MHZ,
  28:../../../libDaisy/src/sys/system.h ****             FREQ_480MHZ,
  29:../../../libDaisy/src/sys/system.h ****         };
  30:../../../libDaisy/src/sys/system.h **** 
  31:../../../libDaisy/src/sys/system.h ****         /** Method to call on the struct to set to defaults
  32:../../../libDaisy/src/sys/system.h ****          ** CPU Freq set to 400MHz
  33:../../../libDaisy/src/sys/system.h ****          ** Cache Enabled
  34:../../../libDaisy/src/sys/system.h ****          ** */
  35:../../../libDaisy/src/sys/system.h ****         void Defaults()
  36:../../../libDaisy/src/sys/system.h ****         {
  37:../../../libDaisy/src/sys/system.h ****             cpu_freq    = SysClkFreq::FREQ_400MHZ;
  38:../../../libDaisy/src/sys/system.h ****             use_dcache  = true;
  39:../../../libDaisy/src/sys/system.h ****             use_icache  = true;
  40:../../../libDaisy/src/sys/system.h ****             skip_clocks = false;
  41:../../../libDaisy/src/sys/system.h ****         }
  42:../../../libDaisy/src/sys/system.h **** 
  43:../../../libDaisy/src/sys/system.h ****         /** Method to call on the struct to set to boost mode:
  44:../../../libDaisy/src/sys/system.h ****          ** CPU Freq set to 480MHz
  45:../../../libDaisy/src/sys/system.h ****          ** Cache Enabled
  46:../../../libDaisy/src/sys/system.h ****          ** */
  47:../../../libDaisy/src/sys/system.h ****         void Boost()
  48:../../../libDaisy/src/sys/system.h ****         {
  49:../../../libDaisy/src/sys/system.h ****             cpu_freq    = SysClkFreq::FREQ_480MHZ;
  50:../../../libDaisy/src/sys/system.h ****             use_dcache  = true;
  51:../../../libDaisy/src/sys/system.h ****             use_icache  = true;
  52:../../../libDaisy/src/sys/system.h ****             skip_clocks = false;
  53:../../../libDaisy/src/sys/system.h ****         }
  54:../../../libDaisy/src/sys/system.h **** 
  55:../../../libDaisy/src/sys/system.h ****         SysClkFreq cpu_freq;
  56:../../../libDaisy/src/sys/system.h ****         bool       use_dcache;
  57:../../../libDaisy/src/sys/system.h ****         bool       use_icache;
  58:../../../libDaisy/src/sys/system.h ****         bool       skip_clocks;
  59:../../../libDaisy/src/sys/system.h ****     };
  60:../../../libDaisy/src/sys/system.h **** 
  61:../../../libDaisy/src/sys/system.h ****     /** Describes the different regions of memory available to the Daisy */
  62:../../../libDaisy/src/sys/system.h ****     enum MemoryRegion
  63:../../../libDaisy/src/sys/system.h ****     {
  64:../../../libDaisy/src/sys/system.h ****         INTERNAL_FLASH = 0,
  65:../../../libDaisy/src/sys/system.h ****         ITCMRAM,
  66:../../../libDaisy/src/sys/system.h ****         DTCMRAM,
  67:../../../libDaisy/src/sys/system.h ****         SRAM_D1,
  68:../../../libDaisy/src/sys/system.h ****         SRAM_D2,
ARM GAS  C:\Users\Miguel\AppData\Local\Temp\ccmTzdaG.s 			page 6


  69:../../../libDaisy/src/sys/system.h ****         SRAM_D3,
  70:../../../libDaisy/src/sys/system.h ****         SDRAM,
  71:../../../libDaisy/src/sys/system.h ****         QSPI,
  72:../../../libDaisy/src/sys/system.h ****         INVALID_ADDRESS,
  73:../../../libDaisy/src/sys/system.h ****     };
  74:../../../libDaisy/src/sys/system.h **** 
  75:../../../libDaisy/src/sys/system.h ****     /** Bootloader struct for controlling bootloading parameters */
  76:../../../libDaisy/src/sys/system.h ****     struct BootInfo
  77:../../../libDaisy/src/sys/system.h ****     {
  78:../../../libDaisy/src/sys/system.h ****         enum class Type : uint32_t
  79:../../../libDaisy/src/sys/system.h ****         {
  80:../../../libDaisy/src/sys/system.h ****             INVALID      = 0x00000000,
  81:../../../libDaisy/src/sys/system.h ****             JUMP         = 0xDEADBEEF,
  82:../../../libDaisy/src/sys/system.h ****             SKIP_TIMEOUT = 0x5AFEB007,
  83:../../../libDaisy/src/sys/system.h ****             INF_TIMEOUT  = 0xB0074EFA,
  84:../../../libDaisy/src/sys/system.h ****         } status;
  85:../../../libDaisy/src/sys/system.h ****         uint32_t data;
  86:../../../libDaisy/src/sys/system.h ****         enum class Version : uint32_t
  87:../../../libDaisy/src/sys/system.h ****         {
  88:../../../libDaisy/src/sys/system.h ****             LT_v6_0 = 0, // Less than v6.0
  89:../../../libDaisy/src/sys/system.h ****             NONE,        // No bootloader present
  90:../../../libDaisy/src/sys/system.h ****             v6_0,        // v6.0
  91:../../../libDaisy/src/sys/system.h ****             v6_1,        // v6.1 or greater
  92:../../../libDaisy/src/sys/system.h ****             LAST
  93:../../../libDaisy/src/sys/system.h ****         } version;
  94:../../../libDaisy/src/sys/system.h ****     };
  95:../../../libDaisy/src/sys/system.h **** 
  96:../../../libDaisy/src/sys/system.h ****     System() {}
  97:../../../libDaisy/src/sys/system.h ****     ~System() {}
 113              		.loc 5 97 5 view .LVU7
 114              		.loc 5 97 5 is_stmt 0 view .LVU8
 115              	.LBE104:
 116              	.LBB105:
 117              	.LBI105:
 118              		.file 6 "../../../libDaisy/src/hid/usb.h"
   1:../../../libDaisy/src/hid/usb.h **** #pragma once
   2:../../../libDaisy/src/hid/usb.h **** #ifndef DSY_HID_USB_H
   3:../../../libDaisy/src/hid/usb.h **** #define DSY_HID_USB_H
   4:../../../libDaisy/src/hid/usb.h **** #include <stdint.h>
   5:../../../libDaisy/src/hid/usb.h **** #include <stdlib.h>
   6:../../../libDaisy/src/hid/usb.h **** 
   7:../../../libDaisy/src/hid/usb.h **** namespace daisy
   8:../../../libDaisy/src/hid/usb.h **** /** @addtogroup human_interface
   9:../../../libDaisy/src/hid/usb.h ****     @{
  10:../../../libDaisy/src/hid/usb.h **** */
  11:../../../libDaisy/src/hid/usb.h **** 
  12:../../../libDaisy/src/hid/usb.h **** {
  13:../../../libDaisy/src/hid/usb.h **** /** 
  14:../../../libDaisy/src/hid/usb.h ****     @brief Interface for initializing and using the USB Peripherals on the daisy
  15:../../../libDaisy/src/hid/usb.h ****     @author Stephen Hensley
  16:../../../libDaisy/src/hid/usb.h ****     @date December 2019
  17:../../../libDaisy/src/hid/usb.h **** */
  18:../../../libDaisy/src/hid/usb.h **** class UsbHandle
  19:../../../libDaisy/src/hid/usb.h **** {
  20:../../../libDaisy/src/hid/usb.h ****   public:
  21:../../../libDaisy/src/hid/usb.h ****     /** Return values for USBHandle Functions */
  22:../../../libDaisy/src/hid/usb.h ****     enum class Result
ARM GAS  C:\Users\Miguel\AppData\Local\Temp\ccmTzdaG.s 			page 7


  23:../../../libDaisy/src/hid/usb.h ****     {
  24:../../../libDaisy/src/hid/usb.h ****         OK,
  25:../../../libDaisy/src/hid/usb.h ****         ERR,
  26:../../../libDaisy/src/hid/usb.h ****     };
  27:../../../libDaisy/src/hid/usb.h **** 
  28:../../../libDaisy/src/hid/usb.h ****     /** Specified which of the two USB Peripherals to initialize. */
  29:../../../libDaisy/src/hid/usb.h ****     enum UsbPeriph
  30:../../../libDaisy/src/hid/usb.h ****     {
  31:../../../libDaisy/src/hid/usb.h ****         FS_INTERNAL, /**< Internal pin */
  32:../../../libDaisy/src/hid/usb.h ****         FS_EXTERNAL, /**< FS External D+ pin is Pin 38 (GPIO32). FS External D- pin is Pin 37 (GPIO
  33:../../../libDaisy/src/hid/usb.h ****         FS_BOTH,     /**< Both */
  34:../../../libDaisy/src/hid/usb.h ****     };
  35:../../../libDaisy/src/hid/usb.h **** 
  36:../../../libDaisy/src/hid/usb.h **** 
  37:../../../libDaisy/src/hid/usb.h ****     /** Function called upon reception of a buffer */
  38:../../../libDaisy/src/hid/usb.h ****     typedef void (*ReceiveCallback)(uint8_t* buff, uint32_t* len);
  39:../../../libDaisy/src/hid/usb.h **** 
  40:../../../libDaisy/src/hid/usb.h ****     UsbHandle() {}
  41:../../../libDaisy/src/hid/usb.h **** 
  42:../../../libDaisy/src/hid/usb.h ****     ~UsbHandle() {}
 119              		.loc 6 42 5 is_stmt 1 view .LVU9
 120              		.loc 6 42 5 is_stmt 0 view .LVU10
 121              	.LBE105:
 122              	.LBB106:
 123              	.LBI106:
 124              		.file 7 "../../../libDaisy/src/per/adc.h"
   1:../../../libDaisy/src/per/adc.h **** #pragma once
   2:../../../libDaisy/src/per/adc.h **** #ifndef DSY_ADC_H
   3:../../../libDaisy/src/per/adc.h **** #define DSY_ADC_H /**< Macro */
   4:../../../libDaisy/src/per/adc.h **** #include <stdint.h>
   5:../../../libDaisy/src/per/adc.h **** #include <stdlib.h>
   6:../../../libDaisy/src/per/adc.h **** #include "daisy_core.h"
   7:../../../libDaisy/src/per/adc.h **** #include "per/gpio.h"
   8:../../../libDaisy/src/per/adc.h **** 
   9:../../../libDaisy/src/per/adc.h **** #define DSY_ADC_MAX_CHANNELS 16 /**< Maximum number of ADC channels */
  10:../../../libDaisy/src/per/adc.h **** 
  11:../../../libDaisy/src/per/adc.h **** namespace daisy
  12:../../../libDaisy/src/per/adc.h **** {
  13:../../../libDaisy/src/per/adc.h **** /** @addtogroup per_analog
  14:../../../libDaisy/src/per/adc.h ****     @{
  15:../../../libDaisy/src/per/adc.h **** */
  16:../../../libDaisy/src/per/adc.h **** 
  17:../../../libDaisy/src/per/adc.h **** /* While there may not be many configuration options here,
  18:../../../libDaisy/src/per/adc.h **** using a struct like this allows us to add more configuration
  19:../../../libDaisy/src/per/adc.h **** later without breaking existing functionality.
  20:../../../libDaisy/src/per/adc.h **** */
  21:../../../libDaisy/src/per/adc.h **** 
  22:../../../libDaisy/src/per/adc.h **** /** @brief   Configuration Structure for an ADC Channel 
  23:../../../libDaisy/src/per/adc.h ****  *  @details This can be used to configure a a single input, 
  24:../../../libDaisy/src/per/adc.h ****  *           or a multiplexed input, allowing up to 8 inputs on 
  25:../../../libDaisy/src/per/adc.h ****  *           one channel.
  26:../../../libDaisy/src/per/adc.h ****  *  @note    Sharing data lines to multiple muxes _is_ possible, but
  27:../../../libDaisy/src/per/adc.h ****  *           each channel sharing data lines must be set to the maximum
  28:../../../libDaisy/src/per/adc.h ****  *           number of channels, even if some multiplexers have fewer
  29:../../../libDaisy/src/per/adc.h ****  *           inputs connected.
  30:../../../libDaisy/src/per/adc.h **** */
  31:../../../libDaisy/src/per/adc.h **** struct AdcChannelConfig
ARM GAS  C:\Users\Miguel\AppData\Local\Temp\ccmTzdaG.s 			page 8


  32:../../../libDaisy/src/per/adc.h **** {
  33:../../../libDaisy/src/per/adc.h ****     /** Which pin to use for multiplexing */
  34:../../../libDaisy/src/per/adc.h ****     enum MuxPin
  35:../../../libDaisy/src/per/adc.h ****     {
  36:../../../libDaisy/src/per/adc.h ****         MUX_SEL_0,    /**< & */
  37:../../../libDaisy/src/per/adc.h ****         MUX_SEL_1,    /**< & */
  38:../../../libDaisy/src/per/adc.h ****         MUX_SEL_2,    /**< & */
  39:../../../libDaisy/src/per/adc.h ****         MUX_SEL_LAST, /**< & */
  40:../../../libDaisy/src/per/adc.h ****     };
  41:../../../libDaisy/src/per/adc.h **** 
  42:../../../libDaisy/src/per/adc.h ****     /** \brief per channel conversion speed added to fixed time based on bitdepth, etc. */
  43:../../../libDaisy/src/per/adc.h ****     enum ConversionSpeed
  44:../../../libDaisy/src/per/adc.h ****     {
  45:../../../libDaisy/src/per/adc.h ****         SPEED_1CYCLES_5,
  46:../../../libDaisy/src/per/adc.h ****         SPEED_2CYCLES_5,
  47:../../../libDaisy/src/per/adc.h ****         SPEED_8CYCLES_5,
  48:../../../libDaisy/src/per/adc.h ****         SPEED_16CYCLES_5,
  49:../../../libDaisy/src/per/adc.h ****         SPEED_32CYCLES_5,
  50:../../../libDaisy/src/per/adc.h ****         SPEED_64CYCLES_5,
  51:../../../libDaisy/src/per/adc.h ****         SPEED_387CYCLES_5,
  52:../../../libDaisy/src/per/adc.h ****         SPEED_810CYCLES_5,
  53:../../../libDaisy/src/per/adc.h ****     };
  54:../../../libDaisy/src/per/adc.h **** 
  55:../../../libDaisy/src/per/adc.h ****     /** Initializes a single ADC pin as an ADC. 
  56:../../../libDaisy/src/per/adc.h ****     \param pin Pin to init.
  57:../../../libDaisy/src/per/adc.h ****     \param speed conversion speed for this pin defaults to 8.5 cycles
  58:../../../libDaisy/src/per/adc.h ****      */
  59:../../../libDaisy/src/per/adc.h ****     void InitSingle(dsy_gpio_pin pin, ConversionSpeed speed = SPEED_8CYCLES_5);
  60:../../../libDaisy/src/per/adc.h **** 
  61:../../../libDaisy/src/per/adc.h ****     /** 
  62:../../../libDaisy/src/per/adc.h ****     Initializes a single ADC pin as a Multiplexed ADC.
  63:../../../libDaisy/src/per/adc.h ****     Requires a CD405X Multiplexer connected to the pin.
  64:../../../libDaisy/src/per/adc.h ****     You only need to supply the mux pins that are required,
  65:../../../libDaisy/src/per/adc.h ****     e.g. a 4052 mux would only require mux_0 and mux_1.
  66:../../../libDaisy/src/per/adc.h ****     Internal Callbacks handle the pin addressing.
  67:../../../libDaisy/src/per/adc.h ****     \param adc_pin &
  68:../../../libDaisy/src/per/adc.h ****     \param mux_channels must be 1-8
  69:../../../libDaisy/src/per/adc.h ****     \param mux_0 First mux pin
  70:../../../libDaisy/src/per/adc.h ****     \param mux_1 Second mux pin
  71:../../../libDaisy/src/per/adc.h ****     \param mux_2 Third mux pin
  72:../../../libDaisy/src/per/adc.h ****     \param speed conversion speed for this pin defaults to 8.5 cycles
  73:../../../libDaisy/src/per/adc.h ****     */
  74:../../../libDaisy/src/per/adc.h ****     void InitMux(dsy_gpio_pin    adc_pin,
  75:../../../libDaisy/src/per/adc.h ****                  size_t          mux_channels,
  76:../../../libDaisy/src/per/adc.h ****                  dsy_gpio_pin    mux_0,
  77:../../../libDaisy/src/per/adc.h ****                  dsy_gpio_pin    mux_1 = {DSY_GPIOX, 0},
  78:../../../libDaisy/src/per/adc.h ****                  dsy_gpio_pin    mux_2 = {DSY_GPIOX, 0},
  79:../../../libDaisy/src/per/adc.h ****                  ConversionSpeed speed = SPEED_8CYCLES_5);
  80:../../../libDaisy/src/per/adc.h **** 
  81:../../../libDaisy/src/per/adc.h ****     dsy_gpio        pin_;                   /**< & */
  82:../../../libDaisy/src/per/adc.h ****     dsy_gpio        mux_pin_[MUX_SEL_LAST]; /**< & */
  83:../../../libDaisy/src/per/adc.h ****     uint8_t         mux_channels_;          /**< & */
  84:../../../libDaisy/src/per/adc.h ****     ConversionSpeed speed_;
  85:../../../libDaisy/src/per/adc.h **** };
  86:../../../libDaisy/src/per/adc.h **** 
  87:../../../libDaisy/src/per/adc.h **** /**
  88:../../../libDaisy/src/per/adc.h ****    @brief Handler for analog to digital conversion
ARM GAS  C:\Users\Miguel\AppData\Local\Temp\ccmTzdaG.s 			page 9


  89:../../../libDaisy/src/per/adc.h **** */
  90:../../../libDaisy/src/per/adc.h **** class AdcHandle
  91:../../../libDaisy/src/per/adc.h **** {
  92:../../../libDaisy/src/per/adc.h ****   public:
  93:../../../libDaisy/src/per/adc.h ****     /** Supported oversampling amounts */
  94:../../../libDaisy/src/per/adc.h ****     enum OverSampling
  95:../../../libDaisy/src/per/adc.h ****     {
  96:../../../libDaisy/src/per/adc.h ****         OVS_NONE, /**< & */
  97:../../../libDaisy/src/per/adc.h ****         OVS_4,    /**< & */
  98:../../../libDaisy/src/per/adc.h ****         OVS_8,    /**< & */
  99:../../../libDaisy/src/per/adc.h ****         OVS_16,   /**< & */
 100:../../../libDaisy/src/per/adc.h ****         OVS_32,   /**< & */
 101:../../../libDaisy/src/per/adc.h ****         OVS_64,   /**< & */
 102:../../../libDaisy/src/per/adc.h ****         OVS_128,  /**< & */
 103:../../../libDaisy/src/per/adc.h ****         OVS_256,  /**< & */
 104:../../../libDaisy/src/per/adc.h ****         OVS_512,  /**< & */
 105:../../../libDaisy/src/per/adc.h ****         OVS_1024, /**< & */
 106:../../../libDaisy/src/per/adc.h ****         OVS_LAST, /**< & */
 107:../../../libDaisy/src/per/adc.h ****     };
 108:../../../libDaisy/src/per/adc.h **** 
 109:../../../libDaisy/src/per/adc.h ****     AdcHandle() {}
 110:../../../libDaisy/src/per/adc.h ****     ~AdcHandle() {}
 125              		.loc 7 110 5 is_stmt 1 view .LVU11
 126              		.loc 7 110 5 is_stmt 0 view .LVU12
 127              	.LBE106:
 128              	.LBB107:
 129              	.LBI107:
 130              		.file 8 "../../../libDaisy/src/hid/audio.h"
   1:../../../libDaisy/src/hid/audio.h **** #ifndef DSY_AUDIO_H
   2:../../../libDaisy/src/hid/audio.h **** #define DSY_AUDIO_H /**< & */
   3:../../../libDaisy/src/hid/audio.h **** 
   4:../../../libDaisy/src/hid/audio.h **** #include "per/sai.h"
   5:../../../libDaisy/src/hid/audio.h **** 
   6:../../../libDaisy/src/hid/audio.h **** namespace daisy
   7:../../../libDaisy/src/hid/audio.h **** {
   8:../../../libDaisy/src/hid/audio.h **** /** @brief Audio Engine Handle
   9:../../../libDaisy/src/hid/audio.h ****  *  @ingroup audio 
  10:../../../libDaisy/src/hid/audio.h ****  *  @details This class allows for higher level access to an audio engine.
  11:../../../libDaisy/src/hid/audio.h ****  *           If you're using a SOM like the DaisySeed or DaisyPatchSM (or any 
  12:../../../libDaisy/src/hid/audio.h ****  *            board that includes one of those objects) then the intialization
  13:../../../libDaisy/src/hid/audio.h ****  *            is already taken  care of.
  14:../../../libDaisy/src/hid/audio.h ****  *           If you're setting up your own custom hardware, or need to make changes
  15:../../../libDaisy/src/hid/audio.h ****  *           you will have to take the following steps:
  16:../../../libDaisy/src/hid/audio.h ****  *             1. Create and Initialize an SaiHandle or two depending on your requirements
  17:../../../libDaisy/src/hid/audio.h ****  *             2. Initialize the Audio Handle with the desired settings and the Initialized SaiHand
  18:../../../libDaisy/src/hid/audio.h ****  *             3. If the connected codec requires special configuration or initialization, do so
  19:../../../libDaisy/src/hid/audio.h ****  *             4. Write a callback method using either the AudioCallback or the InterleavingAudioCa
  20:../../../libDaisy/src/hid/audio.h ****  *             5. Start the Audio using one of the StartAudio function
  21:../../../libDaisy/src/hid/audio.h ****  */
  22:../../../libDaisy/src/hid/audio.h **** class AudioHandle
  23:../../../libDaisy/src/hid/audio.h **** {
  24:../../../libDaisy/src/hid/audio.h ****   public:
  25:../../../libDaisy/src/hid/audio.h ****     /** Manually configurable details about the Audio Engine */
  26:../../../libDaisy/src/hid/audio.h ****     /** TODO: Figure out how to get samplerate in here. */
  27:../../../libDaisy/src/hid/audio.h ****     struct Config
  28:../../../libDaisy/src/hid/audio.h ****     {
  29:../../../libDaisy/src/hid/audio.h ****         /** number of samples to process per callback */
ARM GAS  C:\Users\Miguel\AppData\Local\Temp\ccmTzdaG.s 			page 10


  30:../../../libDaisy/src/hid/audio.h ****         size_t blocksize;
  31:../../../libDaisy/src/hid/audio.h **** 
  32:../../../libDaisy/src/hid/audio.h ****         /**< Sample rate of audio */
  33:../../../libDaisy/src/hid/audio.h ****         SaiHandle::Config::SampleRate samplerate;
  34:../../../libDaisy/src/hid/audio.h **** 
  35:../../../libDaisy/src/hid/audio.h ****         /** factor for adjustment before and after callback for hardware that may have extra headro
  36:../../../libDaisy/src/hid/audio.h ****         float postgain;
  37:../../../libDaisy/src/hid/audio.h **** 
  38:../../../libDaisy/src/hid/audio.h ****         /** factor for additional one-sided compensation to audio path for hardware that may
  39:../../../libDaisy/src/hid/audio.h ****          *  have unequal input/output ranges
  40:../../../libDaisy/src/hid/audio.h ****          */
  41:../../../libDaisy/src/hid/audio.h ****         float output_compensation;
  42:../../../libDaisy/src/hid/audio.h **** 
  43:../../../libDaisy/src/hid/audio.h ****         /** Sets default values for config struct */
  44:../../../libDaisy/src/hid/audio.h ****         Config()
  45:../../../libDaisy/src/hid/audio.h ****         : blocksize(48),
  46:../../../libDaisy/src/hid/audio.h ****           samplerate(SaiHandle::Config::SampleRate::SAI_48KHZ),
  47:../../../libDaisy/src/hid/audio.h ****           postgain(1.f),
  48:../../../libDaisy/src/hid/audio.h ****           output_compensation(1.f)
  49:../../../libDaisy/src/hid/audio.h ****         {
  50:../../../libDaisy/src/hid/audio.h ****         }
  51:../../../libDaisy/src/hid/audio.h ****     };
  52:../../../libDaisy/src/hid/audio.h **** 
  53:../../../libDaisy/src/hid/audio.h ****     enum class Result
  54:../../../libDaisy/src/hid/audio.h ****     {
  55:../../../libDaisy/src/hid/audio.h ****         OK,
  56:../../../libDaisy/src/hid/audio.h ****         ERR,
  57:../../../libDaisy/src/hid/audio.h ****     };
  58:../../../libDaisy/src/hid/audio.h **** 
  59:../../../libDaisy/src/hid/audio.h ****     /** Non-Interleaving input buffer
  60:../../../libDaisy/src/hid/audio.h ****      * Buffer arranged by float[chn][sample] 
  61:../../../libDaisy/src/hid/audio.h ****      * const so that the user can't modify the input
  62:../../../libDaisy/src/hid/audio.h ****      */
  63:../../../libDaisy/src/hid/audio.h ****     typedef const float* const* InputBuffer;
  64:../../../libDaisy/src/hid/audio.h **** 
  65:../../../libDaisy/src/hid/audio.h ****     /** Non-Interleaving output buffer
  66:../../../libDaisy/src/hid/audio.h ****      * Arranged by float[chn][sample] 
  67:../../../libDaisy/src/hid/audio.h ****      */
  68:../../../libDaisy/src/hid/audio.h ****     typedef float** OutputBuffer;
  69:../../../libDaisy/src/hid/audio.h **** 
  70:../../../libDaisy/src/hid/audio.h ****     /** Type for a Non-Interleaving audio callback 
  71:../../../libDaisy/src/hid/audio.h ****      * Non-Interleaving audio callbacks in daisy will be of this type
  72:../../../libDaisy/src/hid/audio.h ****      */
  73:../../../libDaisy/src/hid/audio.h ****     typedef void (*AudioCallback)(InputBuffer  in,
  74:../../../libDaisy/src/hid/audio.h ****                                   OutputBuffer out,
  75:../../../libDaisy/src/hid/audio.h ****                                   size_t       size);
  76:../../../libDaisy/src/hid/audio.h **** 
  77:../../../libDaisy/src/hid/audio.h ****     /** Interleaving Input buffer
  78:../../../libDaisy/src/hid/audio.h ****      ** audio is prepared as { L0, R0, L1, R1, . . . LN, RN }]
  79:../../../libDaisy/src/hid/audio.h ****      ** this is const, as the user shouldn't modify it
  80:../../../libDaisy/src/hid/audio.h ****     */
  81:../../../libDaisy/src/hid/audio.h ****     typedef const float* InterleavingInputBuffer;
  82:../../../libDaisy/src/hid/audio.h **** 
  83:../../../libDaisy/src/hid/audio.h ****     /** Interleaving Output buffer 
  84:../../../libDaisy/src/hid/audio.h ****      ** audio is prepared as { L0, R0, L1, R1, . . . LN, RN }
  85:../../../libDaisy/src/hid/audio.h ****     */
  86:../../../libDaisy/src/hid/audio.h ****     typedef float* InterleavingOutputBuffer;
ARM GAS  C:\Users\Miguel\AppData\Local\Temp\ccmTzdaG.s 			page 11


  87:../../../libDaisy/src/hid/audio.h **** 
  88:../../../libDaisy/src/hid/audio.h ****     /** Interleaving Audio Callback 
  89:../../../libDaisy/src/hid/audio.h ****      * Interleaving audio callbacks in daisy must be of this type
  90:../../../libDaisy/src/hid/audio.h ****      */
  91:../../../libDaisy/src/hid/audio.h ****     typedef void (*InterleavingAudioCallback)(InterleavingInputBuffer  in,
  92:../../../libDaisy/src/hid/audio.h ****                                               InterleavingOutputBuffer out,
  93:../../../libDaisy/src/hid/audio.h ****                                               size_t                   size);
  94:../../../libDaisy/src/hid/audio.h **** 
  95:../../../libDaisy/src/hid/audio.h ****     AudioHandle() : pimpl_(nullptr) {}
  96:../../../libDaisy/src/hid/audio.h ****     ~AudioHandle() {}
 131              		.loc 8 96 5 is_stmt 1 view .LVU13
 132              		.loc 8 96 5 is_stmt 0 view .LVU14
 133              	.LBE107:
 134              		.loc 4 22 19 view .LVU15
 135 0000 7047     		bx	lr
 136              		.cfi_endproc
 137              	.LFE4676:
 139              		.weak	_ZN5daisy9DaisySeedD1Ev
 140              		.thumb_set _ZN5daisy9DaisySeedD1Ev,_ZN5daisy9DaisySeedD2Ev
 141 0002 00BF     		.section	.text._ZL13AudioCallbackPKfPfj,"ax",%progbits
 142              		.align	1
 143              		.p2align 2,,3
 144              		.syntax unified
 145              		.thumb
 146              		.thumb_func
 147              		.fpu fpv5-d16
 149              	_ZL13AudioCallbackPKfPfj:
 150              	.LVL4:
 151              	.LFB4681:
 152              		.file 9 "adenv.cpp"
   1:adenv.cpp     **** #include "daisysp.h"
   2:adenv.cpp     **** #include "daisy_seed.h"
   3:adenv.cpp     **** 
   4:adenv.cpp     **** // Shortening long macro for sample rate
   5:adenv.cpp     **** #ifndef sample_rate
   6:adenv.cpp     **** 
   7:adenv.cpp     **** #endif
   8:adenv.cpp     **** 
   9:adenv.cpp     **** // Interleaved audio definitions
  10:adenv.cpp     **** #define LEFT (i)
  11:adenv.cpp     **** #define RIGHT (i + 1)
  12:adenv.cpp     **** 
  13:adenv.cpp     **** using namespace daisysp;
  14:adenv.cpp     **** using namespace daisy;
  15:adenv.cpp     **** 
  16:adenv.cpp     **** static DaisySeed  hw;
  17:adenv.cpp     **** static AdEnv      env;
  18:adenv.cpp     **** static Oscillator osc;
  19:adenv.cpp     **** static Metro      tick;
  20:adenv.cpp     **** 
  21:adenv.cpp     **** static void AudioCallback(AudioHandle::InterleavingInputBuffer  in,
  22:adenv.cpp     ****                           AudioHandle::InterleavingOutputBuffer out,
  23:adenv.cpp     ****                           size_t                                size)
  24:adenv.cpp     **** {
 153              		.loc 9 24 1 is_stmt 1 view -0
 154              		.cfi_startproc
 155              		@ args = 0, pretend = 0, frame = 0
ARM GAS  C:\Users\Miguel\AppData\Local\Temp\ccmTzdaG.s 			page 12


 156              		@ frame_needed = 0, uses_anonymous_args = 0
  25:adenv.cpp     ****     float osc_out, env_out;
 157              		.loc 9 25 5 view .LVU17
  26:adenv.cpp     ****     for(size_t i = 0; i < size; i += 2)
 158              		.loc 9 26 5 view .LVU18
 159              	.LBB108:
 160              		.loc 9 26 25 view .LVU19
 161 0000 FAB1     		cbz	r2, .L18
 162 0002 013A     		subs	r2, r2, #1
 163              	.LVL5:
 164              		.loc 9 26 25 is_stmt 0 view .LVU20
 165              	.LBE108:
  24:adenv.cpp     ****     float osc_out, env_out;
 166              		.loc 9 24 1 view .LVU21
 167 0004 F8B5     		push	{r3, r4, r5, r6, r7, lr}
 168              		.cfi_def_cfa_offset 24
 169              		.cfi_offset 3, -24
 170              		.cfi_offset 4, -20
 171              		.cfi_offset 5, -16
 172              		.cfi_offset 6, -12
 173              		.cfi_offset 7, -8
 174              		.cfi_offset 14, -4
 175 0006 0C46     		mov	r4, r1
 176              	.LBB119:
 177              		.loc 9 26 25 view .LVU22
 178 0008 0025     		movs	r5, #0
 179 000a 0E4F     		ldr	r7, .L21
 180 000c 5608     		lsrs	r6, r2, #1
 181              	.LVL6:
 182              	.L9:
  27:adenv.cpp     ****     {
  28:adenv.cpp     ****         // When the metro ticks, trigger the envelope to start.
  29:adenv.cpp     ****         if(tick.Process())
 183              		.loc 9 29 9 is_stmt 1 view .LVU23
 184              		.loc 9 29 24 is_stmt 0 view .LVU24
 185 000e 0E48     		ldr	r0, .L21+4
 186 0010 FFF7FEFF 		bl	_ZN7daisysp5Metro7ProcessEv
 187              	.LVL7:
  30:adenv.cpp     ****         {
  31:adenv.cpp     ****             env.Trigger();
 188              		.loc 9 31 13 is_stmt 1 view .LVU25
 189              	.LBB109:
 190              	.LBI109:
  44:../../../DaisySP/Source/Control/adenv.h ****     /** Initializes the ad envelope.
  45:../../../DaisySP/Source/Control/adenv.h **** 
  46:../../../DaisySP/Source/Control/adenv.h ****         Defaults:
  47:../../../DaisySP/Source/Control/adenv.h ****             - current segment = idle
  48:../../../DaisySP/Source/Control/adenv.h ****             - curve = linear
  49:../../../DaisySP/Source/Control/adenv.h ****             - phase = 0
  50:../../../DaisySP/Source/Control/adenv.h ****             - min = 0
  51:../../../DaisySP/Source/Control/adenv.h ****             - max = 1
  52:../../../DaisySP/Source/Control/adenv.h **** 
  53:../../../DaisySP/Source/Control/adenv.h ****         \param sample_rate      sample rate of the audio engine being run
  54:../../../DaisySP/Source/Control/adenv.h ****     */
  55:../../../DaisySP/Source/Control/adenv.h ****     void Init(float sample_rate);
  56:../../../DaisySP/Source/Control/adenv.h **** 
  57:../../../DaisySP/Source/Control/adenv.h ****     /** Processes the current sample of the envelope. This should be called once
ARM GAS  C:\Users\Miguel\AppData\Local\Temp\ccmTzdaG.s 			page 13


  58:../../../DaisySP/Source/Control/adenv.h ****         per sample period.
  59:../../../DaisySP/Source/Control/adenv.h ****         \return the current envelope value.
  60:../../../DaisySP/Source/Control/adenv.h ****     */
  61:../../../DaisySP/Source/Control/adenv.h ****     float Process();
  62:../../../DaisySP/Source/Control/adenv.h **** 
  63:../../../DaisySP/Source/Control/adenv.h ****     /** Starts or retriggers the envelope.*/
  64:../../../DaisySP/Source/Control/adenv.h ****     inline void Trigger() { trigger_ = 1; }
 191              		.loc 1 64 17 view .LVU26
 192              	.LBB110:
 193              		.loc 1 64 29 view .LVU27
 194              		.loc 1 64 29 is_stmt 0 view .LVU28
 195              	.LBE110:
 196              	.LBE109:
  32:adenv.cpp     ****         }
  33:adenv.cpp     **** 
  34:adenv.cpp     ****         // Use envelope to control the amplitude of the oscillator.
  35:adenv.cpp     ****         env_out = env.Process();
 197              		.loc 9 35 9 is_stmt 1 view .LVU29
  29:adenv.cpp     ****         {
 198              		.loc 9 29 24 is_stmt 0 view .LVU30
 199 0014 0346     		mov	r3, r0
 200              	.LBB113:
 201              	.LBB111:
 202              		.loc 1 64 38 view .LVU31
 203 0016 0121     		movs	r1, #1
 204              	.LBE111:
 205              	.LBE113:
 206              		.loc 9 35 30 view .LVU32
 207 0018 0C48     		ldr	r0, .L21+8
  29:adenv.cpp     ****         {
 208              		.loc 9 29 9 view .LVU33
 209 001a 0BB1     		cbz	r3, .L8
 210              	.LBB114:
 211              	.LBB112:
 212              		.loc 1 64 38 view .LVU34
 213 001c 80F83410 		strb	r1, [r0, #52]
 214              	.L8:
 215              	.LBE112:
 216              	.LBE114:
 217              		.loc 9 35 30 discriminator 2 view .LVU35
 218 0020 FFF7FEFF 		bl	_ZN7daisysp5AdEnv7ProcessEv
 219              	.LVL8:
  36:adenv.cpp     ****         osc.SetAmp(env_out);
 220              		.loc 9 36 9 is_stmt 1 discriminator 2 view .LVU36
 221              	.LBB115:
 222              	.LBI115:
  25:../../../DaisySP/Source/Synthesis/oscillator.h ****     /** Choices for output waveforms, POLYBLEP are appropriately labeled. Others are naive forms.
  26:../../../DaisySP/Source/Synthesis/oscillator.h ****     */
  27:../../../DaisySP/Source/Synthesis/oscillator.h ****     enum
  28:../../../DaisySP/Source/Synthesis/oscillator.h ****     {
  29:../../../DaisySP/Source/Synthesis/oscillator.h ****         WAVE_SIN,
  30:../../../DaisySP/Source/Synthesis/oscillator.h ****         WAVE_TRI,
  31:../../../DaisySP/Source/Synthesis/oscillator.h ****         WAVE_SAW,
  32:../../../DaisySP/Source/Synthesis/oscillator.h ****         WAVE_RAMP,
  33:../../../DaisySP/Source/Synthesis/oscillator.h ****         WAVE_SQUARE,
  34:../../../DaisySP/Source/Synthesis/oscillator.h ****         WAVE_POLYBLEP_TRI,
  35:../../../DaisySP/Source/Synthesis/oscillator.h ****         WAVE_POLYBLEP_SAW,
ARM GAS  C:\Users\Miguel\AppData\Local\Temp\ccmTzdaG.s 			page 14


  36:../../../DaisySP/Source/Synthesis/oscillator.h ****         WAVE_POLYBLEP_SQUARE,
  37:../../../DaisySP/Source/Synthesis/oscillator.h ****         WAVE_LAST,
  38:../../../DaisySP/Source/Synthesis/oscillator.h ****     };
  39:../../../DaisySP/Source/Synthesis/oscillator.h **** 
  40:../../../DaisySP/Source/Synthesis/oscillator.h **** 
  41:../../../DaisySP/Source/Synthesis/oscillator.h ****     /** Initializes the Oscillator
  42:../../../DaisySP/Source/Synthesis/oscillator.h **** 
  43:../../../DaisySP/Source/Synthesis/oscillator.h ****         \param sample_rate - sample rate of the audio engine being run, and the frequency that the 
  44:../../../DaisySP/Source/Synthesis/oscillator.h **** 
  45:../../../DaisySP/Source/Synthesis/oscillator.h ****         Defaults:
  46:../../../DaisySP/Source/Synthesis/oscillator.h ****         - freq_ = 100 Hz
  47:../../../DaisySP/Source/Synthesis/oscillator.h ****         - amp_ = 0.5
  48:../../../DaisySP/Source/Synthesis/oscillator.h ****         - waveform_ = sine wave.
  49:../../../DaisySP/Source/Synthesis/oscillator.h ****     */
  50:../../../DaisySP/Source/Synthesis/oscillator.h ****     void Init(float sample_rate)
  51:../../../DaisySP/Source/Synthesis/oscillator.h ****     {
  52:../../../DaisySP/Source/Synthesis/oscillator.h ****         sr_        = sample_rate;
  53:../../../DaisySP/Source/Synthesis/oscillator.h ****         sr_recip_  = 1.0f / sample_rate;
  54:../../../DaisySP/Source/Synthesis/oscillator.h ****         freq_      = 100.0f;
  55:../../../DaisySP/Source/Synthesis/oscillator.h ****         amp_       = 0.5f;
  56:../../../DaisySP/Source/Synthesis/oscillator.h ****         pw_        = 0.5f;
  57:../../../DaisySP/Source/Synthesis/oscillator.h ****         phase_     = 0.0f;
  58:../../../DaisySP/Source/Synthesis/oscillator.h ****         phase_inc_ = CalcPhaseInc(freq_);
  59:../../../DaisySP/Source/Synthesis/oscillator.h ****         waveform_  = WAVE_SIN;
  60:../../../DaisySP/Source/Synthesis/oscillator.h ****         eoc_       = true;
  61:../../../DaisySP/Source/Synthesis/oscillator.h ****         eor_       = true;
  62:../../../DaisySP/Source/Synthesis/oscillator.h ****     }
  63:../../../DaisySP/Source/Synthesis/oscillator.h **** 
  64:../../../DaisySP/Source/Synthesis/oscillator.h **** 
  65:../../../DaisySP/Source/Synthesis/oscillator.h ****     /** Changes the frequency of the Oscillator, and recalculates phase increment.
  66:../../../DaisySP/Source/Synthesis/oscillator.h ****     */
  67:../../../DaisySP/Source/Synthesis/oscillator.h ****     inline void SetFreq(const float f)
  68:../../../DaisySP/Source/Synthesis/oscillator.h ****     {
  69:../../../DaisySP/Source/Synthesis/oscillator.h ****         freq_      = f;
  70:../../../DaisySP/Source/Synthesis/oscillator.h ****         phase_inc_ = CalcPhaseInc(f);
  71:../../../DaisySP/Source/Synthesis/oscillator.h ****     }
  72:../../../DaisySP/Source/Synthesis/oscillator.h **** 
  73:../../../DaisySP/Source/Synthesis/oscillator.h **** 
  74:../../../DaisySP/Source/Synthesis/oscillator.h ****     /** Sets the amplitude of the waveform.
  75:../../../DaisySP/Source/Synthesis/oscillator.h ****     */
  76:../../../DaisySP/Source/Synthesis/oscillator.h ****     inline void SetAmp(const float a) { amp_ = a; }
 223              		.loc 2 76 17 discriminator 2 view .LVU37
 224              	.LBB116:
 225              		.loc 2 76 41 discriminator 2 view .LVU38
 226              	.LBE116:
 227              	.LBE115:
  37:adenv.cpp     ****         osc_out = osc.Process();
 228              		.loc 9 37 30 is_stmt 0 discriminator 2 view .LVU39
 229 0024 0748     		ldr	r0, .L21
  26:adenv.cpp     ****     {
 230              		.loc 9 26 25 discriminator 2 view .LVU40
 231 0026 0834     		adds	r4, r4, #8
 232              	.LBB118:
 233              	.LBB117:
 234              		.loc 2 76 46 discriminator 2 view .LVU41
 235 0028 87ED010A 		vstr.32	s0, [r7, #4]
 236              	.LVL9:
ARM GAS  C:\Users\Miguel\AppData\Local\Temp\ccmTzdaG.s 			page 15


 237              		.loc 2 76 46 discriminator 2 view .LVU42
 238              	.LBE117:
 239              	.LBE118:
 240              		.loc 9 37 9 is_stmt 1 discriminator 2 view .LVU43
 241              		.loc 9 37 30 is_stmt 0 discriminator 2 view .LVU44
 242 002c FFF7FEFF 		bl	_ZN7daisysp10Oscillator7ProcessEv
 243              	.LVL10:
  26:adenv.cpp     ****     {
 244              		.loc 9 26 25 discriminator 2 view .LVU45
 245 0030 6B1C     		adds	r3, r5, #1
 246              	.LVL11:
  38:adenv.cpp     **** 
  39:adenv.cpp     ****         out[LEFT]  = osc_out;
 247              		.loc 9 39 9 is_stmt 1 discriminator 2 view .LVU46
  26:adenv.cpp     ****     {
 248              		.loc 9 26 25 is_stmt 0 discriminator 2 view .LVU47
 249 0032 AE42     		cmp	r6, r5
 250              		.loc 9 39 20 discriminator 2 view .LVU48
 251 0034 04ED020A 		vstr.32	s0, [r4, #-8]
  40:adenv.cpp     ****         out[RIGHT] = osc_out;
 252              		.loc 9 40 9 is_stmt 1 discriminator 2 view .LVU49
 253 0038 1D46     		mov	r5, r3
 254              	.LVL12:
 255              		.loc 9 40 20 is_stmt 0 discriminator 2 view .LVU50
 256 003a 04ED010A 		vstr.32	s0, [r4, #-4]
  26:adenv.cpp     ****     {
 257              		.loc 9 26 5 is_stmt 1 discriminator 2 view .LVU51
 258              	.LVL13:
  26:adenv.cpp     ****     {
 259              		.loc 9 26 25 discriminator 2 view .LVU52
 260 003e E6D1     		bne	.L9
 261              	.LBE119:
  41:adenv.cpp     ****     }
  42:adenv.cpp     **** }
 262              		.loc 9 42 1 is_stmt 0 view .LVU53
 263 0040 F8BD     		pop	{r3, r4, r5, r6, r7, pc}
 264              	.LVL14:
 265              	.L18:
 266              		.cfi_def_cfa_offset 0
 267              		.cfi_restore 3
 268              		.cfi_restore 4
 269              		.cfi_restore 5
 270              		.cfi_restore 6
 271              		.cfi_restore 7
 272              		.cfi_restore 14
 273              		.loc 9 42 1 view .LVU54
 274 0042 7047     		bx	lr
 275              	.L22:
 276              		.align	2
 277              	.L21:
 278 0044 00000000 		.word	.LANCHOR2
 279 0048 00000000 		.word	.LANCHOR0
 280 004c 00000000 		.word	.LANCHOR1
 281              		.cfi_endproc
 282              	.LFE4681:
 284              		.section	.text.startup.main,"ax",%progbits
 285              		.align	1
ARM GAS  C:\Users\Miguel\AppData\Local\Temp\ccmTzdaG.s 			page 16


 286              		.p2align 2,,3
 287              		.global	main
 288              		.syntax unified
 289              		.thumb
 290              		.thumb_func
 291              		.fpu fpv5-d16
 293              	main:
 294              	.LFB4682:
  43:adenv.cpp     **** 
  44:adenv.cpp     **** int main(void)
  45:adenv.cpp     **** {
 295              		.loc 9 45 1 is_stmt 1 view -0
 296              		.cfi_startproc
 297              		@ args = 0, pretend = 0, frame = 0
 298              		@ frame_needed = 0, uses_anonymous_args = 0
  46:adenv.cpp     ****     // initialize seed hardware and daisysp modules
  47:adenv.cpp     ****     float sample_rate;
 299              		.loc 9 47 5 view .LVU56
  48:adenv.cpp     ****     hw.Configure();
 300              		.loc 9 48 5 view .LVU57
  45:adenv.cpp     ****     // initialize seed hardware and daisysp modules
 301              		.loc 9 45 1 is_stmt 0 view .LVU58
 302 0000 38B5     		push	{r3, r4, r5, lr}
 303              		.cfi_def_cfa_offset 16
 304              		.cfi_offset 3, -16
 305              		.cfi_offset 4, -12
 306              		.cfi_offset 5, -8
 307              		.cfi_offset 14, -4
 308              		.loc 9 48 17 view .LVU59
 309 0002 2D48     		ldr	r0, .L26
  49:adenv.cpp     ****     hw.Init();
  50:adenv.cpp     ****     hw.SetAudioBlockSize(4);
  51:adenv.cpp     ****     sample_rate = hw.AudioSampleRate();
  52:adenv.cpp     ****     env.Init(sample_rate);
 310              		.loc 9 52 13 view .LVU60
 311 0004 2D4D     		ldr	r5, .L26+4
 312              	.LBB138:
 313              	.LBB139:
  52:../../../DaisySP/Source/Synthesis/oscillator.h ****         sr_recip_  = 1.0f / sample_rate;
 314              		.loc 2 52 20 view .LVU61
 315 0006 2E4C     		ldr	r4, .L26+8
 316              	.LBE139:
 317              	.LBE138:
  45:adenv.cpp     ****     // initialize seed hardware and daisysp modules
 318              		.loc 9 45 1 view .LVU62
 319 0008 2DED028B 		vpush.64	{d8}
 320              		.cfi_def_cfa_offset 24
 321              		.cfi_offset 80, -24
 322              		.cfi_offset 81, -20
  48:adenv.cpp     ****     hw.Init();
 323              		.loc 9 48 17 view .LVU63
 324 000c FFF7FEFF 		bl	_ZN5daisy9DaisySeed9ConfigureEv
 325              	.LVL15:
  49:adenv.cpp     ****     hw.Init();
 326              		.loc 9 49 5 is_stmt 1 view .LVU64
  49:adenv.cpp     ****     hw.Init();
 327              		.loc 9 49 12 is_stmt 0 view .LVU65
ARM GAS  C:\Users\Miguel\AppData\Local\Temp\ccmTzdaG.s 			page 17


 328 0010 0021     		movs	r1, #0
 329 0012 2948     		ldr	r0, .L26
 330              	.LBB143:
 331              	.LBB140:
  53:../../../DaisySP/Source/Synthesis/oscillator.h ****         freq_      = 100.0f;
 332              		.loc 2 53 27 view .LVU66
 333 0014 F7EE008A 		vmov.f32	s17, #1.0e+0
 334              	.LBE140:
 335              	.LBE143:
  49:adenv.cpp     ****     hw.SetAudioBlockSize(4);
 336              		.loc 9 49 12 view .LVU67
 337 0018 FFF7FEFF 		bl	_ZN5daisy9DaisySeed4InitEb
 338              	.LVL16:
  50:adenv.cpp     ****     sample_rate = hw.AudioSampleRate();
 339              		.loc 9 50 5 is_stmt 1 view .LVU68
  50:adenv.cpp     ****     sample_rate = hw.AudioSampleRate();
 340              		.loc 9 50 25 is_stmt 0 view .LVU69
 341 001c 0421     		movs	r1, #4
 342 001e 2648     		ldr	r0, .L26
 343 0020 FFF7FEFF 		bl	_ZN5daisy9DaisySeed17SetAudioBlockSizeEj
 344              	.LVL17:
  51:adenv.cpp     ****     env.Init(sample_rate);
 345              		.loc 9 51 5 is_stmt 1 view .LVU70
  51:adenv.cpp     ****     env.Init(sample_rate);
 346              		.loc 9 51 37 is_stmt 0 view .LVU71
 347 0024 2448     		ldr	r0, .L26
 348 0026 FFF7FEFF 		bl	_ZN5daisy9DaisySeed15AudioSampleRateEv
 349              	.LVL18:
 350 002a B0EE408A 		vmov.f32	s16, s0
 351              	.LVL19:
 352              		.loc 9 52 5 is_stmt 1 view .LVU72
 353              		.loc 9 52 13 is_stmt 0 view .LVU73
 354 002e 2846     		mov	r0, r5
 355 0030 FFF7FEFF 		bl	_ZN7daisysp5AdEnv4InitEf
 356              	.LVL20:
  53:adenv.cpp     ****     osc.Init(sample_rate);
 357              		.loc 9 53 5 is_stmt 1 view .LVU74
 358              	.LBB144:
 359              	.LBI138:
  50:../../../DaisySP/Source/Synthesis/oscillator.h ****     {
 360              		.loc 2 50 10 view .LVU75
 361              	.LBB141:
  52:../../../DaisySP/Source/Synthesis/oscillator.h ****         sr_recip_  = 1.0f / sample_rate;
 362              		.loc 2 52 9 view .LVU76
  55:../../../DaisySP/Source/Synthesis/oscillator.h ****         pw_        = 0.5f;
 363              		.loc 2 55 20 is_stmt 0 view .LVU77
 364 0034 4FF07C53 		mov	r3, #1056964608
  53:../../../DaisySP/Source/Synthesis/oscillator.h ****         freq_      = 100.0f;
 365              		.loc 2 53 27 view .LVU78
 366 0038 C8EE887A 		vdiv.f32	s15, s17, s16
  57:../../../DaisySP/Source/Synthesis/oscillator.h ****         phase_inc_ = CalcPhaseInc(freq_);
 367              		.loc 2 57 20 view .LVU79
 368 003c 0022     		movs	r2, #0
  54:../../../DaisySP/Source/Synthesis/oscillator.h ****         amp_       = 0.5f;
 369              		.loc 2 54 20 view .LVU80
 370 003e 9FED210A 		vldr.32	s0, .L26+12
  58:../../../DaisySP/Source/Synthesis/oscillator.h ****         waveform_  = WAVE_SIN;
ARM GAS  C:\Users\Miguel\AppData\Local\Temp\ccmTzdaG.s 			page 18


 371              		.loc 2 58 34 view .LVU81
 372 0042 2046     		mov	r0, r4
  55:../../../DaisySP/Source/Synthesis/oscillator.h ****         pw_        = 0.5f;
 373              		.loc 2 55 20 view .LVU82
 374 0044 6360     		str	r3, [r4, #4]	@ float
  56:../../../DaisySP/Source/Synthesis/oscillator.h ****         phase_     = 0.0f;
 375              		.loc 2 56 20 view .LVU83
 376 0046 E360     		str	r3, [r4, #12]	@ float
  57:../../../DaisySP/Source/Synthesis/oscillator.h ****         phase_inc_ = CalcPhaseInc(freq_);
 377              		.loc 2 57 20 view .LVU84
 378 0048 A261     		str	r2, [r4, #24]	@ float
  52:../../../DaisySP/Source/Synthesis/oscillator.h ****         sr_recip_  = 1.0f / sample_rate;
 379              		.loc 2 52 20 view .LVU85
 380 004a 84ED048A 		vstr.32	s16, [r4, #16]
  53:../../../DaisySP/Source/Synthesis/oscillator.h ****         freq_      = 100.0f;
 381              		.loc 2 53 9 is_stmt 1 view .LVU86
  54:../../../DaisySP/Source/Synthesis/oscillator.h ****         amp_       = 0.5f;
 382              		.loc 2 54 20 is_stmt 0 view .LVU87
 383 004e 84ED020A 		vstr.32	s0, [r4, #8]
  53:../../../DaisySP/Source/Synthesis/oscillator.h ****         freq_      = 100.0f;
 384              		.loc 2 53 20 view .LVU88
 385 0052 C4ED057A 		vstr.32	s15, [r4, #20]
  54:../../../DaisySP/Source/Synthesis/oscillator.h ****         amp_       = 0.5f;
 386              		.loc 2 54 9 is_stmt 1 view .LVU89
  55:../../../DaisySP/Source/Synthesis/oscillator.h ****         pw_        = 0.5f;
 387              		.loc 2 55 9 view .LVU90
  56:../../../DaisySP/Source/Synthesis/oscillator.h ****         phase_     = 0.0f;
 388              		.loc 2 56 9 view .LVU91
  57:../../../DaisySP/Source/Synthesis/oscillator.h ****         phase_inc_ = CalcPhaseInc(freq_);
 389              		.loc 2 57 9 view .LVU92
  58:../../../DaisySP/Source/Synthesis/oscillator.h ****         waveform_  = WAVE_SIN;
 390              		.loc 2 58 9 view .LVU93
  58:../../../DaisySP/Source/Synthesis/oscillator.h ****         waveform_  = WAVE_SIN;
 391              		.loc 2 58 34 is_stmt 0 view .LVU94
 392 0056 FFF7FEFF 		bl	_ZN7daisysp10Oscillator12CalcPhaseIncEf
 393              	.LVL21:
 394 005a F0EE407A 		vmov.f32	s15, s0
  59:../../../DaisySP/Source/Synthesis/oscillator.h ****         eoc_       = true;
 395              		.loc 2 59 20 view .LVU95
 396 005e 0022     		movs	r2, #0
  61:../../../DaisySP/Source/Synthesis/oscillator.h ****     }
 397              		.loc 2 61 20 view .LVU96
 398 0060 40F20113 		movw	r3, #257
 399              	.LBE141:
 400              	.LBE144:
  54:adenv.cpp     **** 
  55:adenv.cpp     ****     // Set up metro to pulse every second
  56:adenv.cpp     ****     tick.Init(1.0f, sample_rate);
 401              		.loc 9 56 14 view .LVU97
 402 0064 F0EE480A 		vmov.f32	s1, s16
 403 0068 B0EE680A 		vmov.f32	s0, s17
 404 006c 1648     		ldr	r0, .L26+16
 405              	.LBB145:
 406              	.LBB142:
  58:../../../DaisySP/Source/Synthesis/oscillator.h ****         waveform_  = WAVE_SIN;
 407              		.loc 2 58 20 view .LVU98
 408 006e C4ED077A 		vstr.32	s15, [r4, #28]
ARM GAS  C:\Users\Miguel\AppData\Local\Temp\ccmTzdaG.s 			page 19


  59:../../../DaisySP/Source/Synthesis/oscillator.h ****         eoc_       = true;
 409              		.loc 2 59 9 is_stmt 1 view .LVU99
  59:../../../DaisySP/Source/Synthesis/oscillator.h ****         eoc_       = true;
 410              		.loc 2 59 20 is_stmt 0 view .LVU100
 411 0072 2270     		strb	r2, [r4]
  60:../../../DaisySP/Source/Synthesis/oscillator.h ****         eor_       = true;
 412              		.loc 2 60 9 is_stmt 1 view .LVU101
  61:../../../DaisySP/Source/Synthesis/oscillator.h ****     }
 413              		.loc 2 61 9 view .LVU102
  61:../../../DaisySP/Source/Synthesis/oscillator.h ****     }
 414              		.loc 2 61 20 is_stmt 0 view .LVU103
 415 0074 2385     		strh	r3, [r4, #40]	@ movhi
 416              	.LVL22:
  61:../../../DaisySP/Source/Synthesis/oscillator.h ****     }
 417              		.loc 2 61 20 view .LVU104
 418              	.LBE142:
 419              	.LBE145:
 420              		.loc 9 56 5 is_stmt 1 view .LVU105
 421              		.loc 9 56 14 is_stmt 0 view .LVU106
 422 0076 FFF7FEFF 		bl	_ZN7daisysp5Metro4InitEff
 423              	.LVL23:
  57:adenv.cpp     **** 
  58:adenv.cpp     ****     // set adenv parameters
  59:adenv.cpp     ****     env.SetTime(ADENV_SEG_ATTACK, 0.15);
 424              		.loc 9 59 5 is_stmt 1 view .LVU107
 425              	.LBB146:
 426              	.LBI146:
  65:../../../DaisySP/Source/Control/adenv.h ****     /** Sets the length of time (in seconds) for a specific segment. */
  66:../../../DaisySP/Source/Control/adenv.h ****     inline void SetTime(uint8_t seg, float time) { segment_time_[seg] = time; }
 427              		.loc 1 66 17 view .LVU108
 428              	.LBB147:
 429              		.loc 1 66 52 view .LVU109
 430              	.LBE147:
 431              	.LBE146:
 432              	.LBB150:
 433              	.LBB151:
  67:../../../DaisySP/Source/Control/adenv.h ****     /** Sets the amount of curve applied. A positve value will create a log
  68:../../../DaisySP/Source/Control/adenv.h ****         curve. Input range: -100 to 100.  (or more)
  69:../../../DaisySP/Source/Control/adenv.h ****     */
  70:../../../DaisySP/Source/Control/adenv.h ****     inline void SetCurve(float scalar) { curve_scalar_ = scalar; }
  71:../../../DaisySP/Source/Control/adenv.h ****     /** Sets the minimum value of the envelope output.
  72:../../../DaisySP/Source/Control/adenv.h ****         Input range: -FLTmax_, to FLTmax_
  73:../../../DaisySP/Source/Control/adenv.h ****     */
  74:../../../DaisySP/Source/Control/adenv.h ****     inline void SetMin(float min) { min_ = min; }
 434              		.loc 1 74 42 is_stmt 0 view .LVU110
 435 007a 4FF07A52 		mov	r2, #1048576000
 436              	.LBE151:
 437              	.LBE150:
 438              	.LBB154:
 439              	.LBB155:
  75:../../../DaisySP/Source/Control/adenv.h ****     /** Sets the maximum value of the envelope output.
  76:../../../DaisySP/Source/Control/adenv.h ****         Input range: -FLTmax_, to FLTmax_
  77:../../../DaisySP/Source/Control/adenv.h ****     */
  78:../../../DaisySP/Source/Control/adenv.h ****     inline void SetMax(float max) { max_ = max; }
 440              		.loc 1 78 42 view .LVU111
 441 007e 4FF08043 		mov	r3, #1073741824
 442              	.LBE155:
ARM GAS  C:\Users\Miguel\AppData\Local\Temp\ccmTzdaG.s 			page 20


 443              	.LBE154:
 444              	.LBB158:
 445              	.LBB148:
  66:../../../DaisySP/Source/Control/adenv.h ****     /** Sets the amount of curve applied. A positve value will create a log
 446              		.loc 1 66 71 view .LVU112
 447 0082 1249     		ldr	r1, .L26+20
 448              	.LBE148:
 449              	.LBE158:
 450              	.LBB159:
 451              	.LBB160:
  70:../../../DaisySP/Source/Synthesis/oscillator.h ****     }
 452              		.loc 2 70 34 view .LVU113
 453 0084 2046     		mov	r0, r4
  69:../../../DaisySP/Source/Synthesis/oscillator.h ****         phase_inc_ = CalcPhaseInc(f);
 454              		.loc 2 69 20 view .LVU114
 455 0086 9FED120A 		vldr.32	s0, .L26+24
 456              	.LBE160:
 457              	.LBE159:
 458              	.LBB164:
 459              	.LBB149:
  66:../../../DaisySP/Source/Control/adenv.h ****     /** Sets the amount of curve applied. A positve value will create a log
 460              		.loc 1 66 71 view .LVU115
 461 008a A960     		str	r1, [r5, #8]	@ float
 462              	.LVL24:
  66:../../../DaisySP/Source/Control/adenv.h ****     /** Sets the amount of curve applied. A positve value will create a log
 463              		.loc 1 66 71 view .LVU116
 464              	.LBE149:
 465              	.LBE164:
  60:adenv.cpp     ****     env.SetTime(ADENV_SEG_DECAY, 0.35);
 466              		.loc 9 60 5 is_stmt 1 view .LVU117
 467              	.LBB165:
 468              	.LBI165:
  66:../../../DaisySP/Source/Control/adenv.h ****     /** Sets the amount of curve applied. A positve value will create a log
 469              		.loc 1 66 17 view .LVU118
 470              	.LBB166:
  66:../../../DaisySP/Source/Control/adenv.h ****     /** Sets the amount of curve applied. A positve value will create a log
 471              		.loc 1 66 52 view .LVU119
 472              	.LBE166:
 473              	.LBE165:
 474              	.LBB169:
 475              	.LBB152:
  74:../../../DaisySP/Source/Control/adenv.h ****     /** Sets the maximum value of the envelope output.
 476              		.loc 1 74 42 is_stmt 0 view .LVU120
 477 008c 6A61     		str	r2, [r5, #20]	@ float
 478              	.LBE152:
 479              	.LBE169:
 480              	.LBB170:
 481              	.LBB167:
  66:../../../DaisySP/Source/Control/adenv.h ****     /** Sets the amount of curve applied. A positve value will create a log
 482              		.loc 1 66 71 view .LVU121
 483 008e 1149     		ldr	r1, .L26+28
 484              	.LBE167:
 485              	.LBE170:
 486              	.LBB171:
 487              	.LBB172:
  70:../../../DaisySP/Source/Control/adenv.h ****     /** Sets the minimum value of the envelope output.
 488              		.loc 1 70 56 view .LVU122
ARM GAS  C:\Users\Miguel\AppData\Local\Temp\ccmTzdaG.s 			page 21


 489 0090 114A     		ldr	r2, .L26+32
 490              	.LBE172:
 491              	.LBE171:
 492              	.LBB175:
 493              	.LBB156:
 494              		.loc 1 78 42 view .LVU123
 495 0092 AB61     		str	r3, [r5, #24]	@ float
 496              	.LBE156:
 497              	.LBE175:
 498              	.LBB176:
 499              	.LBB177:
  77:../../../DaisySP/Source/Synthesis/oscillator.h ****     /** Sets the waveform to be synthesized by the Process() function.
  78:../../../DaisySP/Source/Synthesis/oscillator.h ****     */
  79:../../../DaisySP/Source/Synthesis/oscillator.h ****     inline void SetWaveform(const uint8_t wf)
  80:../../../DaisySP/Source/Synthesis/oscillator.h ****     {
  81:../../../DaisySP/Source/Synthesis/oscillator.h ****         waveform_ = wf < WAVE_LAST ? wf : WAVE_SIN;
 500              		.loc 2 81 19 view .LVU124
 501 0094 0123     		movs	r3, #1
 502              	.LBE177:
 503              	.LBE176:
 504              	.LBB180:
 505              	.LBB168:
  66:../../../DaisySP/Source/Control/adenv.h ****     /** Sets the amount of curve applied. A positve value will create a log
 506              		.loc 1 66 71 view .LVU125
 507 0096 E960     		str	r1, [r5, #12]	@ float
 508              	.LVL25:
  66:../../../DaisySP/Source/Control/adenv.h ****     /** Sets the amount of curve applied. A positve value will create a log
 509              		.loc 1 66 71 view .LVU126
 510              	.LBE168:
 511              	.LBE180:
  61:adenv.cpp     ****     env.SetMin(0.25);
 512              		.loc 9 61 5 is_stmt 1 view .LVU127
 513              	.LBB181:
 514              	.LBI150:
  74:../../../DaisySP/Source/Control/adenv.h ****     /** Sets the maximum value of the envelope output.
 515              		.loc 1 74 17 view .LVU128
 516              	.LBB153:
  74:../../../DaisySP/Source/Control/adenv.h ****     /** Sets the maximum value of the envelope output.
 517              		.loc 1 74 37 view .LVU129
  74:../../../DaisySP/Source/Control/adenv.h ****     /** Sets the maximum value of the envelope output.
 518              		.loc 1 74 37 is_stmt 0 view .LVU130
 519              	.LBE153:
 520              	.LBE181:
  62:adenv.cpp     ****     env.SetMax(2.0);
 521              		.loc 9 62 5 is_stmt 1 view .LVU131
 522              	.LBB182:
 523              	.LBI154:
 524              		.loc 1 78 17 view .LVU132
 525              	.LBB157:
 526              		.loc 1 78 37 view .LVU133
 527              		.loc 1 78 37 is_stmt 0 view .LVU134
 528              	.LBE157:
 529              	.LBE182:
  63:adenv.cpp     ****     env.SetCurve(50); // linear
 530              		.loc 9 63 5 is_stmt 1 view .LVU135
 531              	.LBB183:
 532              	.LBI171:
ARM GAS  C:\Users\Miguel\AppData\Local\Temp\ccmTzdaG.s 			page 22


  70:../../../DaisySP/Source/Control/adenv.h ****     /** Sets the minimum value of the envelope output.
 533              		.loc 1 70 17 view .LVU136
 534              	.LBB173:
  70:../../../DaisySP/Source/Control/adenv.h ****     /** Sets the minimum value of the envelope output.
 535              		.loc 1 70 42 view .LVU137
 536              	.LBE173:
 537              	.LBE183:
 538              	.LBB184:
 539              	.LBB178:
 540              		.loc 2 81 19 is_stmt 0 view .LVU138
 541 0098 2370     		strb	r3, [r4]
 542              	.LBE178:
 543              	.LBE184:
 544              	.LBB185:
 545              	.LBB161:
  69:../../../DaisySP/Source/Synthesis/oscillator.h ****         phase_inc_ = CalcPhaseInc(f);
 546              		.loc 2 69 20 view .LVU139
 547 009a 84ED020A 		vstr.32	s0, [r4, #8]
 548              	.LBE161:
 549              	.LBE185:
 550              	.LBB186:
 551              	.LBB174:
  70:../../../DaisySP/Source/Control/adenv.h ****     /** Sets the minimum value of the envelope output.
 552              		.loc 1 70 56 view .LVU140
 553 009e 2A62     		str	r2, [r5, #32]	@ float
 554              	.LVL26:
  70:../../../DaisySP/Source/Control/adenv.h ****     /** Sets the minimum value of the envelope output.
 555              		.loc 1 70 56 view .LVU141
 556              	.LBE174:
 557              	.LBE186:
  64:adenv.cpp     **** 
  65:adenv.cpp     ****     // Set parameters for oscillator
  66:adenv.cpp     ****     osc.SetWaveform(osc.WAVE_TRI);
 558              		.loc 9 66 5 is_stmt 1 view .LVU142
 559              	.LBB187:
 560              	.LBI176:
  79:../../../DaisySP/Source/Synthesis/oscillator.h ****     {
 561              		.loc 2 79 17 view .LVU143
 562              	.LBB179:
 563              		.loc 2 81 9 view .LVU144
 564              		.loc 2 81 9 is_stmt 0 view .LVU145
 565              	.LBE179:
 566              	.LBE187:
  67:adenv.cpp     ****     osc.SetFreq(220);
 567              		.loc 9 67 5 is_stmt 1 view .LVU146
 568              	.LBB188:
 569              	.LBI159:
  67:../../../DaisySP/Source/Synthesis/oscillator.h ****     {
 570              		.loc 2 67 17 view .LVU147
 571              	.LBB162:
  69:../../../DaisySP/Source/Synthesis/oscillator.h ****         phase_inc_ = CalcPhaseInc(f);
 572              		.loc 2 69 9 view .LVU148
  70:../../../DaisySP/Source/Synthesis/oscillator.h ****     }
 573              		.loc 2 70 9 view .LVU149
  70:../../../DaisySP/Source/Synthesis/oscillator.h ****     }
 574              		.loc 2 70 34 is_stmt 0 view .LVU150
 575 00a0 FFF7FEFF 		bl	_ZN7daisysp10Oscillator12CalcPhaseIncEf
ARM GAS  C:\Users\Miguel\AppData\Local\Temp\ccmTzdaG.s 			page 23


 576              	.LVL27:
 577              	.LBE162:
 578              	.LBE188:
 579              	.LBB189:
 580              	.LBB190:
  76:../../../DaisySP/Source/Synthesis/oscillator.h ****     /** Sets the waveform to be synthesized by the Process() function.
 581              		.loc 2 76 46 view .LVU151
 582 00a4 4FF07D53 		mov	r3, #1061158912
 583              	.LBE190:
 584              	.LBE189:
  68:adenv.cpp     ****     osc.SetAmp(0.75);
  69:adenv.cpp     **** 
  70:adenv.cpp     **** 
  71:adenv.cpp     ****     // start callback
  72:adenv.cpp     ****     hw.StartAudio(AudioCallback);
 585              		.loc 9 72 18 view .LVU152
 586 00a8 0C49     		ldr	r1, .L26+36
 587 00aa 0348     		ldr	r0, .L26
 588              	.LBB192:
 589              	.LBB163:
  70:../../../DaisySP/Source/Synthesis/oscillator.h ****     }
 590              		.loc 2 70 20 view .LVU153
 591 00ac 84ED070A 		vstr.32	s0, [r4, #28]
 592              	.LVL28:
  70:../../../DaisySP/Source/Synthesis/oscillator.h ****     }
 593              		.loc 2 70 20 view .LVU154
 594              	.LBE163:
 595              	.LBE192:
  68:adenv.cpp     ****     osc.SetAmp(0.75);
 596              		.loc 9 68 5 is_stmt 1 view .LVU155
 597              	.LBB193:
 598              	.LBI189:
  76:../../../DaisySP/Source/Synthesis/oscillator.h ****     /** Sets the waveform to be synthesized by the Process() function.
 599              		.loc 2 76 17 view .LVU156
 600              	.LBB191:
  76:../../../DaisySP/Source/Synthesis/oscillator.h ****     /** Sets the waveform to be synthesized by the Process() function.
 601              		.loc 2 76 41 view .LVU157
  76:../../../DaisySP/Source/Synthesis/oscillator.h ****     /** Sets the waveform to be synthesized by the Process() function.
 602              		.loc 2 76 46 is_stmt 0 view .LVU158
 603 00b0 6360     		str	r3, [r4, #4]	@ float
 604              	.LVL29:
  76:../../../DaisySP/Source/Synthesis/oscillator.h ****     /** Sets the waveform to be synthesized by the Process() function.
 605              		.loc 2 76 46 view .LVU159
 606              	.LBE191:
 607              	.LBE193:
 608              		.loc 9 72 5 is_stmt 1 view .LVU160
 609              		.loc 9 72 18 is_stmt 0 view .LVU161
 610 00b2 FFF7FEFF 		bl	_ZN5daisy9DaisySeed10StartAudioEPFvPKfPfjE
 611              	.LVL30:
 612              	.L24:
  73:adenv.cpp     **** 
  74:adenv.cpp     **** 
  75:adenv.cpp     ****     while(1) {}
 613              		.loc 9 75 5 is_stmt 1 discriminator 1 view .LVU162
 614              		.loc 9 75 5 discriminator 1 view .LVU163
 615              		.loc 9 75 5 discriminator 1 view .LVU164
 616              		.loc 9 75 5 discriminator 1 view .LVU165
ARM GAS  C:\Users\Miguel\AppData\Local\Temp\ccmTzdaG.s 			page 24


 617 00b6 FEE7     		b	.L24
 618              	.L27:
 619              		.align	2
 620              	.L26:
 621 00b8 00000000 		.word	.LANCHOR3
 622 00bc 00000000 		.word	.LANCHOR1
 623 00c0 00000000 		.word	.LANCHOR2
 624 00c4 0000C842 		.word	1120403456
 625 00c8 00000000 		.word	.LANCHOR0
 626 00cc 9A99193E 		.word	1041865114
 627 00d0 00005C43 		.word	1130102784
 628 00d4 3333B33E 		.word	1051931443
 629 00d8 00004842 		.word	1112014848
 630 00dc 00000000 		.word	_ZL13AudioCallbackPKfPfj
 631              		.cfi_endproc
 632              	.LFE4682:
 634              		.section	.text.startup._GLOBAL__sub_I_main,"ax",%progbits
 635              		.align	1
 636              		.p2align 2,,3
 637              		.syntax unified
 638              		.thumb
 639              		.thumb_func
 640              		.fpu fpv5-d16
 642              	_GLOBAL__sub_I_main:
 643              	.LFB5245:
  76:adenv.cpp     **** }
 644              		.loc 9 76 1 view -0
 645              		.cfi_startproc
 646              		@ args = 0, pretend = 0, frame = 0
 647              		@ frame_needed = 0, uses_anonymous_args = 0
 648              	.LBB221:
 649              	.LBI221:
 650              		.loc 9 76 1 view .LVU167
 651              	.LVL31:
 652              	.LBB222:
 653              	.LBB223:
 654              	.LBI223:
  21:../../../libDaisy/src/daisy_seed.h ****     ~DaisySeed() {}
 655              		.loc 4 21 5 view .LVU168
 656              	.LBB224:
 657              	.LBB225:
 658              	.LBI225:
 659              		.file 10 "../../../libDaisy/src/per/qspi.h"
   1:../../../libDaisy/src/per/qspi.h **** #ifndef DSY_QSPI
   2:../../../libDaisy/src/per/qspi.h **** #define DSY_QSPI /**< Macro */
   3:../../../libDaisy/src/per/qspi.h **** 
   4:../../../libDaisy/src/per/qspi.h **** #ifndef UNIT_TEST // for unit tests, a dummy implementation
   5:../../../libDaisy/src/per/qspi.h **** 
   6:../../../libDaisy/src/per/qspi.h **** #include <cstdint>
   7:../../../libDaisy/src/per/qspi.h **** #include "daisy_core.h" // Added for dsy_gpio_pin typedef
   8:../../../libDaisy/src/per/qspi.h **** 
   9:../../../libDaisy/src/per/qspi.h **** #define DSY_QSPI_TEXT       \
  10:../../../libDaisy/src/per/qspi.h ****     __attribute__((section( \
  11:../../../libDaisy/src/per/qspi.h ****         ".qspiflash_text"))) /**< used for reading memory in memory_mapped mode. */
  12:../../../libDaisy/src/per/qspi.h **** #define DSY_QSPI_DATA       \
  13:../../../libDaisy/src/per/qspi.h ****     __attribute__((section( \
  14:../../../libDaisy/src/per/qspi.h ****         ".qspiflash_data"))) /**< used for reading memory in memory_mapped mode. */
ARM GAS  C:\Users\Miguel\AppData\Local\Temp\ccmTzdaG.s 			page 25


  15:../../../libDaisy/src/per/qspi.h **** #define DSY_QSPI_BSS        \
  16:../../../libDaisy/src/per/qspi.h ****     __attribute__((section( \
  17:../../../libDaisy/src/per/qspi.h ****         ".qspiflash_bss"))) /**< used for reading memory in memory_mapped mode. */
  18:../../../libDaisy/src/per/qspi.h **** 
  19:../../../libDaisy/src/per/qspi.h **** namespace daisy
  20:../../../libDaisy/src/per/qspi.h **** {
  21:../../../libDaisy/src/per/qspi.h **** /** @addtogroup serial
  22:../../../libDaisy/src/per/qspi.h **** @{
  23:../../../libDaisy/src/per/qspi.h **** */
  24:../../../libDaisy/src/per/qspi.h **** 
  25:../../../libDaisy/src/per/qspi.h **** /** 
  26:../../../libDaisy/src/per/qspi.h ****  Driver for QSPI peripheral to interface with external flash memory. \n 
  27:../../../libDaisy/src/per/qspi.h ****     Currently supported QSPI Devices: \n 
  28:../../../libDaisy/src/per/qspi.h ****     * IS25LP080D
  29:../../../libDaisy/src/per/qspi.h **** */
  30:../../../libDaisy/src/per/qspi.h **** class QSPIHandle
  31:../../../libDaisy/src/per/qspi.h **** {
  32:../../../libDaisy/src/per/qspi.h ****   public:
  33:../../../libDaisy/src/per/qspi.h ****     enum Result
  34:../../../libDaisy/src/per/qspi.h ****     {
  35:../../../libDaisy/src/per/qspi.h ****         OK = 0,
  36:../../../libDaisy/src/per/qspi.h ****         ERR
  37:../../../libDaisy/src/per/qspi.h ****     };
  38:../../../libDaisy/src/per/qspi.h **** 
  39:../../../libDaisy/src/per/qspi.h ****     /** Indicates the current status of the module. 
  40:../../../libDaisy/src/per/qspi.h ****          *  Warnings are indicated by a leading W.
  41:../../../libDaisy/src/per/qspi.h ****          *  Errors are indicated by a leading E and cause an immediate exit.
  42:../../../libDaisy/src/per/qspi.h ****          * 
  43:../../../libDaisy/src/per/qspi.h ****          *  \param GOOD - No errors have been reported.
  44:../../../libDaisy/src/per/qspi.h ****          *  \param E_HAL_ERROR - HAL code did not return HAL_OK.
  45:../../../libDaisy/src/per/qspi.h ****          *  \param E_SWITCHING_MODES - An error was encountered while switching QSPI peripheral mod
  46:../../../libDaisy/src/per/qspi.h ****          *  \param E_INVALID_MODE - QSPI should not be written to while the program is executing fr
  47:../../../libDaisy/src/per/qspi.h ****          */
  48:../../../libDaisy/src/per/qspi.h ****     enum Status
  49:../../../libDaisy/src/per/qspi.h ****     {
  50:../../../libDaisy/src/per/qspi.h ****         GOOD = 0,
  51:../../../libDaisy/src/per/qspi.h ****         E_HAL_ERROR,
  52:../../../libDaisy/src/per/qspi.h ****         E_SWITCHING_MODES,
  53:../../../libDaisy/src/per/qspi.h ****         E_INVALID_MODE,
  54:../../../libDaisy/src/per/qspi.h ****     };
  55:../../../libDaisy/src/per/qspi.h **** 
  56:../../../libDaisy/src/per/qspi.h ****     /** Configuration structure for interfacing with QSPI Driver */
  57:../../../libDaisy/src/per/qspi.h ****     struct Config
  58:../../../libDaisy/src/per/qspi.h ****     {
  59:../../../libDaisy/src/per/qspi.h ****         /** Flash Devices supported. (Both of these are more-or-less the same, just different sizes
  60:../../../libDaisy/src/per/qspi.h ****         enum Device
  61:../../../libDaisy/src/per/qspi.h ****         {
  62:../../../libDaisy/src/per/qspi.h ****             IS25LP080D,  /**< & */
  63:../../../libDaisy/src/per/qspi.h ****             IS25LP064A,  /**< & */
  64:../../../libDaisy/src/per/qspi.h ****             DEVICE_LAST, /**< & */
  65:../../../libDaisy/src/per/qspi.h ****         };
  66:../../../libDaisy/src/per/qspi.h **** 
  67:../../../libDaisy/src/per/qspi.h ****         /** 
  68:../../../libDaisy/src/per/qspi.h ****         Modes of operation.
  69:../../../libDaisy/src/per/qspi.h ****         Memory Mapped mode: QSPI configured so that the QSPI can be
  70:../../../libDaisy/src/per/qspi.h ****         read from starting address 0x90000000. Writing is not
  71:../../../libDaisy/src/per/qspi.h ****         possible in this mode. \n 
ARM GAS  C:\Users\Miguel\AppData\Local\Temp\ccmTzdaG.s 			page 26


  72:../../../libDaisy/src/per/qspi.h ****         Indirect Polling mode: Device driver enabled. 
  73:../../../libDaisy/src/per/qspi.h ****         */
  74:../../../libDaisy/src/per/qspi.h ****         enum Mode
  75:../../../libDaisy/src/per/qspi.h ****         {
  76:../../../libDaisy/src/per/qspi.h ****             MEMORY_MAPPED,    /**< & */
  77:../../../libDaisy/src/per/qspi.h ****             INDIRECT_POLLING, /**< & */
  78:../../../libDaisy/src/per/qspi.h ****             MODE_LAST,
  79:../../../libDaisy/src/per/qspi.h ****         };
  80:../../../libDaisy/src/per/qspi.h **** 
  81:../../../libDaisy/src/per/qspi.h ****         //SCK,  CE# (active low)
  82:../../../libDaisy/src/per/qspi.h ****         struct
  83:../../../libDaisy/src/per/qspi.h ****         {
  84:../../../libDaisy/src/per/qspi.h ****             dsy_gpio_pin io0; /**< & */
  85:../../../libDaisy/src/per/qspi.h ****             dsy_gpio_pin io1; /**< & */
  86:../../../libDaisy/src/per/qspi.h ****             dsy_gpio_pin io2; /**< & */
  87:../../../libDaisy/src/per/qspi.h ****             dsy_gpio_pin io3; /**< & */
  88:../../../libDaisy/src/per/qspi.h ****             dsy_gpio_pin clk; /**< & */
  89:../../../libDaisy/src/per/qspi.h ****             dsy_gpio_pin ncs; /**< & */
  90:../../../libDaisy/src/per/qspi.h ****         } pin_config;
  91:../../../libDaisy/src/per/qspi.h **** 
  92:../../../libDaisy/src/per/qspi.h ****         Device device;
  93:../../../libDaisy/src/per/qspi.h ****         Mode   mode;
  94:../../../libDaisy/src/per/qspi.h ****     };
  95:../../../libDaisy/src/per/qspi.h **** 
  96:../../../libDaisy/src/per/qspi.h ****     /** 
  97:../../../libDaisy/src/per/qspi.h ****         Initializes QSPI peripheral, and Resets, and prepares memory for access.
  98:../../../libDaisy/src/per/qspi.h ****         \param config should be populated with the mode, device and pin_config before calling this 
  99:../../../libDaisy/src/per/qspi.h ****         \return Result::OK or Result::ERR
 100:../../../libDaisy/src/per/qspi.h ****         */
 101:../../../libDaisy/src/per/qspi.h ****     Result Init(const Config& config);
 102:../../../libDaisy/src/per/qspi.h **** 
 103:../../../libDaisy/src/per/qspi.h ****     /** Returns the current config. */
 104:../../../libDaisy/src/per/qspi.h ****     const Config& GetConfig() const;
 105:../../../libDaisy/src/per/qspi.h **** 
 106:../../../libDaisy/src/per/qspi.h ****     // Couldn't this just be called before anything else in init? That
 107:../../../libDaisy/src/per/qspi.h ****     // would make manually calling it unnecessary.
 108:../../../libDaisy/src/per/qspi.h ****     /** 
 109:../../../libDaisy/src/per/qspi.h ****         Deinitializes the peripheral
 110:../../../libDaisy/src/per/qspi.h ****         This should be called before reinitializing QSPI in a different mode.
 111:../../../libDaisy/src/per/qspi.h ****         \return Result::OK or Result::ERR
 112:../../../libDaisy/src/per/qspi.h ****         */
 113:../../../libDaisy/src/per/qspi.h ****     Result DeInit();
 114:../../../libDaisy/src/per/qspi.h **** 
 115:../../../libDaisy/src/per/qspi.h ****     /** 
 116:../../../libDaisy/src/per/qspi.h ****         Writes a single page to to the specified address on the QSPI chip.
 117:../../../libDaisy/src/per/qspi.h ****         For IS25LP*, page size is 256 bytes.
 118:../../../libDaisy/src/per/qspi.h ****         \param address Address to write to
 119:../../../libDaisy/src/per/qspi.h ****         \param size Buffer size
 120:../../../libDaisy/src/per/qspi.h ****         \param buffer Buffer to write
 121:../../../libDaisy/src/per/qspi.h ****         \return Result::OK or Result::ERR
 122:../../../libDaisy/src/per/qspi.h ****         */
 123:../../../libDaisy/src/per/qspi.h ****     Result WritePage(uint32_t address, uint32_t size, uint8_t* buffer);
 124:../../../libDaisy/src/per/qspi.h **** 
 125:../../../libDaisy/src/per/qspi.h ****     /** 
 126:../../../libDaisy/src/per/qspi.h ****         Writes data in buffer to to the QSPI. Starting at address to address+size 
 127:../../../libDaisy/src/per/qspi.h ****         \param address Address to write to
 128:../../../libDaisy/src/per/qspi.h ****         \param size Buffer size
ARM GAS  C:\Users\Miguel\AppData\Local\Temp\ccmTzdaG.s 			page 27


 129:../../../libDaisy/src/per/qspi.h ****         \param buffer Buffer to write
 130:../../../libDaisy/src/per/qspi.h ****         \return Result::OK or Result::ERR
 131:../../../libDaisy/src/per/qspi.h ****         */
 132:../../../libDaisy/src/per/qspi.h ****     Result Write(uint32_t address, uint32_t size, uint8_t* buffer);
 133:../../../libDaisy/src/per/qspi.h **** 
 134:../../../libDaisy/src/per/qspi.h ****     /** 
 135:../../../libDaisy/src/per/qspi.h ****         Erases the area specified on the chip.
 136:../../../libDaisy/src/per/qspi.h ****         Erasures will happen by 4K, 32K or 64K increments.
 137:../../../libDaisy/src/per/qspi.h ****         Smallest erase possible is 4kB at a time. (on IS25LP*)
 138:../../../libDaisy/src/per/qspi.h ****         \param start_addr Address to begin erasing from
 139:../../../libDaisy/src/per/qspi.h ****         \param end_addr  Address to stop erasing at
 140:../../../libDaisy/src/per/qspi.h ****         \return Result::OK or Result::ERR
 141:../../../libDaisy/src/per/qspi.h ****         */
 142:../../../libDaisy/src/per/qspi.h ****     Result Erase(uint32_t start_addr, uint32_t end_addr);
 143:../../../libDaisy/src/per/qspi.h **** 
 144:../../../libDaisy/src/per/qspi.h ****     /**  
 145:../../../libDaisy/src/per/qspi.h ****          Erases a single sector of the chip.  
 146:../../../libDaisy/src/per/qspi.h ****         TODO: Document the size of this function. 
 147:../../../libDaisy/src/per/qspi.h ****         \param address Address of sector to erase
 148:../../../libDaisy/src/per/qspi.h ****         \return Result::OK or Result::ERR
 149:../../../libDaisy/src/per/qspi.h ****         */
 150:../../../libDaisy/src/per/qspi.h ****     Result EraseSector(uint32_t address);
 151:../../../libDaisy/src/per/qspi.h **** 
 152:../../../libDaisy/src/per/qspi.h ****     /** Returns the current class status. Useful for debugging.
 153:../../../libDaisy/src/per/qspi.h ****      *  \returns Status
 154:../../../libDaisy/src/per/qspi.h ****      */
 155:../../../libDaisy/src/per/qspi.h ****     Status GetStatus();
 156:../../../libDaisy/src/per/qspi.h **** 
 157:../../../libDaisy/src/per/qspi.h ****     /** Returns a pointer to the actual memory used 
 158:../../../libDaisy/src/per/qspi.h ****      *  The memory at this address is read-only
 159:../../../libDaisy/src/per/qspi.h ****      *  to write to it use the Write function.
 160:../../../libDaisy/src/per/qspi.h ****      * 
 161:../../../libDaisy/src/per/qspi.h ****      *  \param offset returns the pointer starting this 
 162:../../../libDaisy/src/per/qspi.h ****      *                many bytes into the memory
 163:../../../libDaisy/src/per/qspi.h ****     */
 164:../../../libDaisy/src/per/qspi.h ****     void* GetData(uint32_t offset = 0);
 165:../../../libDaisy/src/per/qspi.h **** 
 166:../../../libDaisy/src/per/qspi.h ****     QSPIHandle() : pimpl_(nullptr) {}
 660              		.loc 10 166 5 view .LVU169
 661              	.LBE225:
 662              	.LBE224:
 663              	.LBE223:
 664              	.LBE222:
 665              	.LBE221:
 666              		.loc 9 76 1 is_stmt 0 view .LVU170
 667 0000 08B5     		push	{r3, lr}
 668              		.cfi_def_cfa_offset 8
 669              		.cfi_offset 3, -8
 670              		.cfi_offset 14, -4
 671              	.LBB253:
 672              	.LBB251:
 673              	.LBB246:
 674              	.LBB244:
 675              	.LBB230:
 676              	.LBB226:
 677              	.LBB227:
 678              		.loc 10 166 34 view .LVU171
ARM GAS  C:\Users\Miguel\AppData\Local\Temp\ccmTzdaG.s 			page 28


 679 0002 0D48     		ldr	r0, .L30
 680 0004 0023     		movs	r3, #0
 681              	.LBE227:
 682              	.LBE226:
 683              	.LBE230:
 684              	.LBE244:
 685              	.LBE246:
  16:adenv.cpp     **** static AdEnv      env;
 686              		.loc 9 16 19 view .LVU172
 687 0006 0D4A     		ldr	r2, .L30+4
 688              	.LBB247:
 689              	.LBB245:
 690              	.LBB231:
 691              	.LBB229:
 692              	.LBB228:
 693              		.loc 10 166 34 view .LVU173
 694 0008 0360     		str	r3, [r0]
 695              	.LVL32:
 696              		.loc 10 166 34 view .LVU174
 697              	.LBE228:
 698              	.LBE229:
 699              	.LBE231:
 700              	.LBB232:
 701              	.LBI232:
  95:../../../libDaisy/src/hid/audio.h ****     ~AudioHandle() {}
 702              		.loc 8 95 5 is_stmt 1 view .LVU175
 703              	.LBB233:
 704              	.LBB234:
  95:../../../libDaisy/src/hid/audio.h ****     ~AudioHandle() {}
 705              		.loc 8 95 35 is_stmt 0 view .LVU176
 706 000a 4361     		str	r3, [r0, #20]
 707              	.LVL33:
  95:../../../libDaisy/src/hid/audio.h ****     ~AudioHandle() {}
 708              		.loc 8 95 35 view .LVU177
 709              	.LBE234:
 710              	.LBE233:
 711              	.LBE232:
 712              	.LBB235:
 713              	.LBI235:
 109:../../../libDaisy/src/per/adc.h ****     ~AdcHandle() {}
 714              		.loc 7 109 5 is_stmt 1 view .LVU178
 109:../../../libDaisy/src/per/adc.h ****     ~AdcHandle() {}
 715              		.loc 7 109 5 is_stmt 0 view .LVU179
 716              	.LBE235:
 717              	.LBB236:
 718              	.LBI236:
 719              		.file 11 "../../../libDaisy/src/per/dac.h"
   1:../../../libDaisy/src/per/dac.h **** #pragma once
   2:../../../libDaisy/src/per/dac.h **** #ifndef DSY_DAC_H
   3:../../../libDaisy/src/per/dac.h **** #define DSY_DAC_H
   4:../../../libDaisy/src/per/dac.h **** 
   5:../../../libDaisy/src/per/dac.h **** #include "daisy_core.h"
   6:../../../libDaisy/src/per/dac.h **** 
   7:../../../libDaisy/src/per/dac.h **** namespace daisy
   8:../../../libDaisy/src/per/dac.h **** {
   9:../../../libDaisy/src/per/dac.h **** /** @brief DAC handle for Built-in DAC Peripheral 
  10:../../../libDaisy/src/per/dac.h ****  *  @ingroup per_analog
ARM GAS  C:\Users\Miguel\AppData\Local\Temp\ccmTzdaG.s 			page 29


  11:../../../libDaisy/src/per/dac.h ****  ** 
  12:../../../libDaisy/src/per/dac.h ****  ** For now only Normal Mode is supported,
  13:../../../libDaisy/src/per/dac.h ****  ** Sample and hold mode provides reduced power consumption, but requires a bit more setup.
  14:../../../libDaisy/src/per/dac.h ****  **
  15:../../../libDaisy/src/per/dac.h ****  ** For now connecting the DAC through other internal peripherals is also not supported.
  16:../../../libDaisy/src/per/dac.h ****  **
  17:../../../libDaisy/src/per/dac.h ****  ** Since the DAC channels have dedicated pins we don't need to pass in a pin config like with
  18:../../../libDaisy/src/per/dac.h ****  ** other modules. However, it is still important to not try to use the DAC pins for anything else.
  19:../../../libDaisy/src/per/dac.h ****  ** DAC Channel 1 is on PA4, and DAC Channel 2 is on PA5
  20:../../../libDaisy/src/per/dac.h ****  ***/
  21:../../../libDaisy/src/per/dac.h **** class DacHandle
  22:../../../libDaisy/src/per/dac.h **** {
  23:../../../libDaisy/src/per/dac.h ****   public:
  24:../../../libDaisy/src/per/dac.h ****     /** Return Values for the DacHandle class */
  25:../../../libDaisy/src/per/dac.h ****     enum class Result
  26:../../../libDaisy/src/per/dac.h ****     {
  27:../../../libDaisy/src/per/dac.h ****         OK,
  28:../../../libDaisy/src/per/dac.h ****         ERR,
  29:../../../libDaisy/src/per/dac.h ****     };
  30:../../../libDaisy/src/per/dac.h **** 
  31:../../../libDaisy/src/per/dac.h ****     /** Selects which channel(s) will be configured for use. */
  32:../../../libDaisy/src/per/dac.h ****     enum class Channel
  33:../../../libDaisy/src/per/dac.h ****     {
  34:../../../libDaisy/src/per/dac.h ****         ONE,
  35:../../../libDaisy/src/per/dac.h ****         TWO,
  36:../../../libDaisy/src/per/dac.h ****         BOTH,
  37:../../../libDaisy/src/per/dac.h ****     };
  38:../../../libDaisy/src/per/dac.h **** 
  39:../../../libDaisy/src/per/dac.h ****     /** Sets the Mode for the DAC channels.
  40:../../../libDaisy/src/per/dac.h ****      **
  41:../../../libDaisy/src/per/dac.h ****      ** Polling mode uses the blocking mode to transmit a single value at a time.
  42:../../../libDaisy/src/per/dac.h ****      **
  43:../../../libDaisy/src/per/dac.h ****      ** DMA mode uses a buffer, and periodically transmits it triggering a 
  44:../../../libDaisy/src/per/dac.h ****      ** callback to fill the buffer when it is ready for more samples.
  45:../../../libDaisy/src/per/dac.h ****      ***/
  46:../../../libDaisy/src/per/dac.h ****     enum class Mode
  47:../../../libDaisy/src/per/dac.h ****     {
  48:../../../libDaisy/src/per/dac.h ****         POLLING,
  49:../../../libDaisy/src/per/dac.h ****         DMA,
  50:../../../libDaisy/src/per/dac.h ****     };
  51:../../../libDaisy/src/per/dac.h **** 
  52:../../../libDaisy/src/per/dac.h ****     /** Sets the number of bits per sample transmitted out of the DAC.
  53:../../../libDaisy/src/per/dac.h ****      ** The output range will be: 0V - VDDA
  54:../../../libDaisy/src/per/dac.h ****      ** The resolution will be roughly: bitdepth / (VDDA - 0V) 
  55:../../../libDaisy/src/per/dac.h ****      ***/
  56:../../../libDaisy/src/per/dac.h ****     enum class BitDepth
  57:../../../libDaisy/src/per/dac.h ****     {
  58:../../../libDaisy/src/per/dac.h ****         BITS_8,
  59:../../../libDaisy/src/per/dac.h ****         BITS_12
  60:../../../libDaisy/src/per/dac.h ****     };
  61:../../../libDaisy/src/per/dac.h **** 
  62:../../../libDaisy/src/per/dac.h ****     /** Sets whether the DAC output is buffered for higher drive ability. */
  63:../../../libDaisy/src/per/dac.h ****     enum class BufferState
  64:../../../libDaisy/src/per/dac.h ****     {
  65:../../../libDaisy/src/per/dac.h ****         ENABLED,
  66:../../../libDaisy/src/per/dac.h ****         DISABLED,
  67:../../../libDaisy/src/per/dac.h ****     };
ARM GAS  C:\Users\Miguel\AppData\Local\Temp\ccmTzdaG.s 			page 30


  68:../../../libDaisy/src/per/dac.h **** 
  69:../../../libDaisy/src/per/dac.h ****     /** Configuration structure for initializing the DAC structure. */
  70:../../../libDaisy/src/per/dac.h ****     struct Config
  71:../../../libDaisy/src/per/dac.h ****     {
  72:../../../libDaisy/src/per/dac.h ****         /** Target Samplerate in Hz used to configure the internal 
  73:../../../libDaisy/src/per/dac.h ****          ** timebase for DMA mode. Does nothing in POLLING mode.
  74:../../../libDaisy/src/per/dac.h ****          ** If the value is 0 at Init time this will default to 48000Hz 
  75:../../../libDaisy/src/per/dac.h ****          ** otherwise the driver will attempt meet the target.*/
  76:../../../libDaisy/src/per/dac.h ****         uint32_t target_samplerate;
  77:../../../libDaisy/src/per/dac.h **** 
  78:../../../libDaisy/src/per/dac.h ****         Channel     chn;
  79:../../../libDaisy/src/per/dac.h ****         Mode        mode;
  80:../../../libDaisy/src/per/dac.h ****         BitDepth    bitdepth;
  81:../../../libDaisy/src/per/dac.h ****         BufferState buff_state;
  82:../../../libDaisy/src/per/dac.h ****     };
  83:../../../libDaisy/src/per/dac.h **** 
  84:../../../libDaisy/src/per/dac.h ****     DacHandle() : pimpl_(nullptr) {}
 720              		.loc 11 84 5 is_stmt 1 view .LVU180
 721              	.LBB237:
 722              	.LBB238:
 723              		.loc 11 84 33 is_stmt 0 view .LVU181
 724 000c 0362     		str	r3, [r0, #32]
 725              	.LVL34:
 726              		.loc 11 84 33 view .LVU182
 727              	.LBE238:
 728              	.LBE237:
 729              	.LBE236:
 730              	.LBB239:
 731              	.LBI239:
  40:../../../libDaisy/src/hid/usb.h **** 
 732              		.loc 6 40 5 is_stmt 1 view .LVU183
  40:../../../libDaisy/src/hid/usb.h **** 
 733              		.loc 6 40 5 is_stmt 0 view .LVU184
 734              	.LBE239:
 735              	.LBB240:
 736              	.LBI240:
  96:../../../libDaisy/src/sys/system.h ****     ~System() {}
 737              		.loc 5 96 5 is_stmt 1 view .LVU185
  96:../../../libDaisy/src/sys/system.h ****     ~System() {}
 738              		.loc 5 96 5 is_stmt 0 view .LVU186
 739              	.LBE240:
 740              	.LBB241:
 741              	.LBI241:
 742              		.file 12 "../../../libDaisy/src/per/sai.h"
   1:../../../libDaisy/src/per/sai.h **** #pragma once
   2:../../../libDaisy/src/per/sai.h **** #ifndef DSY_SAI_H
   3:../../../libDaisy/src/per/sai.h **** #define DSY_SAI_H
   4:../../../libDaisy/src/per/sai.h **** 
   5:../../../libDaisy/src/per/sai.h **** #include "daisy_core.h"
   6:../../../libDaisy/src/per/sai.h **** 
   7:../../../libDaisy/src/per/sai.h **** namespace daisy
   8:../../../libDaisy/src/per/sai.h **** {
   9:../../../libDaisy/src/per/sai.h **** /** 
  10:../../../libDaisy/src/per/sai.h ****  * Support for I2S Audio Protocol with different bit-depth, samplerate options
  11:../../../libDaisy/src/per/sai.h ****  * Allows for master or slave, as well as freedom of selecting direction, 
  12:../../../libDaisy/src/per/sai.h ****  * and other behavior for each peripheral, and block.
  13:../../../libDaisy/src/per/sai.h ****  * 
ARM GAS  C:\Users\Miguel\AppData\Local\Temp\ccmTzdaG.s 			page 31


  14:../../../libDaisy/src/per/sai.h ****  * DMA Transfer commands must use buffers located within non-cached memory or use cache maintenance
  15:../../../libDaisy/src/per/sai.h ****  * To declare an unitialized global element in the DMA memory section:
  16:../../../libDaisy/src/per/sai.h ****  *    int32_t DSY_DMA_BUFFER_SECTOR my_buffer[96];
  17:../../../libDaisy/src/per/sai.h ****  *
  18:../../../libDaisy/src/per/sai.h ****  * Callback functions will be called once per half of the buffer. In the above example, 
  19:../../../libDaisy/src/per/sai.h ****  * the callback function would be called once for every 48 samples.
  20:../../../libDaisy/src/per/sai.h ****  * 
  21:../../../libDaisy/src/per/sai.h ****  * Use SAI Handle like this:
  22:../../../libDaisy/src/per/sai.h ****  * 
  23:../../../libDaisy/src/per/sai.h ****  *  SaiHandle::Config sai_config;
  24:../../../libDaisy/src/per/sai.h ****  *  sai_config.periph          = SaiHandle::Config::Peripheral::SAI_1;
  25:../../../libDaisy/src/per/sai.h ****  *  sai_config.sr              = SaiHandle::Config::SampleRate::SAI_48KHZ;
  26:../../../libDaisy/src/per/sai.h ****  *  sai_config.bit_depth       = SaiHandle::Config::BitDepth::SAI_24BIT;
  27:../../../libDaisy/src/per/sai.h ****  *  sai_config.a_sync          = SaiHandle::Config::Sync::MASTER;
  28:../../../libDaisy/src/per/sai.h ****  *  sai_config.b_sync          = SaiHandle::Config::Sync::SLAVE;
  29:../../../libDaisy/src/per/sai.h ****  *  sai_config.a_dir           = SaiHandle::Config::Direction::RECEIVE;
  30:../../../libDaisy/src/per/sai.h ****  *  sai_config.b_dir           = SaiHandle::Config::Direction::TRANSMIT;
  31:../../../libDaisy/src/per/sai.h ****  *  sai_config.pin_config.fs   = {DSY_GPIOE, 4};
  32:../../../libDaisy/src/per/sai.h ****  *  sai_config.pin_config.mclk = {DSY_GPIOE, 2};
  33:../../../libDaisy/src/per/sai.h ****  *  sai_config.pin_config.sck  = {DSY_GPIOE, 5};
  34:../../../libDaisy/src/per/sai.h ****  *  sai_config.pin_config.sa   = {DSY_GPIOE, 6};
  35:../../../libDaisy/src/per/sai.h ****  *  sai_config.pin_config.sb   = {DSY_GPIOE, 3};
  36:../../../libDaisy/src/per/sai.h ****  *  // Then Initialize
  37:../../../libDaisy/src/per/sai.h ****  *  SaiHandle sai;
  38:../../../libDaisy/src/per/sai.h ****  *  sai.Init(sai_config);
  39:../../../libDaisy/src/per/sai.h ****  *  // Now you can use it:
  40:../../../libDaisy/src/per/sai.h ****  *  sai.StartDma(. . .);
  41:../../../libDaisy/src/per/sai.h ****  */
  42:../../../libDaisy/src/per/sai.h **** class SaiHandle
  43:../../../libDaisy/src/per/sai.h **** {
  44:../../../libDaisy/src/per/sai.h ****   public:
  45:../../../libDaisy/src/per/sai.h ****     /** Contains settings for initialising an SAI Interface */
  46:../../../libDaisy/src/per/sai.h ****     struct Config
  47:../../../libDaisy/src/per/sai.h ****     {
  48:../../../libDaisy/src/per/sai.h ****         /** Specifies the internal peripheral to use (mapped to different hardware pins) */
  49:../../../libDaisy/src/per/sai.h ****         enum class Peripheral
  50:../../../libDaisy/src/per/sai.h ****         {
  51:../../../libDaisy/src/per/sai.h ****             SAI_1,
  52:../../../libDaisy/src/per/sai.h ****             SAI_2,
  53:../../../libDaisy/src/per/sai.h ****         };
  54:../../../libDaisy/src/per/sai.h **** 
  55:../../../libDaisy/src/per/sai.h ****         /** Rate at which samples will be streaming to/from the device. */
  56:../../../libDaisy/src/per/sai.h ****         enum class SampleRate
  57:../../../libDaisy/src/per/sai.h ****         {
  58:../../../libDaisy/src/per/sai.h ****             SAI_8KHZ,
  59:../../../libDaisy/src/per/sai.h ****             SAI_16KHZ,
  60:../../../libDaisy/src/per/sai.h ****             SAI_32KHZ,
  61:../../../libDaisy/src/per/sai.h ****             SAI_48KHZ,
  62:../../../libDaisy/src/per/sai.h ****             SAI_96KHZ,
  63:../../../libDaisy/src/per/sai.h ****         };
  64:../../../libDaisy/src/per/sai.h **** 
  65:../../../libDaisy/src/per/sai.h ****         /** Bit Depth that the hardware expects to be transferred to/from the device. */
  66:../../../libDaisy/src/per/sai.h ****         enum class BitDepth
  67:../../../libDaisy/src/per/sai.h ****         {
  68:../../../libDaisy/src/per/sai.h ****             SAI_16BIT,
  69:../../../libDaisy/src/per/sai.h ****             SAI_24BIT,
  70:../../../libDaisy/src/per/sai.h ****             SAI_32BIT,
ARM GAS  C:\Users\Miguel\AppData\Local\Temp\ccmTzdaG.s 			page 32


  71:../../../libDaisy/src/per/sai.h ****         };
  72:../../../libDaisy/src/per/sai.h **** 
  73:../../../libDaisy/src/per/sai.h ****         /** Specifies whether a particular block is the master or the slave 
  74:../../../libDaisy/src/per/sai.h ****          ** If both are set to slave, no MCLK signal will be used, and it is
  75:../../../libDaisy/src/per/sai.h ****          ** expected that the codec will have its own xtal.
  76:../../../libDaisy/src/per/sai.h ****          */
  77:../../../libDaisy/src/per/sai.h ****         enum class Sync
  78:../../../libDaisy/src/per/sai.h ****         {
  79:../../../libDaisy/src/per/sai.h ****             MASTER,
  80:../../../libDaisy/src/per/sai.h ****             SLAVE,
  81:../../../libDaisy/src/per/sai.h ****         };
  82:../../../libDaisy/src/per/sai.h **** 
  83:../../../libDaisy/src/per/sai.h ****         /** Specifies the direction for each peripheral block. */
  84:../../../libDaisy/src/per/sai.h ****         enum class Direction
  85:../../../libDaisy/src/per/sai.h ****         {
  86:../../../libDaisy/src/per/sai.h ****             TRANSMIT,
  87:../../../libDaisy/src/per/sai.h ****             RECEIVE,
  88:../../../libDaisy/src/per/sai.h ****         };
  89:../../../libDaisy/src/per/sai.h **** 
  90:../../../libDaisy/src/per/sai.h ****         Peripheral periph;
  91:../../../libDaisy/src/per/sai.h ****         struct
  92:../../../libDaisy/src/per/sai.h ****         {
  93:../../../libDaisy/src/per/sai.h ****             dsy_gpio_pin mclk, fs, sck, sa, sb;
  94:../../../libDaisy/src/per/sai.h ****         } pin_config;
  95:../../../libDaisy/src/per/sai.h ****         SampleRate sr;
  96:../../../libDaisy/src/per/sai.h ****         BitDepth   bit_depth;
  97:../../../libDaisy/src/per/sai.h ****         Sync       a_sync, b_sync;
  98:../../../libDaisy/src/per/sai.h ****         Direction  a_dir, b_dir;
  99:../../../libDaisy/src/per/sai.h ****     };
 100:../../../libDaisy/src/per/sai.h **** 
 101:../../../libDaisy/src/per/sai.h ****     /** Return values for SAI functions */
 102:../../../libDaisy/src/per/sai.h ****     enum class Result
 103:../../../libDaisy/src/per/sai.h ****     {
 104:../../../libDaisy/src/per/sai.h ****         OK,
 105:../../../libDaisy/src/per/sai.h ****         ERR,
 106:../../../libDaisy/src/per/sai.h ****     };
 107:../../../libDaisy/src/per/sai.h **** 
 108:../../../libDaisy/src/per/sai.h ****     SaiHandle() : pimpl_(nullptr) {}
 743              		.loc 12 108 5 is_stmt 1 view .LVU187
 744              	.LBB242:
 745              	.LBB243:
 746              		.loc 12 108 33 is_stmt 0 view .LVU188
 747 000e C363     		str	r3, [r0, #60]
 748              	.LVL35:
 749              		.loc 12 108 33 view .LVU189
 750              	.LBE243:
 751              	.LBE242:
 752              	.LBE241:
 753              	.LBE245:
 754              	.LBE247:
  16:adenv.cpp     **** static AdEnv      env;
 755              		.loc 9 16 19 view .LVU190
 756 0010 0B49     		ldr	r1, .L30+8
 757 0012 FFF7FEFF 		bl	__aeabi_atexit
 758              	.LVL36:
 759              	.LBB248:
 760              	.LBI248:
ARM GAS  C:\Users\Miguel\AppData\Local\Temp\ccmTzdaG.s 			page 33


  42:../../../DaisySP/Source/Control/adenv.h ****     ~AdEnv() {}
 761              		.loc 1 42 5 is_stmt 1 view .LVU191
  42:../../../DaisySP/Source/Control/adenv.h ****     ~AdEnv() {}
 762              		.loc 1 42 5 is_stmt 0 view .LVU192
 763              	.LBE248:
  17:adenv.cpp     **** static Oscillator osc;
 764              		.loc 9 17 19 view .LVU193
 765 0016 094A     		ldr	r2, .L30+4
 766 0018 0A49     		ldr	r1, .L30+12
 767 001a 0B48     		ldr	r0, .L30+16
 768 001c FFF7FEFF 		bl	__aeabi_atexit
 769              	.LVL37:
 770              	.LBB249:
 771              	.LBI249:
  23:../../../DaisySP/Source/Synthesis/oscillator.h ****     ~Oscillator() {}
 772              		.loc 2 23 5 is_stmt 1 view .LVU194
  23:../../../DaisySP/Source/Synthesis/oscillator.h ****     ~Oscillator() {}
 773              		.loc 2 23 5 is_stmt 0 view .LVU195
 774              	.LBE249:
  18:adenv.cpp     **** static Metro      tick;
 775              		.loc 9 18 19 view .LVU196
 776 0020 064A     		ldr	r2, .L30+4
 777 0022 0A49     		ldr	r1, .L30+20
 778 0024 0A48     		ldr	r0, .L30+24
 779 0026 FFF7FEFF 		bl	__aeabi_atexit
 780              	.LVL38:
 781              	.LBB250:
 782              	.LBI250:
  22:../../../DaisySP/Source/Utility/metro.h ****     ~Metro() {}
 783              		.loc 3 22 5 is_stmt 1 view .LVU197
  22:../../../DaisySP/Source/Utility/metro.h ****     ~Metro() {}
 784              		.loc 3 22 5 is_stmt 0 view .LVU198
 785              	.LBE250:
  19:adenv.cpp     **** 
 786              		.loc 9 19 19 view .LVU199
 787 002a 044A     		ldr	r2, .L30+4
 788 002c 0949     		ldr	r1, .L30+28
 789 002e 0A48     		ldr	r0, .L30+32
 790              	.LBE251:
 791              	.LBE253:
 792              		.loc 9 76 1 view .LVU200
 793 0030 BDE80840 		pop	{r3, lr}
 794              		.cfi_restore 14
 795              		.cfi_restore 3
 796              		.cfi_def_cfa_offset 0
 797              	.LBB254:
 798              	.LBB252:
  19:adenv.cpp     **** 
 799              		.loc 9 19 19 view .LVU201
 800 0034 FFF7FEBF 		b	__aeabi_atexit
 801              	.LVL39:
 802              	.L31:
 803              		.align	2
 804              	.L30:
 805 0038 00000000 		.word	.LANCHOR3
 806 003c 00000000 		.word	__dso_handle
 807 0040 00000000 		.word	_ZN5daisy9DaisySeedD1Ev
ARM GAS  C:\Users\Miguel\AppData\Local\Temp\ccmTzdaG.s 			page 34


 808 0044 00000000 		.word	_ZN7daisysp5AdEnvD1Ev
 809 0048 00000000 		.word	.LANCHOR1
 810 004c 00000000 		.word	_ZN7daisysp10OscillatorD1Ev
 811 0050 00000000 		.word	.LANCHOR2
 812 0054 00000000 		.word	_ZN7daisysp5MetroD1Ev
 813 0058 00000000 		.word	.LANCHOR0
 814              	.LBE252:
 815              	.LBE254:
 816              		.cfi_endproc
 817              	.LFE5245:
 819              		.section	.init_array,"aw",%init_array
 820              		.align	2
 821 0000 00000000 		.word	_GLOBAL__sub_I_main(target1)
 822              		.section	.bss._ZL2hw,"aw",%nobits
 823              		.align	2
 824              		.set	.LANCHOR3,. + 0
 827              	_ZL2hw:
 828 0000 00000000 		.space	64
 828      00000000 
 828      00000000 
 828      00000000 
 828      00000000 
 829              		.section	.bss._ZL3env,"aw",%nobits
 830              		.align	2
 831              		.set	.LANCHOR1,. + 0
 834              	_ZL3env:
 835 0000 00000000 		.space	56
 835      00000000 
 835      00000000 
 835      00000000 
 835      00000000 
 836              		.section	.bss._ZL3osc,"aw",%nobits
 837              		.align	2
 838              		.set	.LANCHOR2,. + 0
 841              	_ZL3osc:
 842 0000 00000000 		.space	44
 842      00000000 
 842      00000000 
 842      00000000 
 842      00000000 
 843              		.section	.bss._ZL4tick,"aw",%nobits
 844              		.align	2
 845              		.set	.LANCHOR0,. + 0
 848              	_ZL4tick:
 849 0000 00000000 		.space	16
 849      00000000 
 849      00000000 
 849      00000000 
 850              		.text
 851              	.Letext0:
 852              		.file 13 "c:\\program files\\daisytoolchain\\arm-none-eabi\\include\\machine\\_default_types.h"
 853              		.file 14 "c:\\program files\\daisytoolchain\\arm-none-eabi\\include\\sys\\_stdint.h"
 854              		.file 15 "c:\\program files\\daisytoolchain\\arm-none-eabi\\include\\stdint.h"
 855              		.file 16 "c:\\program files\\daisytoolchain\\lib\\gcc\\arm-none-eabi\\10.2.1\\include\\stddef.h"
 856              		.file 17 "c:\\program files\\daisytoolchain\\arm-none-eabi\\include\\c++\\10.2.1\\cmath"
 857              		.file 18 "c:\\program files\\daisytoolchain\\arm-none-eabi\\include\\c++\\10.2.1\\bits\\std_abs.h"
 858              		.file 19 "c:\\program files\\daisytoolchain\\arm-none-eabi\\include\\c++\\10.2.1\\cstdint"
ARM GAS  C:\Users\Miguel\AppData\Local\Temp\ccmTzdaG.s 			page 35


 859              		.file 20 "c:\\program files\\daisytoolchain\\arm-none-eabi\\include\\c++\\10.2.1\\cstdlib"
 860              		.file 21 "c:\\program files\\daisytoolchain\\arm-none-eabi\\include\\c++\\10.2.1\\type_traits"
 861              		.file 22 "c:\\program files\\daisytoolchain\\arm-none-eabi\\include\\c++\\10.2.1\\debug\\debug.h"
 862              		.file 23 "c:\\program files\\daisytoolchain\\arm-none-eabi\\include\\c++\\10.2.1\\cwchar"
 863              		.file 24 "c:\\program files\\daisytoolchain\\arm-none-eabi\\include\\c++\\10.2.1\\bits\\stl_pair.h
 864              		.file 25 "c:\\program files\\daisytoolchain\\arm-none-eabi\\include\\c++\\10.2.1\\bits\\exception_
 865              		.file 26 "c:\\program files\\daisytoolchain\\arm-none-eabi\\include\\c++\\10.2.1\\arm-none-eabi\\t
 866              		.file 27 "c:\\program files\\daisytoolchain\\arm-none-eabi\\include\\c++\\10.2.1\\clocale"
 867              		.file 28 "c:\\program files\\daisytoolchain\\arm-none-eabi\\include\\c++\\10.2.1\\cstdio"
 868              		.file 29 "c:\\program files\\daisytoolchain\\arm-none-eabi\\include\\c++\\10.2.1\\bits\\basic_stri
 869              		.file 30 "c:\\program files\\daisytoolchain\\arm-none-eabi\\include\\c++\\10.2.1\\bits\\charconv.h
 870              		.file 31 "c:\\program files\\daisytoolchain\\arm-none-eabi\\include\\c++\\10.2.1\\bits\\algorithmf
 871              		.file 32 "c:\\program files\\daisytoolchain\\arm-none-eabi\\include\\c++\\10.2.1\\cstring"
 872              		.file 33 "c:\\program files\\daisytoolchain\\arm-none-eabi\\include\\c++\\10.2.1\\cstdarg"
 873              		.file 34 "c:\\program files\\daisytoolchain\\arm-none-eabi\\include\\c++\\10.2.1\\bits\\predefined
 874              		.file 35 "c:\\program files\\daisytoolchain\\arm-none-eabi\\include\\sys\\_types.h"
 875              		.file 36 "c:\\program files\\daisytoolchain\\arm-none-eabi\\include\\sys\\reent.h"
 876              		.file 37 "c:\\program files\\daisytoolchain\\arm-none-eabi\\include\\sys\\lock.h"
 877              		.file 38 "c:\\program files\\daisytoolchain\\arm-none-eabi\\include\\math.h"
 878              		.file 39 "c:\\program files\\daisytoolchain\\arm-none-eabi\\include\\stdlib.h"
 879              		.file 40 "c:\\program files\\daisytoolchain\\arm-none-eabi\\include\\c++\\10.2.1\\math.h"
 880              		.file 41 "../../../DaisySP/Source/Utility/dsp.h"
 881              		.file 42 "c:\\program files\\daisytoolchain\\lib\\gcc\\arm-none-eabi\\10.2.1\\include\\stdarg.h"
 882              		.file 43 "c:\\program files\\daisytoolchain\\arm-none-eabi\\include\\wchar.h"
 883              		.file 44 "c:\\program files\\daisytoolchain\\arm-none-eabi\\include\\locale.h"
 884              		.file 45 "c:\\program files\\daisytoolchain\\arm-none-eabi\\include\\stdio.h"
 885              		.file 46 "c:\\program files\\daisytoolchain\\arm-none-eabi\\include\\c++\\10.2.1\\stdlib.h"
 886              		.file 47 "c:\\program files\\daisytoolchain\\arm-none-eabi\\include\\string.h"
 887              		.file 48 "../../../libDaisy/src/daisy_core.h"
 888              		.file 49 "../../../libDaisy/src/per/tim.h"
 889              		.file 50 "../../../libDaisy/src/util/wav_format.h"
 890              		.file 51 "../../../libDaisy/src/dev/max11300.h"
 891              		.file 52 "../../../libDaisy/src/per/gpio.h"
 892              		.file 53 "../../../libDaisy/src/dev/sdram.h"
 893              		.file 54 "../../../libDaisy/src/dev/sr_595.h"
 894              		.file 55 "<built-in>"
ARM GAS  C:\Users\Miguel\AppData\Local\Temp\ccmTzdaG.s 			page 36

