ARM GAS  C:\Users\Miguel\AppData\Local\Temp\ccDAyH9H.s 			page 1


   1              		.cpu cortex-m7
   2              		.eabi_attribute 28, 1
   3              		.eabi_attribute 20, 1
   4              		.eabi_attribute 21, 1
   5              		.eabi_attribute 23, 3
   6              		.eabi_attribute 24, 1
   7              		.eabi_attribute 25, 1
   8              		.eabi_attribute 26, 1
   9              		.eabi_attribute 30, 2
  10              		.eabi_attribute 34, 1
  11              		.eabi_attribute 18, 4
  12              		.file	"oscillator.cpp"
  13              		.text
  14              	.Ltext0:
  15              		.cfi_sections	.debug_frame
  16              		.section	.text._ZN5daisy7Switch3D2Ev,"axG",%progbits,_ZN5daisy7Switch3D5Ev,comdat
  17              		.align	1
  18              		.p2align 2,,3
  19              		.weak	_ZN5daisy7Switch3D2Ev
  20              		.arch armv7e-m
  21              		.syntax unified
  22              		.thumb
  23              		.thumb_func
  24              		.fpu fpv5-d16
  26              	_ZN5daisy7Switch3D2Ev:
  27              	.LVL0:
  28              	.LFB1663:
  29              		.file 1 "../../../libDaisy/src/hid/switch3.h"
   1:../../../libDaisy/src/hid/switch3.h **** #pragma once
   2:../../../libDaisy/src/hid/switch3.h **** #include "daisy_core.h"
   3:../../../libDaisy/src/hid/switch3.h **** #include "per/gpio.h"
   4:../../../libDaisy/src/hid/switch3.h **** 
   5:../../../libDaisy/src/hid/switch3.h **** namespace daisy
   6:../../../libDaisy/src/hid/switch3.h **** {
   7:../../../libDaisy/src/hid/switch3.h **** class Switch3
   8:../../../libDaisy/src/hid/switch3.h **** {
   9:../../../libDaisy/src/hid/switch3.h ****   public:
  10:../../../libDaisy/src/hid/switch3.h ****     enum
  11:../../../libDaisy/src/hid/switch3.h ****     {
  12:../../../libDaisy/src/hid/switch3.h ****         POS_CENTER = 0,
  13:../../../libDaisy/src/hid/switch3.h ****         POS_LEFT   = 1,
  14:../../../libDaisy/src/hid/switch3.h ****         POS_UP     = 1,
  15:../../../libDaisy/src/hid/switch3.h ****         POS_RIGHT  = 2,
  16:../../../libDaisy/src/hid/switch3.h ****         POS_DOWN   = 2,
  17:../../../libDaisy/src/hid/switch3.h ****     };
  18:../../../libDaisy/src/hid/switch3.h **** 
  19:../../../libDaisy/src/hid/switch3.h **** 
  20:../../../libDaisy/src/hid/switch3.h ****     Switch3() {}
  21:../../../libDaisy/src/hid/switch3.h ****     ~Switch3() {}
  30              		.loc 1 21 5 view -0
  31              		.cfi_startproc
  32              		@ args = 0, pretend = 0, frame = 0
  33              		@ frame_needed = 0, uses_anonymous_args = 0
  34              		@ link register save eliminated.
  35              		.loc 1 21 17 is_stmt 0 view .LVU1
  36 0000 7047     		bx	lr
  37              		.cfi_endproc
ARM GAS  C:\Users\Miguel\AppData\Local\Temp\ccDAyH9H.s 			page 2


  38              	.LFE1663:
  40              		.weak	_ZN5daisy7Switch3D1Ev
  41              		.thumb_set _ZN5daisy7Switch3D1Ev,_ZN5daisy7Switch3D2Ev
  42 0002 00BF     		.section	.text._ZN5daisy9DaisySeedD2Ev,"axG",%progbits,_ZN5daisy9DaisySeedD5Ev,comdat
  43              		.align	1
  44              		.p2align 2,,3
  45              		.weak	_ZN5daisy9DaisySeedD2Ev
  46              		.syntax unified
  47              		.thumb
  48              		.thumb_func
  49              		.fpu fpv5-d16
  51              	_ZN5daisy9DaisySeedD2Ev:
  52              	.LVL1:
  53              	.LFB2555:
  54              		.file 2 "../../../libDaisy/src/daisy_seed.h"
   1:../../../libDaisy/src/daisy_seed.h **** #pragma once
   2:../../../libDaisy/src/daisy_seed.h **** #ifndef DSY_SEED_H
   3:../../../libDaisy/src/daisy_seed.h **** #define DSY_SEED_H
   4:../../../libDaisy/src/daisy_seed.h **** 
   5:../../../libDaisy/src/daisy_seed.h **** #include "daisy.h"
   6:../../../libDaisy/src/daisy_seed.h **** 
   7:../../../libDaisy/src/daisy_seed.h **** //Uncomment this out if you're still using the rev2 hardware
   8:../../../libDaisy/src/daisy_seed.h **** //#define SEED_REV2
   9:../../../libDaisy/src/daisy_seed.h **** 
  10:../../../libDaisy/src/daisy_seed.h **** namespace daisy
  11:../../../libDaisy/src/daisy_seed.h **** {
  12:../../../libDaisy/src/daisy_seed.h **** /**
  13:../../../libDaisy/src/daisy_seed.h ****    @brief This is the higher-level interface for the Daisy board. \n 
  14:../../../libDaisy/src/daisy_seed.h ****     All basic peripheral configuration/initialization is setup here. \n
  15:../../../libDaisy/src/daisy_seed.h **** 
  16:../../../libDaisy/src/daisy_seed.h ****    @ingroup boards
  17:../../../libDaisy/src/daisy_seed.h **** */
  18:../../../libDaisy/src/daisy_seed.h **** class DaisySeed
  19:../../../libDaisy/src/daisy_seed.h **** {
  20:../../../libDaisy/src/daisy_seed.h ****   public:
  21:../../../libDaisy/src/daisy_seed.h ****     DaisySeed() {}
  22:../../../libDaisy/src/daisy_seed.h ****     ~DaisySeed() {}
  55              		.loc 2 22 5 is_stmt 1 view -0
  56              		.cfi_startproc
  57              		@ args = 0, pretend = 0, frame = 0
  58              		@ frame_needed = 0, uses_anonymous_args = 0
  59              		@ link register save eliminated.
  60              	.LBB195:
  61              	.LBI195:
  62              		.file 3 "../../../libDaisy/src/sys/system.h"
   1:../../../libDaisy/src/sys/system.h **** #ifndef DSY_SYSTEM_H
   2:../../../libDaisy/src/sys/system.h **** #define DSY_SYSTEM_H
   3:../../../libDaisy/src/sys/system.h **** 
   4:../../../libDaisy/src/sys/system.h **** #ifndef UNIT_TEST // for unit tests, a dummy implementation is provided below
   5:../../../libDaisy/src/sys/system.h **** 
   6:../../../libDaisy/src/sys/system.h **** #include <cstdint>
   7:../../../libDaisy/src/sys/system.h **** #include "per/tim.h"
   8:../../../libDaisy/src/sys/system.h **** 
   9:../../../libDaisy/src/sys/system.h **** namespace daisy
  10:../../../libDaisy/src/sys/system.h **** {
  11:../../../libDaisy/src/sys/system.h **** /** A handle for interacting with the Core System.
  12:../../../libDaisy/src/sys/system.h ****  ** This includes the Clock tree, MPU, global DMA initialization,
ARM GAS  C:\Users\Miguel\AppData\Local\Temp\ccDAyH9H.s 			page 3


  13:../../../libDaisy/src/sys/system.h ****  ** cache handling, and any other necessary global initiailzation
  14:../../../libDaisy/src/sys/system.h ****  **
  15:../../../libDaisy/src/sys/system.h ****  ** @author shensley
  16:../../../libDaisy/src/sys/system.h ****  ** @ingroup system
  17:../../../libDaisy/src/sys/system.h ****  */
  18:../../../libDaisy/src/sys/system.h **** class System
  19:../../../libDaisy/src/sys/system.h **** {
  20:../../../libDaisy/src/sys/system.h ****   public:
  21:../../../libDaisy/src/sys/system.h ****     /** Contains settings for initializing the System */
  22:../../../libDaisy/src/sys/system.h ****     struct Config
  23:../../../libDaisy/src/sys/system.h ****     {
  24:../../../libDaisy/src/sys/system.h ****         /** Specifies the system clock frequency that feeds APB/AHB clocks, etc. */
  25:../../../libDaisy/src/sys/system.h ****         enum class SysClkFreq
  26:../../../libDaisy/src/sys/system.h ****         {
  27:../../../libDaisy/src/sys/system.h ****             FREQ_400MHZ,
  28:../../../libDaisy/src/sys/system.h ****             FREQ_480MHZ,
  29:../../../libDaisy/src/sys/system.h ****         };
  30:../../../libDaisy/src/sys/system.h **** 
  31:../../../libDaisy/src/sys/system.h ****         /** Method to call on the struct to set to defaults
  32:../../../libDaisy/src/sys/system.h ****          ** CPU Freq set to 400MHz
  33:../../../libDaisy/src/sys/system.h ****          ** Cache Enabled
  34:../../../libDaisy/src/sys/system.h ****          ** */
  35:../../../libDaisy/src/sys/system.h ****         void Defaults()
  36:../../../libDaisy/src/sys/system.h ****         {
  37:../../../libDaisy/src/sys/system.h ****             cpu_freq    = SysClkFreq::FREQ_400MHZ;
  38:../../../libDaisy/src/sys/system.h ****             use_dcache  = true;
  39:../../../libDaisy/src/sys/system.h ****             use_icache  = true;
  40:../../../libDaisy/src/sys/system.h ****             skip_clocks = false;
  41:../../../libDaisy/src/sys/system.h ****         }
  42:../../../libDaisy/src/sys/system.h **** 
  43:../../../libDaisy/src/sys/system.h ****         /** Method to call on the struct to set to boost mode:
  44:../../../libDaisy/src/sys/system.h ****          ** CPU Freq set to 480MHz
  45:../../../libDaisy/src/sys/system.h ****          ** Cache Enabled
  46:../../../libDaisy/src/sys/system.h ****          ** */
  47:../../../libDaisy/src/sys/system.h ****         void Boost()
  48:../../../libDaisy/src/sys/system.h ****         {
  49:../../../libDaisy/src/sys/system.h ****             cpu_freq    = SysClkFreq::FREQ_480MHZ;
  50:../../../libDaisy/src/sys/system.h ****             use_dcache  = true;
  51:../../../libDaisy/src/sys/system.h ****             use_icache  = true;
  52:../../../libDaisy/src/sys/system.h ****             skip_clocks = false;
  53:../../../libDaisy/src/sys/system.h ****         }
  54:../../../libDaisy/src/sys/system.h **** 
  55:../../../libDaisy/src/sys/system.h ****         SysClkFreq cpu_freq;
  56:../../../libDaisy/src/sys/system.h ****         bool       use_dcache;
  57:../../../libDaisy/src/sys/system.h ****         bool       use_icache;
  58:../../../libDaisy/src/sys/system.h ****         bool       skip_clocks;
  59:../../../libDaisy/src/sys/system.h ****     };
  60:../../../libDaisy/src/sys/system.h **** 
  61:../../../libDaisy/src/sys/system.h ****     /** Describes the different regions of memory available to the Daisy */
  62:../../../libDaisy/src/sys/system.h ****     enum MemoryRegion
  63:../../../libDaisy/src/sys/system.h ****     {
  64:../../../libDaisy/src/sys/system.h ****         INTERNAL_FLASH = 0,
  65:../../../libDaisy/src/sys/system.h ****         ITCMRAM,
  66:../../../libDaisy/src/sys/system.h ****         DTCMRAM,
  67:../../../libDaisy/src/sys/system.h ****         SRAM_D1,
  68:../../../libDaisy/src/sys/system.h ****         SRAM_D2,
  69:../../../libDaisy/src/sys/system.h ****         SRAM_D3,
ARM GAS  C:\Users\Miguel\AppData\Local\Temp\ccDAyH9H.s 			page 4


  70:../../../libDaisy/src/sys/system.h ****         SDRAM,
  71:../../../libDaisy/src/sys/system.h ****         QSPI,
  72:../../../libDaisy/src/sys/system.h ****         INVALID_ADDRESS,
  73:../../../libDaisy/src/sys/system.h ****     };
  74:../../../libDaisy/src/sys/system.h **** 
  75:../../../libDaisy/src/sys/system.h ****     /** Bootloader struct for controlling bootloading parameters */
  76:../../../libDaisy/src/sys/system.h ****     struct BootInfo
  77:../../../libDaisy/src/sys/system.h ****     {
  78:../../../libDaisy/src/sys/system.h ****         enum class Type : uint32_t
  79:../../../libDaisy/src/sys/system.h ****         {
  80:../../../libDaisy/src/sys/system.h ****             INVALID      = 0x00000000,
  81:../../../libDaisy/src/sys/system.h ****             JUMP         = 0xDEADBEEF,
  82:../../../libDaisy/src/sys/system.h ****             SKIP_TIMEOUT = 0x5AFEB007,
  83:../../../libDaisy/src/sys/system.h ****             INF_TIMEOUT  = 0xB0074EFA,
  84:../../../libDaisy/src/sys/system.h ****         } status;
  85:../../../libDaisy/src/sys/system.h ****         uint32_t data;
  86:../../../libDaisy/src/sys/system.h ****         enum class Version : uint32_t
  87:../../../libDaisy/src/sys/system.h ****         {
  88:../../../libDaisy/src/sys/system.h ****             LT_v6_0 = 0, // Less than v6.0
  89:../../../libDaisy/src/sys/system.h ****             NONE,        // No bootloader present
  90:../../../libDaisy/src/sys/system.h ****             v6_0,        // v6.0
  91:../../../libDaisy/src/sys/system.h ****             v6_1,        // v6.1 or greater
  92:../../../libDaisy/src/sys/system.h ****             LAST
  93:../../../libDaisy/src/sys/system.h ****         } version;
  94:../../../libDaisy/src/sys/system.h ****     };
  95:../../../libDaisy/src/sys/system.h **** 
  96:../../../libDaisy/src/sys/system.h ****     System() {}
  97:../../../libDaisy/src/sys/system.h ****     ~System() {}
  63              		.loc 3 97 5 view .LVU3
  64              		.loc 3 97 5 is_stmt 0 view .LVU4
  65              	.LBE195:
  66              	.LBB196:
  67              	.LBI196:
  68              		.file 4 "../../../libDaisy/src/hid/usb.h"
   1:../../../libDaisy/src/hid/usb.h **** #pragma once
   2:../../../libDaisy/src/hid/usb.h **** #ifndef DSY_HID_USB_H
   3:../../../libDaisy/src/hid/usb.h **** #define DSY_HID_USB_H
   4:../../../libDaisy/src/hid/usb.h **** #include <stdint.h>
   5:../../../libDaisy/src/hid/usb.h **** #include <stdlib.h>
   6:../../../libDaisy/src/hid/usb.h **** 
   7:../../../libDaisy/src/hid/usb.h **** namespace daisy
   8:../../../libDaisy/src/hid/usb.h **** /** @addtogroup human_interface
   9:../../../libDaisy/src/hid/usb.h ****     @{
  10:../../../libDaisy/src/hid/usb.h **** */
  11:../../../libDaisy/src/hid/usb.h **** 
  12:../../../libDaisy/src/hid/usb.h **** {
  13:../../../libDaisy/src/hid/usb.h **** /** 
  14:../../../libDaisy/src/hid/usb.h ****     @brief Interface for initializing and using the USB Peripherals on the daisy
  15:../../../libDaisy/src/hid/usb.h ****     @author Stephen Hensley
  16:../../../libDaisy/src/hid/usb.h ****     @date December 2019
  17:../../../libDaisy/src/hid/usb.h **** */
  18:../../../libDaisy/src/hid/usb.h **** class UsbHandle
  19:../../../libDaisy/src/hid/usb.h **** {
  20:../../../libDaisy/src/hid/usb.h ****   public:
  21:../../../libDaisy/src/hid/usb.h ****     /** Return values for USBHandle Functions */
  22:../../../libDaisy/src/hid/usb.h ****     enum class Result
  23:../../../libDaisy/src/hid/usb.h ****     {
ARM GAS  C:\Users\Miguel\AppData\Local\Temp\ccDAyH9H.s 			page 5


  24:../../../libDaisy/src/hid/usb.h ****         OK,
  25:../../../libDaisy/src/hid/usb.h ****         ERR,
  26:../../../libDaisy/src/hid/usb.h ****     };
  27:../../../libDaisy/src/hid/usb.h **** 
  28:../../../libDaisy/src/hid/usb.h ****     /** Specified which of the two USB Peripherals to initialize. */
  29:../../../libDaisy/src/hid/usb.h ****     enum UsbPeriph
  30:../../../libDaisy/src/hid/usb.h ****     {
  31:../../../libDaisy/src/hid/usb.h ****         FS_INTERNAL, /**< Internal pin */
  32:../../../libDaisy/src/hid/usb.h ****         FS_EXTERNAL, /**< FS External D+ pin is Pin 38 (GPIO32). FS External D- pin is Pin 37 (GPIO
  33:../../../libDaisy/src/hid/usb.h ****         FS_BOTH,     /**< Both */
  34:../../../libDaisy/src/hid/usb.h ****     };
  35:../../../libDaisy/src/hid/usb.h **** 
  36:../../../libDaisy/src/hid/usb.h **** 
  37:../../../libDaisy/src/hid/usb.h ****     /** Function called upon reception of a buffer */
  38:../../../libDaisy/src/hid/usb.h ****     typedef void (*ReceiveCallback)(uint8_t* buff, uint32_t* len);
  39:../../../libDaisy/src/hid/usb.h **** 
  40:../../../libDaisy/src/hid/usb.h ****     UsbHandle() {}
  41:../../../libDaisy/src/hid/usb.h **** 
  42:../../../libDaisy/src/hid/usb.h ****     ~UsbHandle() {}
  69              		.loc 4 42 5 is_stmt 1 view .LVU5
  70              		.loc 4 42 5 is_stmt 0 view .LVU6
  71              	.LBE196:
  72              	.LBB197:
  73              	.LBI197:
  74              		.file 5 "../../../libDaisy/src/per/adc.h"
   1:../../../libDaisy/src/per/adc.h **** #pragma once
   2:../../../libDaisy/src/per/adc.h **** #ifndef DSY_ADC_H
   3:../../../libDaisy/src/per/adc.h **** #define DSY_ADC_H /**< Macro */
   4:../../../libDaisy/src/per/adc.h **** #include <stdint.h>
   5:../../../libDaisy/src/per/adc.h **** #include <stdlib.h>
   6:../../../libDaisy/src/per/adc.h **** #include "daisy_core.h"
   7:../../../libDaisy/src/per/adc.h **** #include "per/gpio.h"
   8:../../../libDaisy/src/per/adc.h **** 
   9:../../../libDaisy/src/per/adc.h **** #define DSY_ADC_MAX_CHANNELS 16 /**< Maximum number of ADC channels */
  10:../../../libDaisy/src/per/adc.h **** 
  11:../../../libDaisy/src/per/adc.h **** namespace daisy
  12:../../../libDaisy/src/per/adc.h **** {
  13:../../../libDaisy/src/per/adc.h **** /** @addtogroup per_analog
  14:../../../libDaisy/src/per/adc.h ****     @{
  15:../../../libDaisy/src/per/adc.h **** */
  16:../../../libDaisy/src/per/adc.h **** 
  17:../../../libDaisy/src/per/adc.h **** /* While there may not be many configuration options here,
  18:../../../libDaisy/src/per/adc.h **** using a struct like this allows us to add more configuration
  19:../../../libDaisy/src/per/adc.h **** later without breaking existing functionality.
  20:../../../libDaisy/src/per/adc.h **** */
  21:../../../libDaisy/src/per/adc.h **** 
  22:../../../libDaisy/src/per/adc.h **** /** @brief   Configuration Structure for an ADC Channel 
  23:../../../libDaisy/src/per/adc.h ****  *  @details This can be used to configure a a single input, 
  24:../../../libDaisy/src/per/adc.h ****  *           or a multiplexed input, allowing up to 8 inputs on 
  25:../../../libDaisy/src/per/adc.h ****  *           one channel.
  26:../../../libDaisy/src/per/adc.h ****  *  @note    Sharing data lines to multiple muxes _is_ possible, but
  27:../../../libDaisy/src/per/adc.h ****  *           each channel sharing data lines must be set to the maximum
  28:../../../libDaisy/src/per/adc.h ****  *           number of channels, even if some multiplexers have fewer
  29:../../../libDaisy/src/per/adc.h ****  *           inputs connected.
  30:../../../libDaisy/src/per/adc.h **** */
  31:../../../libDaisy/src/per/adc.h **** struct AdcChannelConfig
  32:../../../libDaisy/src/per/adc.h **** {
ARM GAS  C:\Users\Miguel\AppData\Local\Temp\ccDAyH9H.s 			page 6


  33:../../../libDaisy/src/per/adc.h ****     /** Which pin to use for multiplexing */
  34:../../../libDaisy/src/per/adc.h ****     enum MuxPin
  35:../../../libDaisy/src/per/adc.h ****     {
  36:../../../libDaisy/src/per/adc.h ****         MUX_SEL_0,    /**< & */
  37:../../../libDaisy/src/per/adc.h ****         MUX_SEL_1,    /**< & */
  38:../../../libDaisy/src/per/adc.h ****         MUX_SEL_2,    /**< & */
  39:../../../libDaisy/src/per/adc.h ****         MUX_SEL_LAST, /**< & */
  40:../../../libDaisy/src/per/adc.h ****     };
  41:../../../libDaisy/src/per/adc.h **** 
  42:../../../libDaisy/src/per/adc.h ****     /** \brief per channel conversion speed added to fixed time based on bitdepth, etc. */
  43:../../../libDaisy/src/per/adc.h ****     enum ConversionSpeed
  44:../../../libDaisy/src/per/adc.h ****     {
  45:../../../libDaisy/src/per/adc.h ****         SPEED_1CYCLES_5,
  46:../../../libDaisy/src/per/adc.h ****         SPEED_2CYCLES_5,
  47:../../../libDaisy/src/per/adc.h ****         SPEED_8CYCLES_5,
  48:../../../libDaisy/src/per/adc.h ****         SPEED_16CYCLES_5,
  49:../../../libDaisy/src/per/adc.h ****         SPEED_32CYCLES_5,
  50:../../../libDaisy/src/per/adc.h ****         SPEED_64CYCLES_5,
  51:../../../libDaisy/src/per/adc.h ****         SPEED_387CYCLES_5,
  52:../../../libDaisy/src/per/adc.h ****         SPEED_810CYCLES_5,
  53:../../../libDaisy/src/per/adc.h ****     };
  54:../../../libDaisy/src/per/adc.h **** 
  55:../../../libDaisy/src/per/adc.h ****     /** Initializes a single ADC pin as an ADC. 
  56:../../../libDaisy/src/per/adc.h ****     \param pin Pin to init.
  57:../../../libDaisy/src/per/adc.h ****     \param speed conversion speed for this pin defaults to 8.5 cycles
  58:../../../libDaisy/src/per/adc.h ****      */
  59:../../../libDaisy/src/per/adc.h ****     void InitSingle(dsy_gpio_pin pin, ConversionSpeed speed = SPEED_8CYCLES_5);
  60:../../../libDaisy/src/per/adc.h **** 
  61:../../../libDaisy/src/per/adc.h ****     /** 
  62:../../../libDaisy/src/per/adc.h ****     Initializes a single ADC pin as a Multiplexed ADC.
  63:../../../libDaisy/src/per/adc.h ****     Requires a CD405X Multiplexer connected to the pin.
  64:../../../libDaisy/src/per/adc.h ****     You only need to supply the mux pins that are required,
  65:../../../libDaisy/src/per/adc.h ****     e.g. a 4052 mux would only require mux_0 and mux_1.
  66:../../../libDaisy/src/per/adc.h ****     Internal Callbacks handle the pin addressing.
  67:../../../libDaisy/src/per/adc.h ****     \param adc_pin &
  68:../../../libDaisy/src/per/adc.h ****     \param mux_channels must be 1-8
  69:../../../libDaisy/src/per/adc.h ****     \param mux_0 First mux pin
  70:../../../libDaisy/src/per/adc.h ****     \param mux_1 Second mux pin
  71:../../../libDaisy/src/per/adc.h ****     \param mux_2 Third mux pin
  72:../../../libDaisy/src/per/adc.h ****     \param speed conversion speed for this pin defaults to 8.5 cycles
  73:../../../libDaisy/src/per/adc.h ****     */
  74:../../../libDaisy/src/per/adc.h ****     void InitMux(dsy_gpio_pin    adc_pin,
  75:../../../libDaisy/src/per/adc.h ****                  size_t          mux_channels,
  76:../../../libDaisy/src/per/adc.h ****                  dsy_gpio_pin    mux_0,
  77:../../../libDaisy/src/per/adc.h ****                  dsy_gpio_pin    mux_1 = {DSY_GPIOX, 0},
  78:../../../libDaisy/src/per/adc.h ****                  dsy_gpio_pin    mux_2 = {DSY_GPIOX, 0},
  79:../../../libDaisy/src/per/adc.h ****                  ConversionSpeed speed = SPEED_8CYCLES_5);
  80:../../../libDaisy/src/per/adc.h **** 
  81:../../../libDaisy/src/per/adc.h ****     dsy_gpio        pin_;                   /**< & */
  82:../../../libDaisy/src/per/adc.h ****     dsy_gpio        mux_pin_[MUX_SEL_LAST]; /**< & */
  83:../../../libDaisy/src/per/adc.h ****     uint8_t         mux_channels_;          /**< & */
  84:../../../libDaisy/src/per/adc.h ****     ConversionSpeed speed_;
  85:../../../libDaisy/src/per/adc.h **** };
  86:../../../libDaisy/src/per/adc.h **** 
  87:../../../libDaisy/src/per/adc.h **** /**
  88:../../../libDaisy/src/per/adc.h ****    @brief Handler for analog to digital conversion
  89:../../../libDaisy/src/per/adc.h **** */
ARM GAS  C:\Users\Miguel\AppData\Local\Temp\ccDAyH9H.s 			page 7


  90:../../../libDaisy/src/per/adc.h **** class AdcHandle
  91:../../../libDaisy/src/per/adc.h **** {
  92:../../../libDaisy/src/per/adc.h ****   public:
  93:../../../libDaisy/src/per/adc.h ****     /** Supported oversampling amounts */
  94:../../../libDaisy/src/per/adc.h ****     enum OverSampling
  95:../../../libDaisy/src/per/adc.h ****     {
  96:../../../libDaisy/src/per/adc.h ****         OVS_NONE, /**< & */
  97:../../../libDaisy/src/per/adc.h ****         OVS_4,    /**< & */
  98:../../../libDaisy/src/per/adc.h ****         OVS_8,    /**< & */
  99:../../../libDaisy/src/per/adc.h ****         OVS_16,   /**< & */
 100:../../../libDaisy/src/per/adc.h ****         OVS_32,   /**< & */
 101:../../../libDaisy/src/per/adc.h ****         OVS_64,   /**< & */
 102:../../../libDaisy/src/per/adc.h ****         OVS_128,  /**< & */
 103:../../../libDaisy/src/per/adc.h ****         OVS_256,  /**< & */
 104:../../../libDaisy/src/per/adc.h ****         OVS_512,  /**< & */
 105:../../../libDaisy/src/per/adc.h ****         OVS_1024, /**< & */
 106:../../../libDaisy/src/per/adc.h ****         OVS_LAST, /**< & */
 107:../../../libDaisy/src/per/adc.h ****     };
 108:../../../libDaisy/src/per/adc.h **** 
 109:../../../libDaisy/src/per/adc.h ****     AdcHandle() {}
 110:../../../libDaisy/src/per/adc.h ****     ~AdcHandle() {}
  75              		.loc 5 110 5 is_stmt 1 view .LVU7
  76              		.loc 5 110 5 is_stmt 0 view .LVU8
  77              	.LBE197:
  78              	.LBB198:
  79              	.LBI198:
  80              		.file 6 "../../../libDaisy/src/hid/audio.h"
   1:../../../libDaisy/src/hid/audio.h **** #ifndef DSY_AUDIO_H
   2:../../../libDaisy/src/hid/audio.h **** #define DSY_AUDIO_H /**< & */
   3:../../../libDaisy/src/hid/audio.h **** 
   4:../../../libDaisy/src/hid/audio.h **** #include "per/sai.h"
   5:../../../libDaisy/src/hid/audio.h **** 
   6:../../../libDaisy/src/hid/audio.h **** namespace daisy
   7:../../../libDaisy/src/hid/audio.h **** {
   8:../../../libDaisy/src/hid/audio.h **** /** @brief Audio Engine Handle
   9:../../../libDaisy/src/hid/audio.h ****  *  @ingroup audio 
  10:../../../libDaisy/src/hid/audio.h ****  *  @details This class allows for higher level access to an audio engine.
  11:../../../libDaisy/src/hid/audio.h ****  *           If you're using a SOM like the DaisySeed or DaisyPatchSM (or any 
  12:../../../libDaisy/src/hid/audio.h ****  *            board that includes one of those objects) then the intialization
  13:../../../libDaisy/src/hid/audio.h ****  *            is already taken  care of.
  14:../../../libDaisy/src/hid/audio.h ****  *           If you're setting up your own custom hardware, or need to make changes
  15:../../../libDaisy/src/hid/audio.h ****  *           you will have to take the following steps:
  16:../../../libDaisy/src/hid/audio.h ****  *             1. Create and Initialize an SaiHandle or two depending on your requirements
  17:../../../libDaisy/src/hid/audio.h ****  *             2. Initialize the Audio Handle with the desired settings and the Initialized SaiHand
  18:../../../libDaisy/src/hid/audio.h ****  *             3. If the connected codec requires special configuration or initialization, do so
  19:../../../libDaisy/src/hid/audio.h ****  *             4. Write a callback method using either the AudioCallback or the InterleavingAudioCa
  20:../../../libDaisy/src/hid/audio.h ****  *             5. Start the Audio using one of the StartAudio function
  21:../../../libDaisy/src/hid/audio.h ****  */
  22:../../../libDaisy/src/hid/audio.h **** class AudioHandle
  23:../../../libDaisy/src/hid/audio.h **** {
  24:../../../libDaisy/src/hid/audio.h ****   public:
  25:../../../libDaisy/src/hid/audio.h ****     /** Manually configurable details about the Audio Engine */
  26:../../../libDaisy/src/hid/audio.h ****     /** TODO: Figure out how to get samplerate in here. */
  27:../../../libDaisy/src/hid/audio.h ****     struct Config
  28:../../../libDaisy/src/hid/audio.h ****     {
  29:../../../libDaisy/src/hid/audio.h ****         /** number of samples to process per callback */
  30:../../../libDaisy/src/hid/audio.h ****         size_t blocksize;
ARM GAS  C:\Users\Miguel\AppData\Local\Temp\ccDAyH9H.s 			page 8


  31:../../../libDaisy/src/hid/audio.h **** 
  32:../../../libDaisy/src/hid/audio.h ****         /**< Sample rate of audio */
  33:../../../libDaisy/src/hid/audio.h ****         SaiHandle::Config::SampleRate samplerate;
  34:../../../libDaisy/src/hid/audio.h **** 
  35:../../../libDaisy/src/hid/audio.h ****         /** factor for adjustment before and after callback for hardware that may have extra headro
  36:../../../libDaisy/src/hid/audio.h ****         float postgain;
  37:../../../libDaisy/src/hid/audio.h **** 
  38:../../../libDaisy/src/hid/audio.h ****         /** factor for additional one-sided compensation to audio path for hardware that may
  39:../../../libDaisy/src/hid/audio.h ****          *  have unequal input/output ranges
  40:../../../libDaisy/src/hid/audio.h ****          */
  41:../../../libDaisy/src/hid/audio.h ****         float output_compensation;
  42:../../../libDaisy/src/hid/audio.h **** 
  43:../../../libDaisy/src/hid/audio.h ****         /** Sets default values for config struct */
  44:../../../libDaisy/src/hid/audio.h ****         Config()
  45:../../../libDaisy/src/hid/audio.h ****         : blocksize(48),
  46:../../../libDaisy/src/hid/audio.h ****           samplerate(SaiHandle::Config::SampleRate::SAI_48KHZ),
  47:../../../libDaisy/src/hid/audio.h ****           postgain(1.f),
  48:../../../libDaisy/src/hid/audio.h ****           output_compensation(1.f)
  49:../../../libDaisy/src/hid/audio.h ****         {
  50:../../../libDaisy/src/hid/audio.h ****         }
  51:../../../libDaisy/src/hid/audio.h ****     };
  52:../../../libDaisy/src/hid/audio.h **** 
  53:../../../libDaisy/src/hid/audio.h ****     enum class Result
  54:../../../libDaisy/src/hid/audio.h ****     {
  55:../../../libDaisy/src/hid/audio.h ****         OK,
  56:../../../libDaisy/src/hid/audio.h ****         ERR,
  57:../../../libDaisy/src/hid/audio.h ****     };
  58:../../../libDaisy/src/hid/audio.h **** 
  59:../../../libDaisy/src/hid/audio.h ****     /** Non-Interleaving input buffer
  60:../../../libDaisy/src/hid/audio.h ****      * Buffer arranged by float[chn][sample] 
  61:../../../libDaisy/src/hid/audio.h ****      * const so that the user can't modify the input
  62:../../../libDaisy/src/hid/audio.h ****      */
  63:../../../libDaisy/src/hid/audio.h ****     typedef const float* const* InputBuffer;
  64:../../../libDaisy/src/hid/audio.h **** 
  65:../../../libDaisy/src/hid/audio.h ****     /** Non-Interleaving output buffer
  66:../../../libDaisy/src/hid/audio.h ****      * Arranged by float[chn][sample] 
  67:../../../libDaisy/src/hid/audio.h ****      */
  68:../../../libDaisy/src/hid/audio.h ****     typedef float** OutputBuffer;
  69:../../../libDaisy/src/hid/audio.h **** 
  70:../../../libDaisy/src/hid/audio.h ****     /** Type for a Non-Interleaving audio callback 
  71:../../../libDaisy/src/hid/audio.h ****      * Non-Interleaving audio callbacks in daisy will be of this type
  72:../../../libDaisy/src/hid/audio.h ****      */
  73:../../../libDaisy/src/hid/audio.h ****     typedef void (*AudioCallback)(InputBuffer  in,
  74:../../../libDaisy/src/hid/audio.h ****                                   OutputBuffer out,
  75:../../../libDaisy/src/hid/audio.h ****                                   size_t       size);
  76:../../../libDaisy/src/hid/audio.h **** 
  77:../../../libDaisy/src/hid/audio.h ****     /** Interleaving Input buffer
  78:../../../libDaisy/src/hid/audio.h ****      ** audio is prepared as { L0, R0, L1, R1, . . . LN, RN }]
  79:../../../libDaisy/src/hid/audio.h ****      ** this is const, as the user shouldn't modify it
  80:../../../libDaisy/src/hid/audio.h ****     */
  81:../../../libDaisy/src/hid/audio.h ****     typedef const float* InterleavingInputBuffer;
  82:../../../libDaisy/src/hid/audio.h **** 
  83:../../../libDaisy/src/hid/audio.h ****     /** Interleaving Output buffer 
  84:../../../libDaisy/src/hid/audio.h ****      ** audio is prepared as { L0, R0, L1, R1, . . . LN, RN }
  85:../../../libDaisy/src/hid/audio.h ****     */
  86:../../../libDaisy/src/hid/audio.h ****     typedef float* InterleavingOutputBuffer;
  87:../../../libDaisy/src/hid/audio.h **** 
ARM GAS  C:\Users\Miguel\AppData\Local\Temp\ccDAyH9H.s 			page 9


  88:../../../libDaisy/src/hid/audio.h ****     /** Interleaving Audio Callback 
  89:../../../libDaisy/src/hid/audio.h ****      * Interleaving audio callbacks in daisy must be of this type
  90:../../../libDaisy/src/hid/audio.h ****      */
  91:../../../libDaisy/src/hid/audio.h ****     typedef void (*InterleavingAudioCallback)(InterleavingInputBuffer  in,
  92:../../../libDaisy/src/hid/audio.h ****                                               InterleavingOutputBuffer out,
  93:../../../libDaisy/src/hid/audio.h ****                                               size_t                   size);
  94:../../../libDaisy/src/hid/audio.h **** 
  95:../../../libDaisy/src/hid/audio.h ****     AudioHandle() : pimpl_(nullptr) {}
  96:../../../libDaisy/src/hid/audio.h ****     ~AudioHandle() {}
  81              		.loc 6 96 5 is_stmt 1 view .LVU9
  82              		.loc 6 96 5 is_stmt 0 view .LVU10
  83              	.LBE198:
  84              		.loc 2 22 19 view .LVU11
  85 0000 7047     		bx	lr
  86              		.cfi_endproc
  87              	.LFE2555:
  89              		.weak	_ZN5daisy9DaisySeedD1Ev
  90              		.thumb_set _ZN5daisy9DaisySeedD1Ev,_ZN5daisy9DaisySeedD2Ev
  91 0002 00BF     		.section	.text._ZN7daisysp4AdsrD2Ev,"axG",%progbits,_ZN7daisysp4AdsrD5Ev,comdat
  92              		.align	1
  93              		.p2align 2,,3
  94              		.weak	_ZN7daisysp4AdsrD2Ev
  95              		.syntax unified
  96              		.thumb
  97              		.thumb_func
  98              		.fpu fpv5-d16
 100              	_ZN7daisysp4AdsrD2Ev:
 101              	.LVL2:
 102              	.LFB2578:
 103              		.file 7 "../../../DaisySP/Source/Control/adsr.h"
   1:../../../DaisySP/Source/Control/adsr.h **** /*
   2:../../../DaisySP/Source/Control/adsr.h **** Copyright (c) 2020 Electrosmith, Corp, Paul Batchelor
   3:../../../DaisySP/Source/Control/adsr.h **** 
   4:../../../DaisySP/Source/Control/adsr.h **** Use of this source code is governed by an MIT-style
   5:../../../DaisySP/Source/Control/adsr.h **** license that can be found in the LICENSE file or at
   6:../../../DaisySP/Source/Control/adsr.h **** https://opensource.org/licenses/MIT.
   7:../../../DaisySP/Source/Control/adsr.h **** */
   8:../../../DaisySP/Source/Control/adsr.h **** 
   9:../../../DaisySP/Source/Control/adsr.h **** #pragma once
  10:../../../DaisySP/Source/Control/adsr.h **** #ifndef DSY_ADSR_H
  11:../../../DaisySP/Source/Control/adsr.h **** #define DSY_ADSR_H
  12:../../../DaisySP/Source/Control/adsr.h **** 
  13:../../../DaisySP/Source/Control/adsr.h **** #include <stdint.h>
  14:../../../DaisySP/Source/Control/adsr.h **** #ifdef __cplusplus
  15:../../../DaisySP/Source/Control/adsr.h **** 
  16:../../../DaisySP/Source/Control/adsr.h **** namespace daisysp
  17:../../../DaisySP/Source/Control/adsr.h **** {
  18:../../../DaisySP/Source/Control/adsr.h **** /** Distinct stages that the phase of the envelope can be located in.
  19:../../../DaisySP/Source/Control/adsr.h **** - IDLE   = located at phase location 0, and not currently running
  20:../../../DaisySP/Source/Control/adsr.h **** - ATTACK  = First segment of envelope where phase moves from 0 to 1
  21:../../../DaisySP/Source/Control/adsr.h **** - DECAY   = Second segment of envelope where phase moves from 1 to SUSTAIN value
  22:../../../DaisySP/Source/Control/adsr.h **** - RELEASE =     Fourth segment of envelop where phase moves from SUSTAIN to 0
  23:../../../DaisySP/Source/Control/adsr.h **** */
  24:../../../DaisySP/Source/Control/adsr.h **** enum
  25:../../../DaisySP/Source/Control/adsr.h **** {
  26:../../../DaisySP/Source/Control/adsr.h ****     ADSR_SEG_IDLE    = 0,
  27:../../../DaisySP/Source/Control/adsr.h ****     ADSR_SEG_ATTACK  = 1,
ARM GAS  C:\Users\Miguel\AppData\Local\Temp\ccDAyH9H.s 			page 10


  28:../../../DaisySP/Source/Control/adsr.h ****     ADSR_SEG_DECAY   = 2,
  29:../../../DaisySP/Source/Control/adsr.h ****     ADSR_SEG_RELEASE = 4
  30:../../../DaisySP/Source/Control/adsr.h **** };
  31:../../../DaisySP/Source/Control/adsr.h **** 
  32:../../../DaisySP/Source/Control/adsr.h **** 
  33:../../../DaisySP/Source/Control/adsr.h **** /** adsr envelope module
  34:../../../DaisySP/Source/Control/adsr.h **** 
  35:../../../DaisySP/Source/Control/adsr.h **** Original author(s) : Paul Batchelor
  36:../../../DaisySP/Source/Control/adsr.h **** 
  37:../../../DaisySP/Source/Control/adsr.h **** Ported from Soundpipe by Ben Sergentanis, May 2020
  38:../../../DaisySP/Source/Control/adsr.h ****  
  39:../../../DaisySP/Source/Control/adsr.h **** Remake by Steffan DIedrichsen, May 2021
  40:../../../DaisySP/Source/Control/adsr.h **** */
  41:../../../DaisySP/Source/Control/adsr.h **** class Adsr
  42:../../../DaisySP/Source/Control/adsr.h **** {
  43:../../../DaisySP/Source/Control/adsr.h ****   public:
  44:../../../DaisySP/Source/Control/adsr.h ****     Adsr() {}
  45:../../../DaisySP/Source/Control/adsr.h ****     ~Adsr() {}
 104              		.loc 7 45 5 is_stmt 1 view -0
 105              		.cfi_startproc
 106              		@ args = 0, pretend = 0, frame = 0
 107              		@ frame_needed = 0, uses_anonymous_args = 0
 108              		@ link register save eliminated.
 109              		.loc 7 45 14 is_stmt 0 view .LVU13
 110 0000 7047     		bx	lr
 111              		.cfi_endproc
 112              	.LFE2578:
 114              		.weak	_ZN7daisysp4AdsrD1Ev
 115              		.thumb_set _ZN7daisysp4AdsrD1Ev,_ZN7daisysp4AdsrD2Ev
 116              		.section	.text._ZN7daisysp10OscillatorD2Ev,"axG",%progbits,_ZN7daisysp10OscillatorD5Ev,comdat
 117              		.align	1
 118              		.p2align 2,,3
 119              		.weak	_ZN7daisysp10OscillatorD2Ev
 120              		.syntax unified
 121              		.thumb
 122              		.thumb_func
 123              		.fpu fpv5-d16
 125              	_ZN7daisysp10OscillatorD2Ev:
 126              	.LVL3:
 127              	.LFB4240:
 128              		.file 8 "../../../DaisySP/Source/Synthesis/oscillator.h"
   1:../../../DaisySP/Source/Synthesis/oscillator.h **** /*
   2:../../../DaisySP/Source/Synthesis/oscillator.h **** Copyright (c) 2020 Electrosmith, Corp
   3:../../../DaisySP/Source/Synthesis/oscillator.h **** 
   4:../../../DaisySP/Source/Synthesis/oscillator.h **** Use of this source code is governed by an MIT-style
   5:../../../DaisySP/Source/Synthesis/oscillator.h **** license that can be found in the LICENSE file or at
   6:../../../DaisySP/Source/Synthesis/oscillator.h **** https://opensource.org/licenses/MIT.
   7:../../../DaisySP/Source/Synthesis/oscillator.h **** */
   8:../../../DaisySP/Source/Synthesis/oscillator.h **** 
   9:../../../DaisySP/Source/Synthesis/oscillator.h **** #pragma once
  10:../../../DaisySP/Source/Synthesis/oscillator.h **** #ifndef DSY_OSCILLATOR_H
  11:../../../DaisySP/Source/Synthesis/oscillator.h **** #define DSY_OSCILLATOR_H
  12:../../../DaisySP/Source/Synthesis/oscillator.h **** #include <stdint.h>
  13:../../../DaisySP/Source/Synthesis/oscillator.h **** #include "Utility/dsp.h"
  14:../../../DaisySP/Source/Synthesis/oscillator.h **** #ifdef __cplusplus
  15:../../../DaisySP/Source/Synthesis/oscillator.h **** 
  16:../../../DaisySP/Source/Synthesis/oscillator.h **** namespace daisysp
ARM GAS  C:\Users\Miguel\AppData\Local\Temp\ccDAyH9H.s 			page 11


  17:../../../DaisySP/Source/Synthesis/oscillator.h **** {
  18:../../../DaisySP/Source/Synthesis/oscillator.h **** /** Synthesis of several waveforms, including polyBLEP bandlimited waveforms.
  19:../../../DaisySP/Source/Synthesis/oscillator.h **** */
  20:../../../DaisySP/Source/Synthesis/oscillator.h **** class Oscillator
  21:../../../DaisySP/Source/Synthesis/oscillator.h **** {
  22:../../../DaisySP/Source/Synthesis/oscillator.h ****   public:
  23:../../../DaisySP/Source/Synthesis/oscillator.h ****     Oscillator() {}
  24:../../../DaisySP/Source/Synthesis/oscillator.h ****     ~Oscillator() {}
 129              		.loc 8 24 5 is_stmt 1 view -0
 130              		.cfi_startproc
 131              		@ args = 0, pretend = 0, frame = 0
 132              		@ frame_needed = 0, uses_anonymous_args = 0
 133              		@ link register save eliminated.
 134              		.loc 8 24 20 is_stmt 0 view .LVU15
 135 0000 7047     		bx	lr
 136              		.cfi_endproc
 137              	.LFE4240:
 139              		.weak	_ZN7daisysp10OscillatorD1Ev
 140              		.thumb_set _ZN7daisysp10OscillatorD1Ev,_ZN7daisysp10OscillatorD2Ev
 141              		.section	.text._ZN7daisysp5MetroD2Ev,"axG",%progbits,_ZN7daisysp5MetroD5Ev,comdat
 142              		.align	1
 143              		.p2align 2,,3
 144              		.weak	_ZN7daisysp5MetroD2Ev
 145              		.syntax unified
 146              		.thumb
 147              		.thumb_func
 148              		.fpu fpv5-d16
 150              	_ZN7daisysp5MetroD2Ev:
 151              	.LVL4:
 152              	.LFB4660:
 153              		.file 9 "../../../DaisySP/Source/Utility/metro.h"
   1:../../../DaisySP/Source/Utility/metro.h **** /*
   2:../../../DaisySP/Source/Utility/metro.h **** Copyright (c) 2020 Electrosmith, Corp
   3:../../../DaisySP/Source/Utility/metro.h **** 
   4:../../../DaisySP/Source/Utility/metro.h **** Use of this source code is governed by an MIT-style
   5:../../../DaisySP/Source/Utility/metro.h **** license that can be found in the LICENSE file or at
   6:../../../DaisySP/Source/Utility/metro.h **** https://opensource.org/licenses/MIT.
   7:../../../DaisySP/Source/Utility/metro.h **** */
   8:../../../DaisySP/Source/Utility/metro.h **** 
   9:../../../DaisySP/Source/Utility/metro.h **** #pragma once
  10:../../../DaisySP/Source/Utility/metro.h **** #ifndef DSY_METRO_H
  11:../../../DaisySP/Source/Utility/metro.h **** #define DSY_METRO_H
  12:../../../DaisySP/Source/Utility/metro.h **** #include <stdint.h>
  13:../../../DaisySP/Source/Utility/metro.h **** #ifdef __cplusplus
  14:../../../DaisySP/Source/Utility/metro.h **** 
  15:../../../DaisySP/Source/Utility/metro.h **** namespace daisysp
  16:../../../DaisySP/Source/Utility/metro.h **** {
  17:../../../DaisySP/Source/Utility/metro.h **** /** Creates a clock signal at a specific frequency.
  18:../../../DaisySP/Source/Utility/metro.h **** */
  19:../../../DaisySP/Source/Utility/metro.h **** class Metro
  20:../../../DaisySP/Source/Utility/metro.h **** {
  21:../../../DaisySP/Source/Utility/metro.h ****   public:
  22:../../../DaisySP/Source/Utility/metro.h ****     Metro() {}
  23:../../../DaisySP/Source/Utility/metro.h ****     ~Metro() {}
 154              		.loc 9 23 5 is_stmt 1 view -0
 155              		.cfi_startproc
 156              		@ args = 0, pretend = 0, frame = 0
ARM GAS  C:\Users\Miguel\AppData\Local\Temp\ccDAyH9H.s 			page 12


 157              		@ frame_needed = 0, uses_anonymous_args = 0
 158              		@ link register save eliminated.
 159              		.loc 9 23 15 is_stmt 0 view .LVU17
 160 0000 7047     		bx	lr
 161              		.cfi_endproc
 162              	.LFE4660:
 164              		.weak	_ZN7daisysp5MetroD1Ev
 165              		.thumb_set _ZN7daisysp5MetroD1Ev,_ZN7daisysp5MetroD2Ev
 166              		.section	.text._ZN7daisysp8ReverbScD2Ev,"axG",%progbits,_ZN7daisysp8ReverbScD5Ev,comdat
 167              		.align	1
 168              		.p2align 2,,3
 169              		.weak	_ZN7daisysp8ReverbScD2Ev
 170              		.syntax unified
 171              		.thumb
 172              		.thumb_func
 173              		.fpu fpv5-d16
 175              	_ZN7daisysp8ReverbScD2Ev:
 176              	.LVL5:
 177              	.LFB4738:
 178              		.file 10 "../../../DaisySP/DaisySP-LGPL/Source/Effects/reverbsc.h"
   1:../../../DaisySP/DaisySP-LGPL/Source/Effects/reverbsc.h **** /*
   2:../../../DaisySP/DaisySP-LGPL/Source/Effects/reverbsc.h **** Copyright (c) 2023 Electrosmith, Corp, Sean Costello, Istvan Varga, Paul Batchelor
   3:../../../DaisySP/DaisySP-LGPL/Source/Effects/reverbsc.h **** 
   4:../../../DaisySP/DaisySP-LGPL/Source/Effects/reverbsc.h **** Use of this source code is governed by the LGPL V2.1
   5:../../../DaisySP/DaisySP-LGPL/Source/Effects/reverbsc.h **** license that can be found in the LICENSE file or at
   6:../../../DaisySP/DaisySP-LGPL/Source/Effects/reverbsc.h **** https://opensource.org/license/lgpl-2-1/
   7:../../../DaisySP/DaisySP-LGPL/Source/Effects/reverbsc.h **** */
   8:../../../DaisySP/DaisySP-LGPL/Source/Effects/reverbsc.h **** 
   9:../../../DaisySP/DaisySP-LGPL/Source/Effects/reverbsc.h **** #pragma once
  10:../../../DaisySP/DaisySP-LGPL/Source/Effects/reverbsc.h **** #ifndef DSYSP_REVERBSC_H
  11:../../../DaisySP/DaisySP-LGPL/Source/Effects/reverbsc.h **** #define DSYSP_REVERBSC_H
  12:../../../DaisySP/DaisySP-LGPL/Source/Effects/reverbsc.h **** 
  13:../../../DaisySP/DaisySP-LGPL/Source/Effects/reverbsc.h **** #define DSY_REVERBSC_MAX_SIZE 98936
  14:../../../DaisySP/DaisySP-LGPL/Source/Effects/reverbsc.h **** 
  15:../../../DaisySP/DaisySP-LGPL/Source/Effects/reverbsc.h **** namespace daisysp
  16:../../../DaisySP/DaisySP-LGPL/Source/Effects/reverbsc.h **** {
  17:../../../DaisySP/DaisySP-LGPL/Source/Effects/reverbsc.h **** /**Delay line for internal reverb use
  18:../../../DaisySP/DaisySP-LGPL/Source/Effects/reverbsc.h **** */
  19:../../../DaisySP/DaisySP-LGPL/Source/Effects/reverbsc.h **** typedef struct
  20:../../../DaisySP/DaisySP-LGPL/Source/Effects/reverbsc.h **** {
  21:../../../DaisySP/DaisySP-LGPL/Source/Effects/reverbsc.h ****     int    write_pos;         /**< write position */
  22:../../../DaisySP/DaisySP-LGPL/Source/Effects/reverbsc.h ****     int    buffer_size;       /**< buffer size */
  23:../../../DaisySP/DaisySP-LGPL/Source/Effects/reverbsc.h ****     int    read_pos;          /**< read position */
  24:../../../DaisySP/DaisySP-LGPL/Source/Effects/reverbsc.h ****     int    read_pos_frac;     /**< fractional component of read pos */
  25:../../../DaisySP/DaisySP-LGPL/Source/Effects/reverbsc.h ****     int    read_pos_frac_inc; /**< increment for fractional */
  26:../../../DaisySP/DaisySP-LGPL/Source/Effects/reverbsc.h ****     int    dummy;             /**<  dummy var */
  27:../../../DaisySP/DaisySP-LGPL/Source/Effects/reverbsc.h ****     int    seed_val;          /**< randseed */
  28:../../../DaisySP/DaisySP-LGPL/Source/Effects/reverbsc.h ****     int    rand_line_cnt;     /**< number of random lines */
  29:../../../DaisySP/DaisySP-LGPL/Source/Effects/reverbsc.h ****     float  filter_state;      /**< state of filter */
  30:../../../DaisySP/DaisySP-LGPL/Source/Effects/reverbsc.h ****     float *buf;               /**< buffer ptr */
  31:../../../DaisySP/DaisySP-LGPL/Source/Effects/reverbsc.h **** } ReverbScDl;
  32:../../../DaisySP/DaisySP-LGPL/Source/Effects/reverbsc.h **** 
  33:../../../DaisySP/DaisySP-LGPL/Source/Effects/reverbsc.h **** /** Stereo Reverb */
  34:../../../DaisySP/DaisySP-LGPL/Source/Effects/reverbsc.h **** class ReverbSc
  35:../../../DaisySP/DaisySP-LGPL/Source/Effects/reverbsc.h **** {
  36:../../../DaisySP/DaisySP-LGPL/Source/Effects/reverbsc.h ****   public:
  37:../../../DaisySP/DaisySP-LGPL/Source/Effects/reverbsc.h ****     ReverbSc() {}
ARM GAS  C:\Users\Miguel\AppData\Local\Temp\ccDAyH9H.s 			page 13


  38:../../../DaisySP/DaisySP-LGPL/Source/Effects/reverbsc.h ****     ~ReverbSc() {}
 179              		.loc 10 38 5 is_stmt 1 view -0
 180              		.cfi_startproc
 181              		@ args = 0, pretend = 0, frame = 0
 182              		@ frame_needed = 0, uses_anonymous_args = 0
 183              		@ link register save eliminated.
 184              		.loc 10 38 18 is_stmt 0 view .LVU19
 185 0000 7047     		bx	lr
 186              		.cfi_endproc
 187              	.LFE4738:
 189              		.weak	_ZN7daisysp8ReverbScD1Ev
 190              		.thumb_set _ZN7daisysp8ReverbScD1Ev,_ZN7daisysp8ReverbScD2Ev
 191              		.section	.text._ZN7daisysp10Oscillator4InitEf,"axG",%progbits,_ZN7daisysp10Oscillator4InitEf,comda
 192              		.align	1
 193              		.p2align 2,,3
 194              		.weak	_ZN7daisysp10Oscillator4InitEf
 195              		.syntax unified
 196              		.thumb
 197              		.thumb_func
 198              		.fpu fpv5-d16
 200              	_ZN7daisysp10Oscillator4InitEf:
 201              	.LVL6:
 202              	.LFB4242:
  25:../../../DaisySP/Source/Synthesis/oscillator.h ****     /** Choices for output waveforms, POLYBLEP are appropriately labeled. Others are naive forms.
  26:../../../DaisySP/Source/Synthesis/oscillator.h ****     */
  27:../../../DaisySP/Source/Synthesis/oscillator.h ****     enum
  28:../../../DaisySP/Source/Synthesis/oscillator.h ****     {
  29:../../../DaisySP/Source/Synthesis/oscillator.h ****         WAVE_SIN,
  30:../../../DaisySP/Source/Synthesis/oscillator.h ****         WAVE_TRI,
  31:../../../DaisySP/Source/Synthesis/oscillator.h ****         WAVE_SAW,
  32:../../../DaisySP/Source/Synthesis/oscillator.h ****         WAVE_RAMP,
  33:../../../DaisySP/Source/Synthesis/oscillator.h ****         WAVE_SQUARE,
  34:../../../DaisySP/Source/Synthesis/oscillator.h ****         WAVE_POLYBLEP_TRI,
  35:../../../DaisySP/Source/Synthesis/oscillator.h ****         WAVE_POLYBLEP_SAW,
  36:../../../DaisySP/Source/Synthesis/oscillator.h ****         WAVE_POLYBLEP_SQUARE,
  37:../../../DaisySP/Source/Synthesis/oscillator.h ****         WAVE_LAST,
  38:../../../DaisySP/Source/Synthesis/oscillator.h ****     };
  39:../../../DaisySP/Source/Synthesis/oscillator.h **** 
  40:../../../DaisySP/Source/Synthesis/oscillator.h **** 
  41:../../../DaisySP/Source/Synthesis/oscillator.h ****     /** Initializes the Oscillator
  42:../../../DaisySP/Source/Synthesis/oscillator.h **** 
  43:../../../DaisySP/Source/Synthesis/oscillator.h ****         \param sample_rate - sample rate of the audio engine being run, and the frequency that the 
  44:../../../DaisySP/Source/Synthesis/oscillator.h **** 
  45:../../../DaisySP/Source/Synthesis/oscillator.h ****         Defaults:
  46:../../../DaisySP/Source/Synthesis/oscillator.h ****         - freq_ = 100 Hz
  47:../../../DaisySP/Source/Synthesis/oscillator.h ****         - amp_ = 0.5
  48:../../../DaisySP/Source/Synthesis/oscillator.h ****         - waveform_ = sine wave.
  49:../../../DaisySP/Source/Synthesis/oscillator.h ****     */
  50:../../../DaisySP/Source/Synthesis/oscillator.h ****     void Init(float sample_rate)
 203              		.loc 8 50 10 is_stmt 1 view -0
 204              		.cfi_startproc
 205              		@ args = 0, pretend = 0, frame = 0
 206              		@ frame_needed = 0, uses_anonymous_args = 0
  51:../../../DaisySP/Source/Synthesis/oscillator.h ****     {
  52:../../../DaisySP/Source/Synthesis/oscillator.h ****         sr_        = sample_rate;
 207              		.loc 8 52 9 view .LVU21
  50:../../../DaisySP/Source/Synthesis/oscillator.h ****     {
ARM GAS  C:\Users\Miguel\AppData\Local\Temp\ccDAyH9H.s 			page 14


 208              		.loc 8 50 10 is_stmt 0 view .LVU22
 209 0000 F0EE407A 		vmov.f32	s15, s0
  53:../../../DaisySP/Source/Synthesis/oscillator.h ****         sr_recip_  = 1.0f / sample_rate;
  54:../../../DaisySP/Source/Synthesis/oscillator.h ****         freq_      = 100.0f;
  55:../../../DaisySP/Source/Synthesis/oscillator.h ****         amp_       = 0.5f;
 210              		.loc 8 55 20 view .LVU23
 211 0004 4FF07C53 		mov	r3, #1056964608
  53:../../../DaisySP/Source/Synthesis/oscillator.h ****         sr_recip_  = 1.0f / sample_rate;
 212              		.loc 8 53 27 view .LVU24
 213 0008 F7EE006A 		vmov.f32	s13, #1.0e+0
  56:../../../DaisySP/Source/Synthesis/oscillator.h ****         pw_        = 0.5f;
  57:../../../DaisySP/Source/Synthesis/oscillator.h ****         phase_     = 0.0f;
 214              		.loc 8 57 20 view .LVU25
 215 000c 0022     		movs	r2, #0
  54:../../../DaisySP/Source/Synthesis/oscillator.h ****         amp_       = 0.5f;
 216              		.loc 8 54 20 view .LVU26
 217 000e 9FED0C0A 		vldr.32	s0, .L10
 218              	.LVL7:
  55:../../../DaisySP/Source/Synthesis/oscillator.h ****         pw_        = 0.5f;
 219              		.loc 8 55 20 view .LVU27
 220 0012 4360     		str	r3, [r0, #4]	@ float
  53:../../../DaisySP/Source/Synthesis/oscillator.h ****         freq_      = 100.0f;
 221              		.loc 8 53 27 view .LVU28
 222 0014 86EEA77A 		vdiv.f32	s14, s13, s15
  56:../../../DaisySP/Source/Synthesis/oscillator.h ****         phase_     = 0.0f;
 223              		.loc 8 56 20 view .LVU29
 224 0018 C360     		str	r3, [r0, #12]	@ float
 225              		.loc 8 57 20 view .LVU30
 226 001a 8261     		str	r2, [r0, #24]	@ float
  52:../../../DaisySP/Source/Synthesis/oscillator.h ****         sr_recip_  = 1.0f / sample_rate;
 227              		.loc 8 52 20 view .LVU31
 228 001c C0ED047A 		vstr.32	s15, [r0, #16]
  53:../../../DaisySP/Source/Synthesis/oscillator.h ****         freq_      = 100.0f;
 229              		.loc 8 53 9 is_stmt 1 view .LVU32
  54:../../../DaisySP/Source/Synthesis/oscillator.h ****         amp_       = 0.5f;
 230              		.loc 8 54 20 is_stmt 0 view .LVU33
 231 0020 80ED020A 		vstr.32	s0, [r0, #8]
  50:../../../DaisySP/Source/Synthesis/oscillator.h ****     {
 232              		.loc 8 50 10 view .LVU34
 233 0024 10B5     		push	{r4, lr}
 234              		.cfi_def_cfa_offset 8
 235              		.cfi_offset 4, -8
 236              		.cfi_offset 14, -4
  50:../../../DaisySP/Source/Synthesis/oscillator.h ****     {
 237              		.loc 8 50 10 view .LVU35
 238 0026 0446     		mov	r4, r0
  53:../../../DaisySP/Source/Synthesis/oscillator.h ****         freq_      = 100.0f;
 239              		.loc 8 53 20 view .LVU36
 240 0028 80ED057A 		vstr.32	s14, [r0, #20]
  54:../../../DaisySP/Source/Synthesis/oscillator.h ****         amp_       = 0.5f;
 241              		.loc 8 54 9 is_stmt 1 view .LVU37
  55:../../../DaisySP/Source/Synthesis/oscillator.h ****         pw_        = 0.5f;
 242              		.loc 8 55 9 view .LVU38
  56:../../../DaisySP/Source/Synthesis/oscillator.h ****         phase_     = 0.0f;
 243              		.loc 8 56 9 view .LVU39
 244              		.loc 8 57 9 view .LVU40
  58:../../../DaisySP/Source/Synthesis/oscillator.h ****         phase_inc_ = CalcPhaseInc(freq_);
ARM GAS  C:\Users\Miguel\AppData\Local\Temp\ccDAyH9H.s 			page 15


 245              		.loc 8 58 9 view .LVU41
 246              		.loc 8 58 34 is_stmt 0 view .LVU42
 247 002c FFF7FEFF 		bl	_ZN7daisysp10Oscillator12CalcPhaseIncEf
 248              	.LVL8:
  59:../../../DaisySP/Source/Synthesis/oscillator.h ****         waveform_  = WAVE_SIN;
 249              		.loc 8 59 20 view .LVU43
 250 0030 0022     		movs	r2, #0
  60:../../../DaisySP/Source/Synthesis/oscillator.h ****         eoc_       = true;
  61:../../../DaisySP/Source/Synthesis/oscillator.h ****         eor_       = true;
 251              		.loc 8 61 20 view .LVU44
 252 0032 40F20113 		movw	r3, #257
  58:../../../DaisySP/Source/Synthesis/oscillator.h ****         waveform_  = WAVE_SIN;
 253              		.loc 8 58 20 view .LVU45
 254 0036 84ED070A 		vstr.32	s0, [r4, #28]
  59:../../../DaisySP/Source/Synthesis/oscillator.h ****         waveform_  = WAVE_SIN;
 255              		.loc 8 59 9 is_stmt 1 view .LVU46
  59:../../../DaisySP/Source/Synthesis/oscillator.h ****         waveform_  = WAVE_SIN;
 256              		.loc 8 59 20 is_stmt 0 view .LVU47
 257 003a 2270     		strb	r2, [r4]
  60:../../../DaisySP/Source/Synthesis/oscillator.h ****         eoc_       = true;
 258              		.loc 8 60 9 is_stmt 1 view .LVU48
 259              		.loc 8 61 9 view .LVU49
 260              		.loc 8 61 20 is_stmt 0 view .LVU50
 261 003c 2385     		strh	r3, [r4, #40]	@ movhi
  62:../../../DaisySP/Source/Synthesis/oscillator.h ****     }
 262              		.loc 8 62 5 view .LVU51
 263 003e 10BD     		pop	{r4, pc}
 264              	.LVL9:
 265              	.L11:
 266              		.loc 8 62 5 view .LVU52
 267              		.align	2
 268              	.L10:
 269 0040 0000C842 		.word	1120403456
 270              		.cfi_endproc
 271              	.LFE4242:
 273              		.section	.text._Z14frequencyCheckff,"ax",%progbits
 274              		.align	1
 275              		.p2align 2,,3
 276              		.global	_Z14frequencyCheckff
 277              		.syntax unified
 278              		.thumb
 279              		.thumb_func
 280              		.fpu fpv5-d16
 282              	_Z14frequencyCheckff:
 283              	.LVL10:
 284              	.LFB4846:
 285              		.file 11 "oscillator.cpp"
   1:oscillator.cpp **** #include "daisy_seed.h"
   2:oscillator.cpp **** #include "daisysp.h"
   3:oscillator.cpp **** #include "daisysp-lgpl.h"
   4:oscillator.cpp **** #include <cmath>
   5:oscillator.cpp **** 
   6:oscillator.cpp **** using namespace daisy;
   7:oscillator.cpp **** using namespace daisysp;
   8:oscillator.cpp **** 
   9:oscillator.cpp **** static DaisySeed hw;
  10:oscillator.cpp **** static Oscillator oscillator, osc2, lfo;
ARM GAS  C:\Users\Miguel\AppData\Local\Temp\ccDAyH9H.s 			page 16


  11:oscillator.cpp **** static Adsr env;
  12:oscillator.cpp **** static Metro tick;
  13:oscillator.cpp **** static ReverbSc reverb;
  14:oscillator.cpp **** static Switch3 toggleWaveForm;
  15:oscillator.cpp **** static Switch3 toggleWaveForm2;
  16:oscillator.cpp **** bool gate;
  17:oscillator.cpp **** float sampleRate;
  18:oscillator.cpp **** 
  19:oscillator.cpp **** float frequencyCheck(float freqOsc, float lfoProcess) 
  20:oscillator.cpp **** {
 286              		.loc 11 20 1 is_stmt 1 view -0
 287              		.cfi_startproc
 288              		@ args = 0, pretend = 0, frame = 0
 289              		@ frame_needed = 0, uses_anonymous_args = 0
 290              		@ link register save eliminated.
  21:oscillator.cpp ****     float freq = ((lfoProcess * freqOsc) * 2);
 291              		.loc 11 21 5 view .LVU54
 292              		.loc 11 21 31 is_stmt 0 view .LVU55
 293 0000 20EE800A 		vmul.f32	s0, s1, s0
 294              	.LVL11:
  22:oscillator.cpp **** 
  23:oscillator.cpp ****     if (freq < 0) 
  24:oscillator.cpp ****     {
  25:oscillator.cpp ****         freq = -1 * freq;
  26:oscillator.cpp ****     }
  27:oscillator.cpp **** 
  28:oscillator.cpp ****     if (freq < 27.5f) 
 295              		.loc 11 28 5 view .LVU56
 296 0004 DFED097A 		vldr.32	s15, .L19
  21:oscillator.cpp ****     float freq = ((lfoProcess * freqOsc) * 2);
 297              		.loc 11 21 11 view .LVU57
 298 0008 30EE000A 		vadd.f32	s0, s0, s0
 299              	.LVL12:
  23:oscillator.cpp ****     {
 300              		.loc 11 23 5 is_stmt 1 view .LVU58
 301 000c B5EEC00A 		vcmpe.f32	s0, #0
 302 0010 F1EE10FA 		vmrs	APSR_nzcv, FPSCR
  25:oscillator.cpp ****     }
 303              		.loc 11 25 9 view .LVU59
  25:oscillator.cpp ****     }
 304              		.loc 11 25 14 is_stmt 0 view .LVU60
 305 0014 48BF     		it	mi
 306 0016 B1EE400A 		vnegmi.f32	s0, s0
 307              	.LVL13:
 308              		.loc 11 28 5 is_stmt 1 view .LVU61
  29:oscillator.cpp ****     {
  30:oscillator.cpp ****         freq = 27.5f;
 309              		.loc 11 30 14 is_stmt 0 view .LVU62
 310 001a B4EE670A 		vcmp.f32	s0, s15
 311 001e F1EE10FA 		vmrs	APSR_nzcv, FPSCR
 312 0022 48BF     		it	mi
 313 0024 B0EE670A 		vmovmi.f32	s0, s15
 314              	.LVL14:
  31:oscillator.cpp ****     }
  32:oscillator.cpp **** 
  33:oscillator.cpp ****     return freq;
  34:oscillator.cpp **** }
ARM GAS  C:\Users\Miguel\AppData\Local\Temp\ccDAyH9H.s 			page 17


 315              		.loc 11 34 1 view .LVU63
 316 0028 7047     		bx	lr
 317              	.L20:
 318 002a 00BF     		.align	2
 319              	.L19:
 320 002c 0000DC41 		.word	1104936960
 321              		.cfi_endproc
 322              	.LFE4846:
 324              		.section	.text._Z12convertValueiff,"ax",%progbits
 325              		.align	1
 326              		.p2align 2,,3
 327              		.global	_Z12convertValueiff
 328              		.syntax unified
 329              		.thumb
 330              		.thumb_func
 331              		.fpu fpv5-d16
 333              	_Z12convertValueiff:
 334              	.LVL15:
 335              	.LFB4847:
  35:oscillator.cpp **** 
  36:oscillator.cpp **** float convertValue(int value, float new_min, float new_max) {
 336              		.loc 11 36 61 is_stmt 1 view -0
 337              		.cfi_startproc
 338              		@ args = 0, pretend = 0, frame = 0
 339              		@ frame_needed = 0, uses_anonymous_args = 0
 340              		@ link register save eliminated.
  37:oscillator.cpp ****     int min_value = 0;
 341              		.loc 11 37 5 view .LVU65
  38:oscillator.cpp ****     int max_value = 65534;
 342              		.loc 11 38 5 view .LVU66
  39:oscillator.cpp ****     
  40:oscillator.cpp ****     // Calculer la valeur normalise entre 0 et 1
  41:oscillator.cpp ****     float normalized_value = static_cast<float>(value - min_value) / (max_value - min_value);
 343              		.loc 11 41 5 view .LVU67
  42:oscillator.cpp ****     
  43:oscillator.cpp ****     // Appliquer la fonction de mise  l'chelle exponentielle
  44:oscillator.cpp ****     float scaled_value = ((new_max - new_min) * pow(normalized_value, 2)) + new_min;
 344              		.loc 11 44 5 view .LVU68
 345              	.LBB199:
 346              	.LBI199:
 347              		.file 12 "c:\\program files\\daisytoolchain\\arm-none-eabi\\include\\c++\\10.2.1\\cmath"
   1:c:\program files\daisytoolchain\arm-none-eabi\include\c++\10.2.1\cmath **** // -*- C++ -*- C forwarding header.
   2:c:\program files\daisytoolchain\arm-none-eabi\include\c++\10.2.1\cmath **** 
   3:c:\program files\daisytoolchain\arm-none-eabi\include\c++\10.2.1\cmath **** // Copyright (C) 1997-2020 Free Software Foundation, Inc.
   4:c:\program files\daisytoolchain\arm-none-eabi\include\c++\10.2.1\cmath **** //
   5:c:\program files\daisytoolchain\arm-none-eabi\include\c++\10.2.1\cmath **** // This file is part of the GNU ISO C++ Library.  This library is free
   6:c:\program files\daisytoolchain\arm-none-eabi\include\c++\10.2.1\cmath **** // software; you can redistribute it and/or modify it under the
   7:c:\program files\daisytoolchain\arm-none-eabi\include\c++\10.2.1\cmath **** // terms of the GNU General Public License as published by the
   8:c:\program files\daisytoolchain\arm-none-eabi\include\c++\10.2.1\cmath **** // Free Software Foundation; either version 3, or (at your option)
   9:c:\program files\daisytoolchain\arm-none-eabi\include\c++\10.2.1\cmath **** // any later version.
  10:c:\program files\daisytoolchain\arm-none-eabi\include\c++\10.2.1\cmath **** 
  11:c:\program files\daisytoolchain\arm-none-eabi\include\c++\10.2.1\cmath **** // This library is distributed in the hope that it will be useful,
  12:c:\program files\daisytoolchain\arm-none-eabi\include\c++\10.2.1\cmath **** // but WITHOUT ANY WARRANTY; without even the implied warranty of
  13:c:\program files\daisytoolchain\arm-none-eabi\include\c++\10.2.1\cmath **** // MERCHANTABILITY or FITNESS FOR A PARTICULAR PURPOSE.  See the
  14:c:\program files\daisytoolchain\arm-none-eabi\include\c++\10.2.1\cmath **** // GNU General Public License for more details.
  15:c:\program files\daisytoolchain\arm-none-eabi\include\c++\10.2.1\cmath **** 
  16:c:\program files\daisytoolchain\arm-none-eabi\include\c++\10.2.1\cmath **** // Under Section 7 of GPL version 3, you are granted additional
ARM GAS  C:\Users\Miguel\AppData\Local\Temp\ccDAyH9H.s 			page 18


  17:c:\program files\daisytoolchain\arm-none-eabi\include\c++\10.2.1\cmath **** // permissions described in the GCC Runtime Library Exception, version
  18:c:\program files\daisytoolchain\arm-none-eabi\include\c++\10.2.1\cmath **** // 3.1, as published by the Free Software Foundation.
  19:c:\program files\daisytoolchain\arm-none-eabi\include\c++\10.2.1\cmath **** 
  20:c:\program files\daisytoolchain\arm-none-eabi\include\c++\10.2.1\cmath **** // You should have received a copy of the GNU General Public License and
  21:c:\program files\daisytoolchain\arm-none-eabi\include\c++\10.2.1\cmath **** // a copy of the GCC Runtime Library Exception along with this program;
  22:c:\program files\daisytoolchain\arm-none-eabi\include\c++\10.2.1\cmath **** // see the files COPYING3 and COPYING.RUNTIME respectively.  If not, see
  23:c:\program files\daisytoolchain\arm-none-eabi\include\c++\10.2.1\cmath **** // <http://www.gnu.org/licenses/>.
  24:c:\program files\daisytoolchain\arm-none-eabi\include\c++\10.2.1\cmath **** 
  25:c:\program files\daisytoolchain\arm-none-eabi\include\c++\10.2.1\cmath **** /** @file include/cmath
  26:c:\program files\daisytoolchain\arm-none-eabi\include\c++\10.2.1\cmath ****  *  This is a Standard C++ Library file.  You should @c \#include this file
  27:c:\program files\daisytoolchain\arm-none-eabi\include\c++\10.2.1\cmath ****  *  in your programs, rather than any of the @a *.h implementation files.
  28:c:\program files\daisytoolchain\arm-none-eabi\include\c++\10.2.1\cmath ****  *
  29:c:\program files\daisytoolchain\arm-none-eabi\include\c++\10.2.1\cmath ****  *  This is the C++ version of the Standard C Library header @c math.h,
  30:c:\program files\daisytoolchain\arm-none-eabi\include\c++\10.2.1\cmath ****  *  and its contents are (mostly) the same as that header, but are all
  31:c:\program files\daisytoolchain\arm-none-eabi\include\c++\10.2.1\cmath ****  *  contained in the namespace @c std (except for names which are defined
  32:c:\program files\daisytoolchain\arm-none-eabi\include\c++\10.2.1\cmath ****  *  as macros in C).
  33:c:\program files\daisytoolchain\arm-none-eabi\include\c++\10.2.1\cmath ****  */
  34:c:\program files\daisytoolchain\arm-none-eabi\include\c++\10.2.1\cmath **** 
  35:c:\program files\daisytoolchain\arm-none-eabi\include\c++\10.2.1\cmath **** //
  36:c:\program files\daisytoolchain\arm-none-eabi\include\c++\10.2.1\cmath **** // ISO C++ 14882: 26.5  C library
  37:c:\program files\daisytoolchain\arm-none-eabi\include\c++\10.2.1\cmath **** //
  38:c:\program files\daisytoolchain\arm-none-eabi\include\c++\10.2.1\cmath **** 
  39:c:\program files\daisytoolchain\arm-none-eabi\include\c++\10.2.1\cmath **** #pragma GCC system_header
  40:c:\program files\daisytoolchain\arm-none-eabi\include\c++\10.2.1\cmath **** 
  41:c:\program files\daisytoolchain\arm-none-eabi\include\c++\10.2.1\cmath **** #include <bits/c++config.h>
  42:c:\program files\daisytoolchain\arm-none-eabi\include\c++\10.2.1\cmath **** #include <bits/cpp_type_traits.h>
  43:c:\program files\daisytoolchain\arm-none-eabi\include\c++\10.2.1\cmath **** #include <ext/type_traits.h>
  44:c:\program files\daisytoolchain\arm-none-eabi\include\c++\10.2.1\cmath **** #define _GLIBCXX_INCLUDE_NEXT_C_HEADERS
  45:c:\program files\daisytoolchain\arm-none-eabi\include\c++\10.2.1\cmath **** #include_next <math.h>
  46:c:\program files\daisytoolchain\arm-none-eabi\include\c++\10.2.1\cmath **** #undef _GLIBCXX_INCLUDE_NEXT_C_HEADERS
  47:c:\program files\daisytoolchain\arm-none-eabi\include\c++\10.2.1\cmath **** #include <bits/std_abs.h>
  48:c:\program files\daisytoolchain\arm-none-eabi\include\c++\10.2.1\cmath **** 
  49:c:\program files\daisytoolchain\arm-none-eabi\include\c++\10.2.1\cmath **** #ifndef _GLIBCXX_CMATH
  50:c:\program files\daisytoolchain\arm-none-eabi\include\c++\10.2.1\cmath **** #define _GLIBCXX_CMATH 1
  51:c:\program files\daisytoolchain\arm-none-eabi\include\c++\10.2.1\cmath **** 
  52:c:\program files\daisytoolchain\arm-none-eabi\include\c++\10.2.1\cmath **** // Get rid of those macros defined in <math.h> in lieu of real functions.
  53:c:\program files\daisytoolchain\arm-none-eabi\include\c++\10.2.1\cmath **** #undef div
  54:c:\program files\daisytoolchain\arm-none-eabi\include\c++\10.2.1\cmath **** #undef acos
  55:c:\program files\daisytoolchain\arm-none-eabi\include\c++\10.2.1\cmath **** #undef asin
  56:c:\program files\daisytoolchain\arm-none-eabi\include\c++\10.2.1\cmath **** #undef atan
  57:c:\program files\daisytoolchain\arm-none-eabi\include\c++\10.2.1\cmath **** #undef atan2
  58:c:\program files\daisytoolchain\arm-none-eabi\include\c++\10.2.1\cmath **** #undef ceil
  59:c:\program files\daisytoolchain\arm-none-eabi\include\c++\10.2.1\cmath **** #undef cos
  60:c:\program files\daisytoolchain\arm-none-eabi\include\c++\10.2.1\cmath **** #undef cosh
  61:c:\program files\daisytoolchain\arm-none-eabi\include\c++\10.2.1\cmath **** #undef exp
  62:c:\program files\daisytoolchain\arm-none-eabi\include\c++\10.2.1\cmath **** #undef fabs
  63:c:\program files\daisytoolchain\arm-none-eabi\include\c++\10.2.1\cmath **** #undef floor
  64:c:\program files\daisytoolchain\arm-none-eabi\include\c++\10.2.1\cmath **** #undef fmod
  65:c:\program files\daisytoolchain\arm-none-eabi\include\c++\10.2.1\cmath **** #undef frexp
  66:c:\program files\daisytoolchain\arm-none-eabi\include\c++\10.2.1\cmath **** #undef ldexp
  67:c:\program files\daisytoolchain\arm-none-eabi\include\c++\10.2.1\cmath **** #undef log
  68:c:\program files\daisytoolchain\arm-none-eabi\include\c++\10.2.1\cmath **** #undef log10
  69:c:\program files\daisytoolchain\arm-none-eabi\include\c++\10.2.1\cmath **** #undef modf
  70:c:\program files\daisytoolchain\arm-none-eabi\include\c++\10.2.1\cmath **** #undef pow
  71:c:\program files\daisytoolchain\arm-none-eabi\include\c++\10.2.1\cmath **** #undef sin
  72:c:\program files\daisytoolchain\arm-none-eabi\include\c++\10.2.1\cmath **** #undef sinh
  73:c:\program files\daisytoolchain\arm-none-eabi\include\c++\10.2.1\cmath **** #undef sqrt
ARM GAS  C:\Users\Miguel\AppData\Local\Temp\ccDAyH9H.s 			page 19


  74:c:\program files\daisytoolchain\arm-none-eabi\include\c++\10.2.1\cmath **** #undef tan
  75:c:\program files\daisytoolchain\arm-none-eabi\include\c++\10.2.1\cmath **** #undef tanh
  76:c:\program files\daisytoolchain\arm-none-eabi\include\c++\10.2.1\cmath **** 
  77:c:\program files\daisytoolchain\arm-none-eabi\include\c++\10.2.1\cmath **** extern "C++"
  78:c:\program files\daisytoolchain\arm-none-eabi\include\c++\10.2.1\cmath **** {
  79:c:\program files\daisytoolchain\arm-none-eabi\include\c++\10.2.1\cmath **** namespace std _GLIBCXX_VISIBILITY(default)
  80:c:\program files\daisytoolchain\arm-none-eabi\include\c++\10.2.1\cmath **** {
  81:c:\program files\daisytoolchain\arm-none-eabi\include\c++\10.2.1\cmath **** _GLIBCXX_BEGIN_NAMESPACE_VERSION
  82:c:\program files\daisytoolchain\arm-none-eabi\include\c++\10.2.1\cmath **** 
  83:c:\program files\daisytoolchain\arm-none-eabi\include\c++\10.2.1\cmath ****   using ::acos;
  84:c:\program files\daisytoolchain\arm-none-eabi\include\c++\10.2.1\cmath **** 
  85:c:\program files\daisytoolchain\arm-none-eabi\include\c++\10.2.1\cmath **** #ifndef __CORRECT_ISO_CPP_MATH_H_PROTO
  86:c:\program files\daisytoolchain\arm-none-eabi\include\c++\10.2.1\cmath ****   inline _GLIBCXX_CONSTEXPR float
  87:c:\program files\daisytoolchain\arm-none-eabi\include\c++\10.2.1\cmath ****   acos(float __x)
  88:c:\program files\daisytoolchain\arm-none-eabi\include\c++\10.2.1\cmath ****   { return __builtin_acosf(__x); }
  89:c:\program files\daisytoolchain\arm-none-eabi\include\c++\10.2.1\cmath **** 
  90:c:\program files\daisytoolchain\arm-none-eabi\include\c++\10.2.1\cmath ****   inline _GLIBCXX_CONSTEXPR long double
  91:c:\program files\daisytoolchain\arm-none-eabi\include\c++\10.2.1\cmath ****   acos(long double __x)
  92:c:\program files\daisytoolchain\arm-none-eabi\include\c++\10.2.1\cmath ****   { return __builtin_acosl(__x); }
  93:c:\program files\daisytoolchain\arm-none-eabi\include\c++\10.2.1\cmath **** #endif
  94:c:\program files\daisytoolchain\arm-none-eabi\include\c++\10.2.1\cmath **** 
  95:c:\program files\daisytoolchain\arm-none-eabi\include\c++\10.2.1\cmath ****   template<typename _Tp>
  96:c:\program files\daisytoolchain\arm-none-eabi\include\c++\10.2.1\cmath ****     inline _GLIBCXX_CONSTEXPR
  97:c:\program files\daisytoolchain\arm-none-eabi\include\c++\10.2.1\cmath ****     typename __gnu_cxx::__enable_if<__is_integer<_Tp>::__value, 
  98:c:\program files\daisytoolchain\arm-none-eabi\include\c++\10.2.1\cmath ****                                     double>::__type
  99:c:\program files\daisytoolchain\arm-none-eabi\include\c++\10.2.1\cmath ****     acos(_Tp __x)
 100:c:\program files\daisytoolchain\arm-none-eabi\include\c++\10.2.1\cmath ****     { return __builtin_acos(__x); }
 101:c:\program files\daisytoolchain\arm-none-eabi\include\c++\10.2.1\cmath **** 
 102:c:\program files\daisytoolchain\arm-none-eabi\include\c++\10.2.1\cmath ****   using ::asin;
 103:c:\program files\daisytoolchain\arm-none-eabi\include\c++\10.2.1\cmath **** 
 104:c:\program files\daisytoolchain\arm-none-eabi\include\c++\10.2.1\cmath **** #ifndef __CORRECT_ISO_CPP_MATH_H_PROTO
 105:c:\program files\daisytoolchain\arm-none-eabi\include\c++\10.2.1\cmath ****   inline _GLIBCXX_CONSTEXPR float
 106:c:\program files\daisytoolchain\arm-none-eabi\include\c++\10.2.1\cmath ****   asin(float __x)
 107:c:\program files\daisytoolchain\arm-none-eabi\include\c++\10.2.1\cmath ****   { return __builtin_asinf(__x); }
 108:c:\program files\daisytoolchain\arm-none-eabi\include\c++\10.2.1\cmath **** 
 109:c:\program files\daisytoolchain\arm-none-eabi\include\c++\10.2.1\cmath ****   inline _GLIBCXX_CONSTEXPR long double
 110:c:\program files\daisytoolchain\arm-none-eabi\include\c++\10.2.1\cmath ****   asin(long double __x)
 111:c:\program files\daisytoolchain\arm-none-eabi\include\c++\10.2.1\cmath ****   { return __builtin_asinl(__x); }
 112:c:\program files\daisytoolchain\arm-none-eabi\include\c++\10.2.1\cmath **** #endif
 113:c:\program files\daisytoolchain\arm-none-eabi\include\c++\10.2.1\cmath **** 
 114:c:\program files\daisytoolchain\arm-none-eabi\include\c++\10.2.1\cmath ****   template<typename _Tp>
 115:c:\program files\daisytoolchain\arm-none-eabi\include\c++\10.2.1\cmath ****     inline _GLIBCXX_CONSTEXPR
 116:c:\program files\daisytoolchain\arm-none-eabi\include\c++\10.2.1\cmath ****     typename __gnu_cxx::__enable_if<__is_integer<_Tp>::__value,
 117:c:\program files\daisytoolchain\arm-none-eabi\include\c++\10.2.1\cmath ****                                     double>::__type
 118:c:\program files\daisytoolchain\arm-none-eabi\include\c++\10.2.1\cmath ****     asin(_Tp __x)
 119:c:\program files\daisytoolchain\arm-none-eabi\include\c++\10.2.1\cmath ****     { return __builtin_asin(__x); }
 120:c:\program files\daisytoolchain\arm-none-eabi\include\c++\10.2.1\cmath **** 
 121:c:\program files\daisytoolchain\arm-none-eabi\include\c++\10.2.1\cmath ****   using ::atan;
 122:c:\program files\daisytoolchain\arm-none-eabi\include\c++\10.2.1\cmath **** 
 123:c:\program files\daisytoolchain\arm-none-eabi\include\c++\10.2.1\cmath **** #ifndef __CORRECT_ISO_CPP_MATH_H_PROTO
 124:c:\program files\daisytoolchain\arm-none-eabi\include\c++\10.2.1\cmath ****   inline _GLIBCXX_CONSTEXPR float
 125:c:\program files\daisytoolchain\arm-none-eabi\include\c++\10.2.1\cmath ****   atan(float __x)
 126:c:\program files\daisytoolchain\arm-none-eabi\include\c++\10.2.1\cmath ****   { return __builtin_atanf(__x); }
 127:c:\program files\daisytoolchain\arm-none-eabi\include\c++\10.2.1\cmath **** 
 128:c:\program files\daisytoolchain\arm-none-eabi\include\c++\10.2.1\cmath ****   inline _GLIBCXX_CONSTEXPR long double
 129:c:\program files\daisytoolchain\arm-none-eabi\include\c++\10.2.1\cmath ****   atan(long double __x)
 130:c:\program files\daisytoolchain\arm-none-eabi\include\c++\10.2.1\cmath ****   { return __builtin_atanl(__x); }
ARM GAS  C:\Users\Miguel\AppData\Local\Temp\ccDAyH9H.s 			page 20


 131:c:\program files\daisytoolchain\arm-none-eabi\include\c++\10.2.1\cmath **** #endif
 132:c:\program files\daisytoolchain\arm-none-eabi\include\c++\10.2.1\cmath **** 
 133:c:\program files\daisytoolchain\arm-none-eabi\include\c++\10.2.1\cmath ****   template<typename _Tp>
 134:c:\program files\daisytoolchain\arm-none-eabi\include\c++\10.2.1\cmath ****     inline _GLIBCXX_CONSTEXPR
 135:c:\program files\daisytoolchain\arm-none-eabi\include\c++\10.2.1\cmath ****     typename __gnu_cxx::__enable_if<__is_integer<_Tp>::__value,
 136:c:\program files\daisytoolchain\arm-none-eabi\include\c++\10.2.1\cmath ****                                     double>::__type
 137:c:\program files\daisytoolchain\arm-none-eabi\include\c++\10.2.1\cmath ****     atan(_Tp __x)
 138:c:\program files\daisytoolchain\arm-none-eabi\include\c++\10.2.1\cmath ****     { return __builtin_atan(__x); }
 139:c:\program files\daisytoolchain\arm-none-eabi\include\c++\10.2.1\cmath **** 
 140:c:\program files\daisytoolchain\arm-none-eabi\include\c++\10.2.1\cmath ****   using ::atan2;
 141:c:\program files\daisytoolchain\arm-none-eabi\include\c++\10.2.1\cmath **** 
 142:c:\program files\daisytoolchain\arm-none-eabi\include\c++\10.2.1\cmath **** #ifndef __CORRECT_ISO_CPP_MATH_H_PROTO
 143:c:\program files\daisytoolchain\arm-none-eabi\include\c++\10.2.1\cmath ****   inline _GLIBCXX_CONSTEXPR float
 144:c:\program files\daisytoolchain\arm-none-eabi\include\c++\10.2.1\cmath ****   atan2(float __y, float __x)
 145:c:\program files\daisytoolchain\arm-none-eabi\include\c++\10.2.1\cmath ****   { return __builtin_atan2f(__y, __x); }
 146:c:\program files\daisytoolchain\arm-none-eabi\include\c++\10.2.1\cmath **** 
 147:c:\program files\daisytoolchain\arm-none-eabi\include\c++\10.2.1\cmath ****   inline _GLIBCXX_CONSTEXPR long double
 148:c:\program files\daisytoolchain\arm-none-eabi\include\c++\10.2.1\cmath ****   atan2(long double __y, long double __x)
 149:c:\program files\daisytoolchain\arm-none-eabi\include\c++\10.2.1\cmath ****   { return __builtin_atan2l(__y, __x); }
 150:c:\program files\daisytoolchain\arm-none-eabi\include\c++\10.2.1\cmath **** #endif
 151:c:\program files\daisytoolchain\arm-none-eabi\include\c++\10.2.1\cmath **** 
 152:c:\program files\daisytoolchain\arm-none-eabi\include\c++\10.2.1\cmath ****   template<typename _Tp, typename _Up>
 153:c:\program files\daisytoolchain\arm-none-eabi\include\c++\10.2.1\cmath ****     inline _GLIBCXX_CONSTEXPR
 154:c:\program files\daisytoolchain\arm-none-eabi\include\c++\10.2.1\cmath ****     typename __gnu_cxx::__promote_2<_Tp, _Up>::__type
 155:c:\program files\daisytoolchain\arm-none-eabi\include\c++\10.2.1\cmath ****     atan2(_Tp __y, _Up __x)
 156:c:\program files\daisytoolchain\arm-none-eabi\include\c++\10.2.1\cmath ****     {
 157:c:\program files\daisytoolchain\arm-none-eabi\include\c++\10.2.1\cmath ****       typedef typename __gnu_cxx::__promote_2<_Tp, _Up>::__type __type;
 158:c:\program files\daisytoolchain\arm-none-eabi\include\c++\10.2.1\cmath ****       return atan2(__type(__y), __type(__x));
 159:c:\program files\daisytoolchain\arm-none-eabi\include\c++\10.2.1\cmath ****     }
 160:c:\program files\daisytoolchain\arm-none-eabi\include\c++\10.2.1\cmath **** 
 161:c:\program files\daisytoolchain\arm-none-eabi\include\c++\10.2.1\cmath ****   using ::ceil;
 162:c:\program files\daisytoolchain\arm-none-eabi\include\c++\10.2.1\cmath **** 
 163:c:\program files\daisytoolchain\arm-none-eabi\include\c++\10.2.1\cmath **** #ifndef __CORRECT_ISO_CPP_MATH_H_PROTO
 164:c:\program files\daisytoolchain\arm-none-eabi\include\c++\10.2.1\cmath ****   inline _GLIBCXX_CONSTEXPR float
 165:c:\program files\daisytoolchain\arm-none-eabi\include\c++\10.2.1\cmath ****   ceil(float __x)
 166:c:\program files\daisytoolchain\arm-none-eabi\include\c++\10.2.1\cmath ****   { return __builtin_ceilf(__x); }
 167:c:\program files\daisytoolchain\arm-none-eabi\include\c++\10.2.1\cmath **** 
 168:c:\program files\daisytoolchain\arm-none-eabi\include\c++\10.2.1\cmath ****   inline _GLIBCXX_CONSTEXPR long double
 169:c:\program files\daisytoolchain\arm-none-eabi\include\c++\10.2.1\cmath ****   ceil(long double __x)
 170:c:\program files\daisytoolchain\arm-none-eabi\include\c++\10.2.1\cmath ****   { return __builtin_ceill(__x); }
 171:c:\program files\daisytoolchain\arm-none-eabi\include\c++\10.2.1\cmath **** #endif
 172:c:\program files\daisytoolchain\arm-none-eabi\include\c++\10.2.1\cmath **** 
 173:c:\program files\daisytoolchain\arm-none-eabi\include\c++\10.2.1\cmath ****   template<typename _Tp>
 174:c:\program files\daisytoolchain\arm-none-eabi\include\c++\10.2.1\cmath ****     inline _GLIBCXX_CONSTEXPR
 175:c:\program files\daisytoolchain\arm-none-eabi\include\c++\10.2.1\cmath ****     typename __gnu_cxx::__enable_if<__is_integer<_Tp>::__value, 
 176:c:\program files\daisytoolchain\arm-none-eabi\include\c++\10.2.1\cmath ****                                     double>::__type
 177:c:\program files\daisytoolchain\arm-none-eabi\include\c++\10.2.1\cmath ****     ceil(_Tp __x)
 178:c:\program files\daisytoolchain\arm-none-eabi\include\c++\10.2.1\cmath ****     { return __builtin_ceil(__x); }
 179:c:\program files\daisytoolchain\arm-none-eabi\include\c++\10.2.1\cmath **** 
 180:c:\program files\daisytoolchain\arm-none-eabi\include\c++\10.2.1\cmath ****   using ::cos;
 181:c:\program files\daisytoolchain\arm-none-eabi\include\c++\10.2.1\cmath **** 
 182:c:\program files\daisytoolchain\arm-none-eabi\include\c++\10.2.1\cmath **** #ifndef __CORRECT_ISO_CPP_MATH_H_PROTO
 183:c:\program files\daisytoolchain\arm-none-eabi\include\c++\10.2.1\cmath ****   inline _GLIBCXX_CONSTEXPR float
 184:c:\program files\daisytoolchain\arm-none-eabi\include\c++\10.2.1\cmath ****   cos(float __x)
 185:c:\program files\daisytoolchain\arm-none-eabi\include\c++\10.2.1\cmath ****   { return __builtin_cosf(__x); }
 186:c:\program files\daisytoolchain\arm-none-eabi\include\c++\10.2.1\cmath **** 
 187:c:\program files\daisytoolchain\arm-none-eabi\include\c++\10.2.1\cmath ****   inline _GLIBCXX_CONSTEXPR long double
ARM GAS  C:\Users\Miguel\AppData\Local\Temp\ccDAyH9H.s 			page 21


 188:c:\program files\daisytoolchain\arm-none-eabi\include\c++\10.2.1\cmath ****   cos(long double __x)
 189:c:\program files\daisytoolchain\arm-none-eabi\include\c++\10.2.1\cmath ****   { return __builtin_cosl(__x); }
 190:c:\program files\daisytoolchain\arm-none-eabi\include\c++\10.2.1\cmath **** #endif
 191:c:\program files\daisytoolchain\arm-none-eabi\include\c++\10.2.1\cmath **** 
 192:c:\program files\daisytoolchain\arm-none-eabi\include\c++\10.2.1\cmath ****   template<typename _Tp>
 193:c:\program files\daisytoolchain\arm-none-eabi\include\c++\10.2.1\cmath ****     inline _GLIBCXX_CONSTEXPR
 194:c:\program files\daisytoolchain\arm-none-eabi\include\c++\10.2.1\cmath ****     typename __gnu_cxx::__enable_if<__is_integer<_Tp>::__value,
 195:c:\program files\daisytoolchain\arm-none-eabi\include\c++\10.2.1\cmath ****                                     double>::__type
 196:c:\program files\daisytoolchain\arm-none-eabi\include\c++\10.2.1\cmath ****     cos(_Tp __x)
 197:c:\program files\daisytoolchain\arm-none-eabi\include\c++\10.2.1\cmath ****     { return __builtin_cos(__x); }
 198:c:\program files\daisytoolchain\arm-none-eabi\include\c++\10.2.1\cmath **** 
 199:c:\program files\daisytoolchain\arm-none-eabi\include\c++\10.2.1\cmath ****   using ::cosh;
 200:c:\program files\daisytoolchain\arm-none-eabi\include\c++\10.2.1\cmath **** 
 201:c:\program files\daisytoolchain\arm-none-eabi\include\c++\10.2.1\cmath **** #ifndef __CORRECT_ISO_CPP_MATH_H_PROTO
 202:c:\program files\daisytoolchain\arm-none-eabi\include\c++\10.2.1\cmath ****   inline _GLIBCXX_CONSTEXPR float
 203:c:\program files\daisytoolchain\arm-none-eabi\include\c++\10.2.1\cmath ****   cosh(float __x)
 204:c:\program files\daisytoolchain\arm-none-eabi\include\c++\10.2.1\cmath ****   { return __builtin_coshf(__x); }
 205:c:\program files\daisytoolchain\arm-none-eabi\include\c++\10.2.1\cmath **** 
 206:c:\program files\daisytoolchain\arm-none-eabi\include\c++\10.2.1\cmath ****   inline _GLIBCXX_CONSTEXPR long double
 207:c:\program files\daisytoolchain\arm-none-eabi\include\c++\10.2.1\cmath ****   cosh(long double __x)
 208:c:\program files\daisytoolchain\arm-none-eabi\include\c++\10.2.1\cmath ****   { return __builtin_coshl(__x); }
 209:c:\program files\daisytoolchain\arm-none-eabi\include\c++\10.2.1\cmath **** #endif
 210:c:\program files\daisytoolchain\arm-none-eabi\include\c++\10.2.1\cmath **** 
 211:c:\program files\daisytoolchain\arm-none-eabi\include\c++\10.2.1\cmath ****   template<typename _Tp>
 212:c:\program files\daisytoolchain\arm-none-eabi\include\c++\10.2.1\cmath ****     inline _GLIBCXX_CONSTEXPR
 213:c:\program files\daisytoolchain\arm-none-eabi\include\c++\10.2.1\cmath ****     typename __gnu_cxx::__enable_if<__is_integer<_Tp>::__value,
 214:c:\program files\daisytoolchain\arm-none-eabi\include\c++\10.2.1\cmath ****                                     double>::__type
 215:c:\program files\daisytoolchain\arm-none-eabi\include\c++\10.2.1\cmath ****     cosh(_Tp __x)
 216:c:\program files\daisytoolchain\arm-none-eabi\include\c++\10.2.1\cmath ****     { return __builtin_cosh(__x); }
 217:c:\program files\daisytoolchain\arm-none-eabi\include\c++\10.2.1\cmath **** 
 218:c:\program files\daisytoolchain\arm-none-eabi\include\c++\10.2.1\cmath ****   using ::exp;
 219:c:\program files\daisytoolchain\arm-none-eabi\include\c++\10.2.1\cmath **** 
 220:c:\program files\daisytoolchain\arm-none-eabi\include\c++\10.2.1\cmath **** #ifndef __CORRECT_ISO_CPP_MATH_H_PROTO
 221:c:\program files\daisytoolchain\arm-none-eabi\include\c++\10.2.1\cmath ****   inline _GLIBCXX_CONSTEXPR float
 222:c:\program files\daisytoolchain\arm-none-eabi\include\c++\10.2.1\cmath ****   exp(float __x)
 223:c:\program files\daisytoolchain\arm-none-eabi\include\c++\10.2.1\cmath ****   { return __builtin_expf(__x); }
 224:c:\program files\daisytoolchain\arm-none-eabi\include\c++\10.2.1\cmath **** 
 225:c:\program files\daisytoolchain\arm-none-eabi\include\c++\10.2.1\cmath ****   inline _GLIBCXX_CONSTEXPR long double
 226:c:\program files\daisytoolchain\arm-none-eabi\include\c++\10.2.1\cmath ****   exp(long double __x)
 227:c:\program files\daisytoolchain\arm-none-eabi\include\c++\10.2.1\cmath ****   { return __builtin_expl(__x); }
 228:c:\program files\daisytoolchain\arm-none-eabi\include\c++\10.2.1\cmath **** #endif
 229:c:\program files\daisytoolchain\arm-none-eabi\include\c++\10.2.1\cmath **** 
 230:c:\program files\daisytoolchain\arm-none-eabi\include\c++\10.2.1\cmath ****   template<typename _Tp>
 231:c:\program files\daisytoolchain\arm-none-eabi\include\c++\10.2.1\cmath ****     inline _GLIBCXX_CONSTEXPR
 232:c:\program files\daisytoolchain\arm-none-eabi\include\c++\10.2.1\cmath ****     typename __gnu_cxx::__enable_if<__is_integer<_Tp>::__value,
 233:c:\program files\daisytoolchain\arm-none-eabi\include\c++\10.2.1\cmath ****                                     double>::__type
 234:c:\program files\daisytoolchain\arm-none-eabi\include\c++\10.2.1\cmath ****     exp(_Tp __x)
 235:c:\program files\daisytoolchain\arm-none-eabi\include\c++\10.2.1\cmath ****     { return __builtin_exp(__x); }
 236:c:\program files\daisytoolchain\arm-none-eabi\include\c++\10.2.1\cmath **** 
 237:c:\program files\daisytoolchain\arm-none-eabi\include\c++\10.2.1\cmath ****   using ::fabs;
 238:c:\program files\daisytoolchain\arm-none-eabi\include\c++\10.2.1\cmath **** 
 239:c:\program files\daisytoolchain\arm-none-eabi\include\c++\10.2.1\cmath **** #ifndef __CORRECT_ISO_CPP_MATH_H_PROTO
 240:c:\program files\daisytoolchain\arm-none-eabi\include\c++\10.2.1\cmath ****   inline _GLIBCXX_CONSTEXPR float
 241:c:\program files\daisytoolchain\arm-none-eabi\include\c++\10.2.1\cmath ****   fabs(float __x)
 242:c:\program files\daisytoolchain\arm-none-eabi\include\c++\10.2.1\cmath ****   { return __builtin_fabsf(__x); }
 243:c:\program files\daisytoolchain\arm-none-eabi\include\c++\10.2.1\cmath **** 
 244:c:\program files\daisytoolchain\arm-none-eabi\include\c++\10.2.1\cmath ****   inline _GLIBCXX_CONSTEXPR long double
ARM GAS  C:\Users\Miguel\AppData\Local\Temp\ccDAyH9H.s 			page 22


 245:c:\program files\daisytoolchain\arm-none-eabi\include\c++\10.2.1\cmath ****   fabs(long double __x)
 246:c:\program files\daisytoolchain\arm-none-eabi\include\c++\10.2.1\cmath ****   { return __builtin_fabsl(__x); }
 247:c:\program files\daisytoolchain\arm-none-eabi\include\c++\10.2.1\cmath **** #endif
 248:c:\program files\daisytoolchain\arm-none-eabi\include\c++\10.2.1\cmath **** 
 249:c:\program files\daisytoolchain\arm-none-eabi\include\c++\10.2.1\cmath ****   template<typename _Tp>
 250:c:\program files\daisytoolchain\arm-none-eabi\include\c++\10.2.1\cmath ****     inline _GLIBCXX_CONSTEXPR
 251:c:\program files\daisytoolchain\arm-none-eabi\include\c++\10.2.1\cmath ****     typename __gnu_cxx::__enable_if<__is_integer<_Tp>::__value,
 252:c:\program files\daisytoolchain\arm-none-eabi\include\c++\10.2.1\cmath ****                                     double>::__type
 253:c:\program files\daisytoolchain\arm-none-eabi\include\c++\10.2.1\cmath ****     fabs(_Tp __x)
 254:c:\program files\daisytoolchain\arm-none-eabi\include\c++\10.2.1\cmath ****     { return __builtin_fabs(__x); }
 255:c:\program files\daisytoolchain\arm-none-eabi\include\c++\10.2.1\cmath **** 
 256:c:\program files\daisytoolchain\arm-none-eabi\include\c++\10.2.1\cmath ****   using ::floor;
 257:c:\program files\daisytoolchain\arm-none-eabi\include\c++\10.2.1\cmath **** 
 258:c:\program files\daisytoolchain\arm-none-eabi\include\c++\10.2.1\cmath **** #ifndef __CORRECT_ISO_CPP_MATH_H_PROTO
 259:c:\program files\daisytoolchain\arm-none-eabi\include\c++\10.2.1\cmath ****   inline _GLIBCXX_CONSTEXPR float
 260:c:\program files\daisytoolchain\arm-none-eabi\include\c++\10.2.1\cmath ****   floor(float __x)
 261:c:\program files\daisytoolchain\arm-none-eabi\include\c++\10.2.1\cmath ****   { return __builtin_floorf(__x); }
 262:c:\program files\daisytoolchain\arm-none-eabi\include\c++\10.2.1\cmath **** 
 263:c:\program files\daisytoolchain\arm-none-eabi\include\c++\10.2.1\cmath ****   inline _GLIBCXX_CONSTEXPR long double
 264:c:\program files\daisytoolchain\arm-none-eabi\include\c++\10.2.1\cmath ****   floor(long double __x)
 265:c:\program files\daisytoolchain\arm-none-eabi\include\c++\10.2.1\cmath ****   { return __builtin_floorl(__x); }
 266:c:\program files\daisytoolchain\arm-none-eabi\include\c++\10.2.1\cmath **** #endif
 267:c:\program files\daisytoolchain\arm-none-eabi\include\c++\10.2.1\cmath **** 
 268:c:\program files\daisytoolchain\arm-none-eabi\include\c++\10.2.1\cmath ****   template<typename _Tp>
 269:c:\program files\daisytoolchain\arm-none-eabi\include\c++\10.2.1\cmath ****     inline _GLIBCXX_CONSTEXPR
 270:c:\program files\daisytoolchain\arm-none-eabi\include\c++\10.2.1\cmath ****     typename __gnu_cxx::__enable_if<__is_integer<_Tp>::__value,
 271:c:\program files\daisytoolchain\arm-none-eabi\include\c++\10.2.1\cmath ****                                     double>::__type
 272:c:\program files\daisytoolchain\arm-none-eabi\include\c++\10.2.1\cmath ****     floor(_Tp __x)
 273:c:\program files\daisytoolchain\arm-none-eabi\include\c++\10.2.1\cmath ****     { return __builtin_floor(__x); }
 274:c:\program files\daisytoolchain\arm-none-eabi\include\c++\10.2.1\cmath **** 
 275:c:\program files\daisytoolchain\arm-none-eabi\include\c++\10.2.1\cmath ****   using ::fmod;
 276:c:\program files\daisytoolchain\arm-none-eabi\include\c++\10.2.1\cmath **** 
 277:c:\program files\daisytoolchain\arm-none-eabi\include\c++\10.2.1\cmath **** #ifndef __CORRECT_ISO_CPP_MATH_H_PROTO
 278:c:\program files\daisytoolchain\arm-none-eabi\include\c++\10.2.1\cmath ****   inline _GLIBCXX_CONSTEXPR float
 279:c:\program files\daisytoolchain\arm-none-eabi\include\c++\10.2.1\cmath ****   fmod(float __x, float __y)
 280:c:\program files\daisytoolchain\arm-none-eabi\include\c++\10.2.1\cmath ****   { return __builtin_fmodf(__x, __y); }
 281:c:\program files\daisytoolchain\arm-none-eabi\include\c++\10.2.1\cmath **** 
 282:c:\program files\daisytoolchain\arm-none-eabi\include\c++\10.2.1\cmath ****   inline _GLIBCXX_CONSTEXPR long double
 283:c:\program files\daisytoolchain\arm-none-eabi\include\c++\10.2.1\cmath ****   fmod(long double __x, long double __y)
 284:c:\program files\daisytoolchain\arm-none-eabi\include\c++\10.2.1\cmath ****   { return __builtin_fmodl(__x, __y); }
 285:c:\program files\daisytoolchain\arm-none-eabi\include\c++\10.2.1\cmath **** #endif
 286:c:\program files\daisytoolchain\arm-none-eabi\include\c++\10.2.1\cmath **** 
 287:c:\program files\daisytoolchain\arm-none-eabi\include\c++\10.2.1\cmath ****   template<typename _Tp, typename _Up>
 288:c:\program files\daisytoolchain\arm-none-eabi\include\c++\10.2.1\cmath ****     inline _GLIBCXX_CONSTEXPR
 289:c:\program files\daisytoolchain\arm-none-eabi\include\c++\10.2.1\cmath ****     typename __gnu_cxx::__promote_2<_Tp, _Up>::__type
 290:c:\program files\daisytoolchain\arm-none-eabi\include\c++\10.2.1\cmath ****     fmod(_Tp __x, _Up __y)
 291:c:\program files\daisytoolchain\arm-none-eabi\include\c++\10.2.1\cmath ****     {
 292:c:\program files\daisytoolchain\arm-none-eabi\include\c++\10.2.1\cmath ****       typedef typename __gnu_cxx::__promote_2<_Tp, _Up>::__type __type;
 293:c:\program files\daisytoolchain\arm-none-eabi\include\c++\10.2.1\cmath ****       return fmod(__type(__x), __type(__y));
 294:c:\program files\daisytoolchain\arm-none-eabi\include\c++\10.2.1\cmath ****     }
 295:c:\program files\daisytoolchain\arm-none-eabi\include\c++\10.2.1\cmath **** 
 296:c:\program files\daisytoolchain\arm-none-eabi\include\c++\10.2.1\cmath ****   using ::frexp;
 297:c:\program files\daisytoolchain\arm-none-eabi\include\c++\10.2.1\cmath **** 
 298:c:\program files\daisytoolchain\arm-none-eabi\include\c++\10.2.1\cmath **** #ifndef __CORRECT_ISO_CPP_MATH_H_PROTO
 299:c:\program files\daisytoolchain\arm-none-eabi\include\c++\10.2.1\cmath ****   inline float
 300:c:\program files\daisytoolchain\arm-none-eabi\include\c++\10.2.1\cmath ****   frexp(float __x, int* __exp)
 301:c:\program files\daisytoolchain\arm-none-eabi\include\c++\10.2.1\cmath ****   { return __builtin_frexpf(__x, __exp); }
ARM GAS  C:\Users\Miguel\AppData\Local\Temp\ccDAyH9H.s 			page 23


 302:c:\program files\daisytoolchain\arm-none-eabi\include\c++\10.2.1\cmath **** 
 303:c:\program files\daisytoolchain\arm-none-eabi\include\c++\10.2.1\cmath ****   inline long double
 304:c:\program files\daisytoolchain\arm-none-eabi\include\c++\10.2.1\cmath ****   frexp(long double __x, int* __exp)
 305:c:\program files\daisytoolchain\arm-none-eabi\include\c++\10.2.1\cmath ****   { return __builtin_frexpl(__x, __exp); }
 306:c:\program files\daisytoolchain\arm-none-eabi\include\c++\10.2.1\cmath **** #endif
 307:c:\program files\daisytoolchain\arm-none-eabi\include\c++\10.2.1\cmath **** 
 308:c:\program files\daisytoolchain\arm-none-eabi\include\c++\10.2.1\cmath ****   template<typename _Tp>
 309:c:\program files\daisytoolchain\arm-none-eabi\include\c++\10.2.1\cmath ****     inline _GLIBCXX_CONSTEXPR
 310:c:\program files\daisytoolchain\arm-none-eabi\include\c++\10.2.1\cmath ****     typename __gnu_cxx::__enable_if<__is_integer<_Tp>::__value, 
 311:c:\program files\daisytoolchain\arm-none-eabi\include\c++\10.2.1\cmath ****                                     double>::__type
 312:c:\program files\daisytoolchain\arm-none-eabi\include\c++\10.2.1\cmath ****     frexp(_Tp __x, int* __exp)
 313:c:\program files\daisytoolchain\arm-none-eabi\include\c++\10.2.1\cmath ****     { return __builtin_frexp(__x, __exp); }
 314:c:\program files\daisytoolchain\arm-none-eabi\include\c++\10.2.1\cmath **** 
 315:c:\program files\daisytoolchain\arm-none-eabi\include\c++\10.2.1\cmath ****   using ::ldexp;
 316:c:\program files\daisytoolchain\arm-none-eabi\include\c++\10.2.1\cmath **** 
 317:c:\program files\daisytoolchain\arm-none-eabi\include\c++\10.2.1\cmath **** #ifndef __CORRECT_ISO_CPP_MATH_H_PROTO
 318:c:\program files\daisytoolchain\arm-none-eabi\include\c++\10.2.1\cmath ****   inline _GLIBCXX_CONSTEXPR float
 319:c:\program files\daisytoolchain\arm-none-eabi\include\c++\10.2.1\cmath ****   ldexp(float __x, int __exp)
 320:c:\program files\daisytoolchain\arm-none-eabi\include\c++\10.2.1\cmath ****   { return __builtin_ldexpf(__x, __exp); }
 321:c:\program files\daisytoolchain\arm-none-eabi\include\c++\10.2.1\cmath **** 
 322:c:\program files\daisytoolchain\arm-none-eabi\include\c++\10.2.1\cmath ****   inline _GLIBCXX_CONSTEXPR long double
 323:c:\program files\daisytoolchain\arm-none-eabi\include\c++\10.2.1\cmath ****   ldexp(long double __x, int __exp)
 324:c:\program files\daisytoolchain\arm-none-eabi\include\c++\10.2.1\cmath ****   { return __builtin_ldexpl(__x, __exp); }
 325:c:\program files\daisytoolchain\arm-none-eabi\include\c++\10.2.1\cmath **** #endif
 326:c:\program files\daisytoolchain\arm-none-eabi\include\c++\10.2.1\cmath **** 
 327:c:\program files\daisytoolchain\arm-none-eabi\include\c++\10.2.1\cmath ****   template<typename _Tp>
 328:c:\program files\daisytoolchain\arm-none-eabi\include\c++\10.2.1\cmath ****     inline _GLIBCXX_CONSTEXPR
 329:c:\program files\daisytoolchain\arm-none-eabi\include\c++\10.2.1\cmath ****     typename __gnu_cxx::__enable_if<__is_integer<_Tp>::__value, 
 330:c:\program files\daisytoolchain\arm-none-eabi\include\c++\10.2.1\cmath ****                                     double>::__type
 331:c:\program files\daisytoolchain\arm-none-eabi\include\c++\10.2.1\cmath ****     ldexp(_Tp __x, int __exp)
 332:c:\program files\daisytoolchain\arm-none-eabi\include\c++\10.2.1\cmath ****     { return __builtin_ldexp(__x, __exp); }
 333:c:\program files\daisytoolchain\arm-none-eabi\include\c++\10.2.1\cmath **** 
 334:c:\program files\daisytoolchain\arm-none-eabi\include\c++\10.2.1\cmath ****   using ::log;
 335:c:\program files\daisytoolchain\arm-none-eabi\include\c++\10.2.1\cmath **** 
 336:c:\program files\daisytoolchain\arm-none-eabi\include\c++\10.2.1\cmath **** #ifndef __CORRECT_ISO_CPP_MATH_H_PROTO
 337:c:\program files\daisytoolchain\arm-none-eabi\include\c++\10.2.1\cmath ****   inline _GLIBCXX_CONSTEXPR float
 338:c:\program files\daisytoolchain\arm-none-eabi\include\c++\10.2.1\cmath ****   log(float __x)
 339:c:\program files\daisytoolchain\arm-none-eabi\include\c++\10.2.1\cmath ****   { return __builtin_logf(__x); }
 340:c:\program files\daisytoolchain\arm-none-eabi\include\c++\10.2.1\cmath **** 
 341:c:\program files\daisytoolchain\arm-none-eabi\include\c++\10.2.1\cmath ****   inline _GLIBCXX_CONSTEXPR long double
 342:c:\program files\daisytoolchain\arm-none-eabi\include\c++\10.2.1\cmath ****   log(long double __x)
 343:c:\program files\daisytoolchain\arm-none-eabi\include\c++\10.2.1\cmath ****   { return __builtin_logl(__x); }
 344:c:\program files\daisytoolchain\arm-none-eabi\include\c++\10.2.1\cmath **** #endif
 345:c:\program files\daisytoolchain\arm-none-eabi\include\c++\10.2.1\cmath **** 
 346:c:\program files\daisytoolchain\arm-none-eabi\include\c++\10.2.1\cmath ****   template<typename _Tp>
 347:c:\program files\daisytoolchain\arm-none-eabi\include\c++\10.2.1\cmath ****     inline _GLIBCXX_CONSTEXPR
 348:c:\program files\daisytoolchain\arm-none-eabi\include\c++\10.2.1\cmath ****     typename __gnu_cxx::__enable_if<__is_integer<_Tp>::__value, 
 349:c:\program files\daisytoolchain\arm-none-eabi\include\c++\10.2.1\cmath ****                                     double>::__type
 350:c:\program files\daisytoolchain\arm-none-eabi\include\c++\10.2.1\cmath ****     log(_Tp __x)
 351:c:\program files\daisytoolchain\arm-none-eabi\include\c++\10.2.1\cmath ****     { return __builtin_log(__x); }
 352:c:\program files\daisytoolchain\arm-none-eabi\include\c++\10.2.1\cmath **** 
 353:c:\program files\daisytoolchain\arm-none-eabi\include\c++\10.2.1\cmath ****   using ::log10;
 354:c:\program files\daisytoolchain\arm-none-eabi\include\c++\10.2.1\cmath **** 
 355:c:\program files\daisytoolchain\arm-none-eabi\include\c++\10.2.1\cmath **** #ifndef __CORRECT_ISO_CPP_MATH_H_PROTO
 356:c:\program files\daisytoolchain\arm-none-eabi\include\c++\10.2.1\cmath ****   inline _GLIBCXX_CONSTEXPR float
 357:c:\program files\daisytoolchain\arm-none-eabi\include\c++\10.2.1\cmath ****   log10(float __x)
 358:c:\program files\daisytoolchain\arm-none-eabi\include\c++\10.2.1\cmath ****   { return __builtin_log10f(__x); }
ARM GAS  C:\Users\Miguel\AppData\Local\Temp\ccDAyH9H.s 			page 24


 359:c:\program files\daisytoolchain\arm-none-eabi\include\c++\10.2.1\cmath **** 
 360:c:\program files\daisytoolchain\arm-none-eabi\include\c++\10.2.1\cmath ****   inline _GLIBCXX_CONSTEXPR long double
 361:c:\program files\daisytoolchain\arm-none-eabi\include\c++\10.2.1\cmath ****   log10(long double __x)
 362:c:\program files\daisytoolchain\arm-none-eabi\include\c++\10.2.1\cmath ****   { return __builtin_log10l(__x); }
 363:c:\program files\daisytoolchain\arm-none-eabi\include\c++\10.2.1\cmath **** #endif
 364:c:\program files\daisytoolchain\arm-none-eabi\include\c++\10.2.1\cmath **** 
 365:c:\program files\daisytoolchain\arm-none-eabi\include\c++\10.2.1\cmath ****   template<typename _Tp>
 366:c:\program files\daisytoolchain\arm-none-eabi\include\c++\10.2.1\cmath ****     inline _GLIBCXX_CONSTEXPR
 367:c:\program files\daisytoolchain\arm-none-eabi\include\c++\10.2.1\cmath ****     typename __gnu_cxx::__enable_if<__is_integer<_Tp>::__value,
 368:c:\program files\daisytoolchain\arm-none-eabi\include\c++\10.2.1\cmath ****                                     double>::__type
 369:c:\program files\daisytoolchain\arm-none-eabi\include\c++\10.2.1\cmath ****     log10(_Tp __x)
 370:c:\program files\daisytoolchain\arm-none-eabi\include\c++\10.2.1\cmath ****     { return __builtin_log10(__x); }
 371:c:\program files\daisytoolchain\arm-none-eabi\include\c++\10.2.1\cmath **** 
 372:c:\program files\daisytoolchain\arm-none-eabi\include\c++\10.2.1\cmath ****   using ::modf;
 373:c:\program files\daisytoolchain\arm-none-eabi\include\c++\10.2.1\cmath **** 
 374:c:\program files\daisytoolchain\arm-none-eabi\include\c++\10.2.1\cmath **** #ifndef __CORRECT_ISO_CPP_MATH_H_PROTO
 375:c:\program files\daisytoolchain\arm-none-eabi\include\c++\10.2.1\cmath ****   inline float
 376:c:\program files\daisytoolchain\arm-none-eabi\include\c++\10.2.1\cmath ****   modf(float __x, float* __iptr)
 377:c:\program files\daisytoolchain\arm-none-eabi\include\c++\10.2.1\cmath ****   { return __builtin_modff(__x, __iptr); }
 378:c:\program files\daisytoolchain\arm-none-eabi\include\c++\10.2.1\cmath **** 
 379:c:\program files\daisytoolchain\arm-none-eabi\include\c++\10.2.1\cmath ****   inline long double
 380:c:\program files\daisytoolchain\arm-none-eabi\include\c++\10.2.1\cmath ****   modf(long double __x, long double* __iptr)
 381:c:\program files\daisytoolchain\arm-none-eabi\include\c++\10.2.1\cmath ****   { return __builtin_modfl(__x, __iptr); }
 382:c:\program files\daisytoolchain\arm-none-eabi\include\c++\10.2.1\cmath **** #endif
 383:c:\program files\daisytoolchain\arm-none-eabi\include\c++\10.2.1\cmath **** 
 384:c:\program files\daisytoolchain\arm-none-eabi\include\c++\10.2.1\cmath ****   using ::pow;
 385:c:\program files\daisytoolchain\arm-none-eabi\include\c++\10.2.1\cmath **** 
 386:c:\program files\daisytoolchain\arm-none-eabi\include\c++\10.2.1\cmath **** #ifndef __CORRECT_ISO_CPP_MATH_H_PROTO
 387:c:\program files\daisytoolchain\arm-none-eabi\include\c++\10.2.1\cmath ****   inline _GLIBCXX_CONSTEXPR float
 388:c:\program files\daisytoolchain\arm-none-eabi\include\c++\10.2.1\cmath ****   pow(float __x, float __y)
 389:c:\program files\daisytoolchain\arm-none-eabi\include\c++\10.2.1\cmath ****   { return __builtin_powf(__x, __y); }
 390:c:\program files\daisytoolchain\arm-none-eabi\include\c++\10.2.1\cmath **** 
 391:c:\program files\daisytoolchain\arm-none-eabi\include\c++\10.2.1\cmath ****   inline _GLIBCXX_CONSTEXPR long double
 392:c:\program files\daisytoolchain\arm-none-eabi\include\c++\10.2.1\cmath ****   pow(long double __x, long double __y)
 393:c:\program files\daisytoolchain\arm-none-eabi\include\c++\10.2.1\cmath ****   { return __builtin_powl(__x, __y); }
 394:c:\program files\daisytoolchain\arm-none-eabi\include\c++\10.2.1\cmath **** 
 395:c:\program files\daisytoolchain\arm-none-eabi\include\c++\10.2.1\cmath **** #if __cplusplus < 201103L
 396:c:\program files\daisytoolchain\arm-none-eabi\include\c++\10.2.1\cmath ****   // _GLIBCXX_RESOLVE_LIB_DEFECTS
 397:c:\program files\daisytoolchain\arm-none-eabi\include\c++\10.2.1\cmath ****   // DR 550. What should the return type of pow(float,int) be?
 398:c:\program files\daisytoolchain\arm-none-eabi\include\c++\10.2.1\cmath ****   inline double
 399:c:\program files\daisytoolchain\arm-none-eabi\include\c++\10.2.1\cmath ****   pow(double __x, int __i)
 400:c:\program files\daisytoolchain\arm-none-eabi\include\c++\10.2.1\cmath ****   { return __builtin_powi(__x, __i); }
 401:c:\program files\daisytoolchain\arm-none-eabi\include\c++\10.2.1\cmath **** 
 402:c:\program files\daisytoolchain\arm-none-eabi\include\c++\10.2.1\cmath ****   inline float
 403:c:\program files\daisytoolchain\arm-none-eabi\include\c++\10.2.1\cmath ****   pow(float __x, int __n)
 404:c:\program files\daisytoolchain\arm-none-eabi\include\c++\10.2.1\cmath ****   { return __builtin_powif(__x, __n); }
 405:c:\program files\daisytoolchain\arm-none-eabi\include\c++\10.2.1\cmath **** 
 406:c:\program files\daisytoolchain\arm-none-eabi\include\c++\10.2.1\cmath ****   inline long double
 407:c:\program files\daisytoolchain\arm-none-eabi\include\c++\10.2.1\cmath ****   pow(long double __x, int __n)
 408:c:\program files\daisytoolchain\arm-none-eabi\include\c++\10.2.1\cmath ****   { return __builtin_powil(__x, __n); }
 409:c:\program files\daisytoolchain\arm-none-eabi\include\c++\10.2.1\cmath **** #endif
 410:c:\program files\daisytoolchain\arm-none-eabi\include\c++\10.2.1\cmath **** #endif
 411:c:\program files\daisytoolchain\arm-none-eabi\include\c++\10.2.1\cmath **** 
 412:c:\program files\daisytoolchain\arm-none-eabi\include\c++\10.2.1\cmath ****   template<typename _Tp, typename _Up>
 413:c:\program files\daisytoolchain\arm-none-eabi\include\c++\10.2.1\cmath ****     inline _GLIBCXX_CONSTEXPR
 414:c:\program files\daisytoolchain\arm-none-eabi\include\c++\10.2.1\cmath ****     typename __gnu_cxx::__promote_2<_Tp, _Up>::__type
 415:c:\program files\daisytoolchain\arm-none-eabi\include\c++\10.2.1\cmath ****     pow(_Tp __x, _Up __y)
ARM GAS  C:\Users\Miguel\AppData\Local\Temp\ccDAyH9H.s 			page 25


 348              		.loc 12 415 5 view .LVU69
 349              	.LBE199:
  41:oscillator.cpp ****     
 350              		.loc 11 41 30 is_stmt 0 view .LVU70
 351 0000 07EE900A 		vmov	s15, r0	@ int
  41:oscillator.cpp ****     
 352              		.loc 11 41 11 view .LVU71
 353 0004 DFED0A6A 		vldr.32	s13, .L22
 354              		.loc 11 44 36 view .LVU72
 355 0008 30EEC06A 		vsub.f32	s12, s1, s0
  41:oscillator.cpp ****     
 356              		.loc 11 41 30 view .LVU73
 357 000c F8EEE77A 		vcvt.f32.s32	s15, s15
 358              		.loc 11 44 77 view .LVU74
 359 0010 B7EEC00A 		vcvt.f64.f32	d0, s0
 360              	.LVL16:
  41:oscillator.cpp ****     
 361              		.loc 11 41 11 view .LVU75
 362 0014 87EEA67A 		vdiv.f32	s14, s15, s13
 363              	.LVL17:
 364              		.loc 11 44 36 view .LVU76
 365 0018 B7EEC66A 		vcvt.f64.f32	d6, s12
 366              	.LBB201:
 367              	.LBB200:
 416:c:\program files\daisytoolchain\arm-none-eabi\include\c++\10.2.1\cmath ****     {
 417:c:\program files\daisytoolchain\arm-none-eabi\include\c++\10.2.1\cmath ****       typedef typename __gnu_cxx::__promote_2<_Tp, _Up>::__type __type;
 418:c:\program files\daisytoolchain\arm-none-eabi\include\c++\10.2.1\cmath ****       return pow(__type(__x), __type(__y));
 368              		.loc 12 418 17 view .LVU77
 369 001c B7EEC77A 		vcvt.f64.f32	d7, s14
 370              	.LVL18:
 371              		.loc 12 418 17 view .LVU78
 372 0020 27EE077B 		vmul.f64	d7, d7, d7
 373              	.LBE200:
 374              	.LBE201:
 375              		.loc 11 44 75 view .LVU79
 376 0024 A6EE070B 		vfma.f64	d0, d6, d7
 377              	.LVL19:
  45:oscillator.cpp ****     
  46:oscillator.cpp ****     return scaled_value;
 378              		.loc 11 46 5 is_stmt 1 view .LVU80
  47:oscillator.cpp **** }
 379              		.loc 11 47 1 is_stmt 0 view .LVU81
 380 0028 B7EEC00B 		vcvt.f32.f64	s0, d0
 381              	.LVL20:
 382              		.loc 11 47 1 view .LVU82
 383 002c 7047     		bx	lr
 384              	.L23:
 385 002e 00BF     		.align	2
 386              	.L22:
 387 0030 00FE7F47 		.word	1199570432
 388              		.cfi_endproc
 389              	.LFE4847:
 391              		.section	.text._Z14changeWaveFormv,"ax",%progbits
 392              		.align	1
 393              		.p2align 2,,3
 394              		.global	_Z14changeWaveFormv
 395              		.syntax unified
ARM GAS  C:\Users\Miguel\AppData\Local\Temp\ccDAyH9H.s 			page 26


 396              		.thumb
 397              		.thumb_func
 398              		.fpu fpv5-d16
 400              	_Z14changeWaveFormv:
 401              	.LFB4848:
  48:oscillator.cpp **** 
  49:oscillator.cpp **** void changeWaveForm() 
  50:oscillator.cpp **** {
 402              		.loc 11 50 1 is_stmt 1 view -0
 403              		.cfi_startproc
 404              		@ args = 0, pretend = 0, frame = 0
 405              		@ frame_needed = 0, uses_anonymous_args = 0
  51:oscillator.cpp ****     switch(toggleWaveForm.Read())
 406              		.loc 11 51 5 view .LVU84
 407              	.LVL21:
 408              	.LBB222:
 409              	.LBI222:
  22:../../../libDaisy/src/hid/switch3.h **** 
  23:../../../libDaisy/src/hid/switch3.h ****     void Init(dsy_gpio_pin pina, dsy_gpio_pin pinb)
  24:../../../libDaisy/src/hid/switch3.h ****     {
  25:../../../libDaisy/src/hid/switch3.h ****         pina_gpio_.pin  = pina;
  26:../../../libDaisy/src/hid/switch3.h ****         pina_gpio_.mode = DSY_GPIO_MODE_INPUT;
  27:../../../libDaisy/src/hid/switch3.h ****         pina_gpio_.pull = DSY_GPIO_PULLUP;
  28:../../../libDaisy/src/hid/switch3.h ****         dsy_gpio_init(&pina_gpio_);
  29:../../../libDaisy/src/hid/switch3.h **** 
  30:../../../libDaisy/src/hid/switch3.h ****         pinb_gpio_.pin  = pinb;
  31:../../../libDaisy/src/hid/switch3.h ****         pinb_gpio_.mode = DSY_GPIO_MODE_INPUT;
  32:../../../libDaisy/src/hid/switch3.h ****         pinb_gpio_.pull = DSY_GPIO_PULLUP;
  33:../../../libDaisy/src/hid/switch3.h ****         dsy_gpio_init(&pinb_gpio_);
  34:../../../libDaisy/src/hid/switch3.h ****     }
  35:../../../libDaisy/src/hid/switch3.h **** 
  36:../../../libDaisy/src/hid/switch3.h ****     int Read()
 410              		.loc 1 36 9 view .LVU85
 411              	.LBB223:
  37:../../../libDaisy/src/hid/switch3.h ****     {
  38:../../../libDaisy/src/hid/switch3.h ****         if(!dsy_gpio_read(&pina_gpio_))
 412              		.loc 1 38 9 view .LVU86
 413              	.LBE223:
 414              	.LBE222:
  50:oscillator.cpp ****     switch(toggleWaveForm.Read())
 415              		.loc 11 50 1 is_stmt 0 view .LVU87
 416 0000 10B5     		push	{r4, lr}
 417              		.cfi_def_cfa_offset 8
 418              		.cfi_offset 4, -8
 419              		.cfi_offset 14, -4
 420              	.LBB234:
 421              	.LBB230:
 422              		.loc 1 38 26 view .LVU88
 423 0002 1348     		ldr	r0, .L33
 424 0004 FFF7FEFF 		bl	dsy_gpio_read
 425              	.LVL22:
 426              		.loc 1 38 9 view .LVU89
 427 0008 48B9     		cbnz	r0, .L25
 428              	.LVL23:
 429              		.loc 1 38 9 view .LVU90
 430              	.LBE230:
 431              	.LBE234:
ARM GAS  C:\Users\Miguel\AppData\Local\Temp\ccDAyH9H.s 			page 27


  52:oscillator.cpp ****     {
  53:oscillator.cpp ****         case Switch3::POS_UP: oscillator.SetWaveform(oscillator.WAVE_SQUARE); break;
 432              		.loc 11 53 9 is_stmt 1 view .LVU91
 433              		.loc 11 53 31 view .LVU92
 434              	.LBB235:
 435              	.LBI235:
  63:../../../DaisySP/Source/Synthesis/oscillator.h **** 
  64:../../../DaisySP/Source/Synthesis/oscillator.h **** 
  65:../../../DaisySP/Source/Synthesis/oscillator.h ****     /** Changes the frequency of the Oscillator, and recalculates phase increment.
  66:../../../DaisySP/Source/Synthesis/oscillator.h ****     */
  67:../../../DaisySP/Source/Synthesis/oscillator.h ****     inline void SetFreq(const float f)
  68:../../../DaisySP/Source/Synthesis/oscillator.h ****     {
  69:../../../DaisySP/Source/Synthesis/oscillator.h ****         freq_      = f;
  70:../../../DaisySP/Source/Synthesis/oscillator.h ****         phase_inc_ = CalcPhaseInc(f);
  71:../../../DaisySP/Source/Synthesis/oscillator.h ****     }
  72:../../../DaisySP/Source/Synthesis/oscillator.h **** 
  73:../../../DaisySP/Source/Synthesis/oscillator.h **** 
  74:../../../DaisySP/Source/Synthesis/oscillator.h ****     /** Sets the amplitude of the waveform.
  75:../../../DaisySP/Source/Synthesis/oscillator.h ****     */
  76:../../../DaisySP/Source/Synthesis/oscillator.h ****     inline void SetAmp(const float a) { amp_ = a; }
  77:../../../DaisySP/Source/Synthesis/oscillator.h ****     /** Sets the waveform to be synthesized by the Process() function.
  78:../../../DaisySP/Source/Synthesis/oscillator.h ****     */
  79:../../../DaisySP/Source/Synthesis/oscillator.h ****     inline void SetWaveform(const uint8_t wf)
 436              		.loc 8 79 17 view .LVU93
 437              	.LBB236:
  80:../../../DaisySP/Source/Synthesis/oscillator.h ****     {
  81:../../../DaisySP/Source/Synthesis/oscillator.h ****         waveform_ = wf < WAVE_LAST ? wf : WAVE_SIN;
 438              		.loc 8 81 9 view .LVU94
 439              		.loc 8 81 19 is_stmt 0 view .LVU95
 440 000a 124C     		ldr	r4, .L33+4
 441 000c 0423     		movs	r3, #4
 442 000e 2370     		strb	r3, [r4]
 443              	.LVL24:
 444              	.L26:
 445              		.loc 8 81 19 view .LVU96
 446              	.LBE236:
 447              	.LBE235:
  54:oscillator.cpp ****         case Switch3::POS_CENTER: oscillator.SetWaveform(oscillator.WAVE_POLYBLEP_SAW); break;
  55:oscillator.cpp ****         case Switch3::POS_DOWN: oscillator.SetWaveform(oscillator.WAVE_TRI); break;
  56:oscillator.cpp ****     }
  57:oscillator.cpp **** 
  58:oscillator.cpp ****     switch(toggleWaveForm2.Read())
 448              		.loc 11 58 5 is_stmt 1 view .LVU97
 449              	.LBB237:
 450              	.LBI237:
  36:../../../libDaisy/src/hid/switch3.h ****     {
 451              		.loc 1 36 9 view .LVU98
 452              	.LBB238:
 453              		.loc 1 38 9 view .LVU99
 454              		.loc 1 38 26 is_stmt 0 view .LVU100
 455 0010 1148     		ldr	r0, .L33+8
 456 0012 FFF7FEFF 		bl	dsy_gpio_read
 457              	.LVL25:
 458              		.loc 1 38 9 view .LVU101
 459 0016 70B9     		cbnz	r0, .L32
 460              	.L28:
 461              	.LVL26:
ARM GAS  C:\Users\Miguel\AppData\Local\Temp\ccDAyH9H.s 			page 28


 462              		.loc 1 38 9 view .LVU102
 463              	.LBE238:
 464              	.LBE237:
  59:oscillator.cpp ****     {
  60:oscillator.cpp ****         case Switch3::POS_UP: oscillator.SetWaveform(lfo.WAVE_SQUARE); break;
 465              		.loc 11 60 9 is_stmt 1 view .LVU103
 466              		.loc 11 60 31 view .LVU104
 467              	.LBB246:
 468              	.LBI246:
  79:../../../DaisySP/Source/Synthesis/oscillator.h ****     {
 469              		.loc 8 79 17 view .LVU105
 470              	.LBB247:
 471              		.loc 8 81 9 view .LVU106
 472              		.loc 8 81 19 is_stmt 0 view .LVU107
 473 0018 0423     		movs	r3, #4
 474 001a 2370     		strb	r3, [r4]
 475              	.LVL27:
 476              		.loc 8 81 19 view .LVU108
 477              	.LBE247:
 478              	.LBE246:
  61:oscillator.cpp ****         case Switch3::POS_CENTER: oscillator.SetWaveform(lfo.WAVE_POLYBLEP_SAW); break;
  62:oscillator.cpp ****         case Switch3::POS_DOWN: oscillator.SetWaveform(lfo.WAVE_TRI); break;
  63:oscillator.cpp ****     }
  64:oscillator.cpp **** }
 479              		.loc 11 64 1 view .LVU109
 480 001c 10BD     		pop	{r4, pc}
 481              	.LVL28:
 482              	.L25:
 483              	.LBB248:
 484              	.LBB231:
 485              	.LBB224:
 486              	.LBI224:
  36:../../../libDaisy/src/hid/switch3.h ****     {
 487              		.loc 1 36 9 is_stmt 1 view .LVU110
 488              	.LBB225:
  39:../../../libDaisy/src/hid/switch3.h ****             return POS_UP;
  40:../../../libDaisy/src/hid/switch3.h ****         if(!dsy_gpio_read(&pinb_gpio_))
 489              		.loc 1 40 9 view .LVU111
 490              		.loc 1 40 26 is_stmt 0 view .LVU112
 491 001e 0F48     		ldr	r0, .L33+12
 492              	.LBE225:
 493              	.LBE224:
 494              	.LBE231:
 495              	.LBE248:
 496              	.LBB249:
 497              	.LBB250:
 498              		.loc 8 81 19 view .LVU113
 499 0020 0C4C     		ldr	r4, .L33+4
 500              	.LBE250:
 501              	.LBE249:
 502              	.LBB252:
 503              	.LBB232:
 504              	.LBB228:
 505              	.LBB226:
 506              		.loc 1 40 26 view .LVU114
 507 0022 FFF7FEFF 		bl	dsy_gpio_read
 508              	.LVL29:
ARM GAS  C:\Users\Miguel\AppData\Local\Temp\ccDAyH9H.s 			page 29


 509              		.loc 1 40 9 view .LVU115
 510 0026 68B1     		cbz	r0, .L27
 511              	.LVL30:
 512              		.loc 1 40 9 view .LVU116
 513              	.LBE226:
 514              	.LBE228:
 515              	.LBE232:
 516              	.LBE252:
  54:oscillator.cpp ****         case Switch3::POS_DOWN: oscillator.SetWaveform(oscillator.WAVE_TRI); break;
 517              		.loc 11 54 9 is_stmt 1 view .LVU117
  54:oscillator.cpp ****         case Switch3::POS_DOWN: oscillator.SetWaveform(oscillator.WAVE_TRI); break;
 518              		.loc 11 54 35 view .LVU118
 519              	.LBB253:
 520              	.LBI253:
  79:../../../DaisySP/Source/Synthesis/oscillator.h ****     {
 521              		.loc 8 79 17 view .LVU119
 522              	.LBB254:
 523              		.loc 8 81 9 view .LVU120
 524              		.loc 8 81 19 is_stmt 0 view .LVU121
 525 0028 0623     		movs	r3, #6
 526              	.LBE254:
 527              	.LBE253:
 528              	.LBB256:
 529              	.LBB243:
  38:../../../libDaisy/src/hid/switch3.h ****             return POS_UP;
 530              		.loc 1 38 26 view .LVU122
 531 002a 0B48     		ldr	r0, .L33+8
 532              	.LBE243:
 533              	.LBE256:
 534              	.LBB257:
 535              	.LBB255:
 536              		.loc 8 81 19 view .LVU123
 537 002c 2370     		strb	r3, [r4]
 538              	.LVL31:
 539              		.loc 8 81 19 view .LVU124
 540              	.LBE255:
 541              	.LBE257:
  58:oscillator.cpp ****     {
 542              		.loc 11 58 5 is_stmt 1 view .LVU125
 543              	.LBB258:
  36:../../../libDaisy/src/hid/switch3.h ****     {
 544              		.loc 1 36 9 view .LVU126
 545              	.LBB244:
  38:../../../libDaisy/src/hid/switch3.h ****             return POS_UP;
 546              		.loc 1 38 9 view .LVU127
  38:../../../libDaisy/src/hid/switch3.h ****             return POS_UP;
 547              		.loc 1 38 26 is_stmt 0 view .LVU128
 548 002e FFF7FEFF 		bl	dsy_gpio_read
 549              	.LVL32:
  38:../../../libDaisy/src/hid/switch3.h ****             return POS_UP;
 550              		.loc 1 38 9 view .LVU129
 551 0032 0028     		cmp	r0, #0
 552 0034 F0D0     		beq	.L28
 553              	.L32:
 554              	.LVL33:
 555              	.LBB239:
 556              	.LBI239:
ARM GAS  C:\Users\Miguel\AppData\Local\Temp\ccDAyH9H.s 			page 30


  36:../../../libDaisy/src/hid/switch3.h ****     {
 557              		.loc 1 36 9 is_stmt 1 view .LVU130
 558              	.LBB240:
 559              		.loc 1 40 9 view .LVU131
 560              		.loc 1 40 26 is_stmt 0 view .LVU132
 561 0036 0A48     		ldr	r0, .L33+16
 562 0038 FFF7FEFF 		bl	dsy_gpio_read
 563              	.LVL34:
 564              		.loc 1 40 9 view .LVU133
 565 003c 28B1     		cbz	r0, .L29
 566              	.LVL35:
 567              		.loc 1 40 9 view .LVU134
 568              	.LBE240:
 569              	.LBE239:
 570              	.LBE244:
 571              	.LBE258:
  61:oscillator.cpp ****         case Switch3::POS_DOWN: oscillator.SetWaveform(lfo.WAVE_TRI); break;
 572              		.loc 11 61 9 is_stmt 1 view .LVU135
  61:oscillator.cpp ****         case Switch3::POS_DOWN: oscillator.SetWaveform(lfo.WAVE_TRI); break;
 573              		.loc 11 61 35 view .LVU136
 574              	.LBB259:
 575              	.LBI259:
  79:../../../DaisySP/Source/Synthesis/oscillator.h ****     {
 576              		.loc 8 79 17 view .LVU137
 577              	.LBB260:
 578              		.loc 8 81 9 view .LVU138
 579              		.loc 8 81 19 is_stmt 0 view .LVU139
 580 003e 0623     		movs	r3, #6
 581 0040 2370     		strb	r3, [r4]
 582              	.LBE260:
 583              	.LBE259:
 584              		.loc 11 64 1 view .LVU140
 585 0042 10BD     		pop	{r4, pc}
 586              	.LVL36:
 587              	.L27:
 588              	.LBB261:
 589              	.LBB233:
 590              	.LBB229:
 591              	.LBB227:
  41:../../../libDaisy/src/hid/switch3.h ****             return POS_DOWN;
 592              		.loc 1 41 13 is_stmt 1 view .LVU141
 593              		.loc 1 41 13 is_stmt 0 view .LVU142
 594              	.LBE227:
 595              	.LBE229:
 596              	.LBE233:
 597              	.LBE261:
  55:oscillator.cpp ****     }
 598              		.loc 11 55 9 is_stmt 1 view .LVU143
  55:oscillator.cpp ****     }
 599              		.loc 11 55 33 view .LVU144
 600              	.LBB262:
 601              	.LBI249:
  79:../../../DaisySP/Source/Synthesis/oscillator.h ****     {
 602              		.loc 8 79 17 view .LVU145
 603              	.LBB251:
 604              		.loc 8 81 9 view .LVU146
 605              		.loc 8 81 19 is_stmt 0 view .LVU147
ARM GAS  C:\Users\Miguel\AppData\Local\Temp\ccDAyH9H.s 			page 31


 606 0044 0123     		movs	r3, #1
 607 0046 2370     		strb	r3, [r4]
  82:../../../DaisySP/Source/Synthesis/oscillator.h ****     }
 608              		.loc 8 82 5 view .LVU148
 609 0048 E2E7     		b	.L26
 610              	.LVL37:
 611              	.L29:
 612              		.loc 8 82 5 view .LVU149
 613              	.LBE251:
 614              	.LBE262:
 615              	.LBB263:
 616              	.LBB245:
 617              	.LBB242:
 618              	.LBB241:
 619              		.loc 1 41 13 is_stmt 1 view .LVU150
 620              		.loc 1 41 13 is_stmt 0 view .LVU151
 621              	.LBE241:
 622              	.LBE242:
 623              	.LBE245:
 624              	.LBE263:
  62:oscillator.cpp ****     }
 625              		.loc 11 62 9 is_stmt 1 view .LVU152
  62:oscillator.cpp ****     }
 626              		.loc 11 62 33 view .LVU153
 627              	.LBB264:
 628              	.LBI264:
  79:../../../DaisySP/Source/Synthesis/oscillator.h ****     {
 629              		.loc 8 79 17 view .LVU154
 630              	.LBB265:
  81:../../../DaisySP/Source/Synthesis/oscillator.h ****     }
 631              		.loc 8 81 9 view .LVU155
  81:../../../DaisySP/Source/Synthesis/oscillator.h ****     }
 632              		.loc 8 81 19 is_stmt 0 view .LVU156
 633 004a 0123     		movs	r3, #1
 634 004c 2370     		strb	r3, [r4]
 635              	.LBE265:
 636              	.LBE264:
 637              		.loc 11 64 1 view .LVU157
 638 004e 10BD     		pop	{r4, pc}
 639              	.L34:
 640              		.align	2
 641              	.L33:
 642 0050 00000000 		.word	.LANCHOR0
 643 0054 00000000 		.word	.LANCHOR1
 644 0058 00000000 		.word	.LANCHOR2
 645 005c 04000000 		.word	.LANCHOR0+4
 646 0060 04000000 		.word	.LANCHOR2+4
 647              		.cfi_endproc
 648              	.LFE4848:
 650              		.section	.text._Z13AudioCallbackPKPKfPPfj,"ax",%progbits
 651              		.align	1
 652              		.p2align 2,,3
 653              		.global	_Z13AudioCallbackPKPKfPPfj
 654              		.syntax unified
 655              		.thumb
 656              		.thumb_func
 657              		.fpu fpv5-d16
ARM GAS  C:\Users\Miguel\AppData\Local\Temp\ccDAyH9H.s 			page 32


 659              	_Z13AudioCallbackPKPKfPPfj:
 660              	.LVL38:
 661              	.LFB4849:
  65:oscillator.cpp **** 
  66:oscillator.cpp **** void AudioCallback(AudioHandle::InputBuffer in, 
  67:oscillator.cpp ****                    AudioHandle::OutputBuffer out, 
  68:oscillator.cpp ****                    size_t size)
  69:oscillator.cpp **** {
 662              		.loc 11 69 1 is_stmt 1 view -0
 663              		.cfi_startproc
 664              		@ args = 0, pretend = 0, frame = 8
 665              		@ frame_needed = 0, uses_anonymous_args = 0
  70:oscillator.cpp ****     float osc_out, osc2_out, env_out;
 666              		.loc 11 70 5 view .LVU159
  71:oscillator.cpp ****     for (size_t i = 0; i < size; i++)
 667              		.loc 11 71 5 view .LVU160
 668              	.LBB266:
 669              		.loc 11 71 26 view .LVU161
 670 0000 002A     		cmp	r2, #0
 671 0002 00F09381 		beq	.L64
 672              	.LBE266:
  69:oscillator.cpp ****     float osc_out, osc2_out, env_out;
 673              		.loc 11 69 1 is_stmt 0 view .LVU162
 674 0006 2DE9F04F 		push	{r4, r5, r6, r7, r8, r9, r10, fp, lr}
 675              		.cfi_def_cfa_offset 36
 676              		.cfi_offset 4, -36
 677              		.cfi_offset 5, -32
 678              		.cfi_offset 6, -28
 679              		.cfi_offset 7, -24
 680              		.cfi_offset 8, -20
 681              		.cfi_offset 9, -16
 682              		.cfi_offset 10, -12
 683              		.cfi_offset 11, -8
 684              		.cfi_offset 14, -4
 685 000a 0F46     		mov	r7, r1
 686 000c 9246     		mov	r10, r2
 687              	.LBB402:
 688              		.loc 11 71 17 view .LVU163
 689 000e 0024     		movs	r4, #0
 690 0010 DFF87893 		ldr	r9, .L70+92
 691 0014 D24E     		ldr	r6, .L70+48
 692 0016 D34D     		ldr	r5, .L70+52
 693 0018 DFF84CB3 		ldr	fp, .L70+56
 694 001c DFF86883 		ldr	r8, .L70+88
 695              	.LBE402:
  69:oscillator.cpp ****     float osc_out, osc2_out, env_out;
 696              		.loc 11 69 1 view .LVU164
 697 0020 2DED108B 		vpush.64	{d8, d9, d10, d11, d12, d13, d14, d15}
 698              		.cfi_def_cfa_offset 100
 699              		.cfi_offset 80, -100
 700              		.cfi_offset 81, -96
 701              		.cfi_offset 82, -92
 702              		.cfi_offset 83, -88
 703              		.cfi_offset 84, -84
 704              		.cfi_offset 85, -80
 705              		.cfi_offset 86, -76
 706              		.cfi_offset 87, -72
ARM GAS  C:\Users\Miguel\AppData\Local\Temp\ccDAyH9H.s 			page 33


 707              		.cfi_offset 88, -68
 708              		.cfi_offset 89, -64
 709              		.cfi_offset 90, -60
 710              		.cfi_offset 91, -56
 711              		.cfi_offset 92, -52
 712              		.cfi_offset 93, -48
 713              		.cfi_offset 94, -44
 714              		.cfi_offset 95, -40
 715 0024 85B0     		sub	sp, sp, #20
 716              		.cfi_def_cfa_offset 120
 717 0026 38E0     		b	.L36
 718              	.LVL39:
 719              	.L69:
 720              	.LBB403:
 721              	.LBB267:
 722              	.LBB268:
 723              	.LBB269:
  46:../../../DaisySP/Source/Control/adsr.h ****     /** Initializes the Adsr module.
  47:../../../DaisySP/Source/Control/adsr.h ****         \param sample_rate - The sample rate of the audio engine being run. 
  48:../../../DaisySP/Source/Control/adsr.h ****     */
  49:../../../DaisySP/Source/Control/adsr.h ****     void Init(float sample_rate, int blockSize = 1);
  50:../../../DaisySP/Source/Control/adsr.h ****     /**
  51:../../../DaisySP/Source/Control/adsr.h ****      \function Retrigger forces the envelope back to attack phase
  52:../../../DaisySP/Source/Control/adsr.h ****      \param hard  resets the history to zero, results in a click.
  53:../../../DaisySP/Source/Control/adsr.h ****      */
  54:../../../DaisySP/Source/Control/adsr.h ****     void Retrigger(bool hard);
  55:../../../DaisySP/Source/Control/adsr.h ****     /** Processes one sample through the filter and returns one sample.
  56:../../../DaisySP/Source/Control/adsr.h ****         \param gate - trigger the envelope, hold it to sustain 
  57:../../../DaisySP/Source/Control/adsr.h ****     */
  58:../../../DaisySP/Source/Control/adsr.h ****     float Process(bool gate);
  59:../../../DaisySP/Source/Control/adsr.h ****     /** Sets time
  60:../../../DaisySP/Source/Control/adsr.h ****         Set time per segment in seconds
  61:../../../DaisySP/Source/Control/adsr.h ****     */
  62:../../../DaisySP/Source/Control/adsr.h ****     void SetTime(int seg, float time);
  63:../../../DaisySP/Source/Control/adsr.h ****     void SetAttackTime(float timeInS, float shape = 0.0f);
  64:../../../DaisySP/Source/Control/adsr.h ****     void SetDecayTime(float timeInS);
  65:../../../DaisySP/Source/Control/adsr.h ****     void SetReleaseTime(float timeInS);
  66:../../../DaisySP/Source/Control/adsr.h **** 
  67:../../../DaisySP/Source/Control/adsr.h ****   private:
  68:../../../DaisySP/Source/Control/adsr.h ****     void SetTimeConstant(float timeInS, float& time, float& coeff);
  69:../../../DaisySP/Source/Control/adsr.h **** 
  70:../../../DaisySP/Source/Control/adsr.h ****   public:
  71:../../../DaisySP/Source/Control/adsr.h ****     /** Sustain level
  72:../../../DaisySP/Source/Control/adsr.h ****         \param sus_level - sets sustain level, 0...1.0
  73:../../../DaisySP/Source/Control/adsr.h ****     */
  74:../../../DaisySP/Source/Control/adsr.h ****     inline void SetSustainLevel(float sus_level)
  75:../../../DaisySP/Source/Control/adsr.h ****     {
  76:../../../DaisySP/Source/Control/adsr.h ****         sus_level = (sus_level <= 0.f) ? -0.01f // forces envelope into idle
  77:../../../DaisySP/Source/Control/adsr.h ****                                        : (sus_level > 1.f) ? 1.f : sus_level;
 724              		.loc 7 77 60 view .LVU165
 725 0028 F7EE007A 		vmov.f32	s15, #1.0e+0
 726 002c F4EE67AA 		vcmp.f32	s21, s15
 727 0030 F1EE10FA 		vmrs	APSR_nzcv, FPSCR
 728 0034 77FEAAAA 		vselgt.f32	s21, s15, s21
 729              	.LVL40:
 730              	.L46:
  78:../../../DaisySP/Source/Control/adsr.h ****         sus_level_ = sus_level;
ARM GAS  C:\Users\Miguel\AppData\Local\Temp\ccDAyH9H.s 			page 34


 731              		.loc 7 78 9 is_stmt 1 view .LVU166
 732              	.LBE269:
 733              	.LBE268:
  72:oscillator.cpp ****     {
  73:oscillator.cpp ****         if (tick.Process()) 
  74:oscillator.cpp ****         {
  75:oscillator.cpp ****             gate = !gate;
  76:oscillator.cpp ****         }
  77:oscillator.cpp **** 
  78:oscillator.cpp ****         //Read potentiometer value
  79:oscillator.cpp ****         float ampOsc1 = convertValue(hw.adc.Get(0), 0.0f, 1.0f);
  80:oscillator.cpp ****         float freqOsc1 = convertValue(hw.adc.Get(1), 27.5f, 4186.0f);
  81:oscillator.cpp ****         float ampOsc2 = convertValue(hw.adc.Get(2), 0.0f, 1.0f);
  82:oscillator.cpp ****         float freqOsc2 = convertValue(hw.adc.Get(3), 27.5f, 4186.0f);
  83:oscillator.cpp ****         float envAttack = convertValue(hw.adc.Get(4), 1.0f, 5.0f);
  84:oscillator.cpp ****         float envDecay = convertValue(hw.adc.Get(5), 1.0f, 5.0f);
  85:oscillator.cpp ****         float sustain = convertValue(hw.adc.Get(6), 0.0f, 1.0f);
  86:oscillator.cpp ****         float tickFrequency = convertValue(hw.adc.Get(7), 1.0f, 5.0f); 
  87:oscillator.cpp ****         float reverbFreq = convertValue(hw.adc.Get(8), 1000.0f, 36000.0f);
  88:oscillator.cpp ****         float reverbVolume = convertValue(hw.adc.Get(9), 0.0f, 0.9f);
  89:oscillator.cpp **** 
  90:oscillator.cpp ****         freqOsc1 = frequencyCheck(freqOsc1, lfo.Process());
  91:oscillator.cpp ****         freqOsc2 = frequencyCheck(freqOsc2, lfo.Process());
  92:oscillator.cpp **** 
  93:oscillator.cpp ****         // LFO mods the oscillator
  94:oscillator.cpp ****         oscillator.SetFreq(freqOsc1);
  95:oscillator.cpp ****         osc2.SetFreq(freqOsc2);
  96:oscillator.cpp ****         oscillator.SetAmp(ampOsc1);
  97:oscillator.cpp ****         osc2.SetAmp(ampOsc2);
  98:oscillator.cpp ****         changeWaveForm();
  99:oscillator.cpp ****         // Update tick frequency
 100:oscillator.cpp ****         tick.SetFreq(tickFrequency);
 101:oscillator.cpp **** 
 102:oscillator.cpp ****         // Update envelope
 103:oscillator.cpp ****         env.SetTime(ADSR_SEG_ATTACK, envAttack);
 104:oscillator.cpp ****         env.SetTime(ADSR_SEG_DECAY, envDecay);
 105:oscillator.cpp ****         env.SetSustainLevel(sustain);
 106:oscillator.cpp **** 
 107:oscillator.cpp ****         // Update reverb
 108:oscillator.cpp ****         reverb.SetLpFreq(reverbFreq);
 109:oscillator.cpp ****         reverb.SetFeedback(reverbVolume);
 110:oscillator.cpp **** 
 111:oscillator.cpp ****         // Use envelope to control the amplitude of the oscillator.
 112:oscillator.cpp ****         env_out = env.Process(gate);
 734              		.loc 11 112 30 is_stmt 0 view .LVU167
 735 0038 99F80010 		ldrb	r1, [r9]	@ zero_extendqisi2
 736 003c CA48     		ldr	r0, .L70+56
 737              	.LBB272:
 738              	.LBB270:
 739              		.loc 7 78 20 view .LVU168
 740 003e CBED00AA 		vstr.32	s21, [fp]
 741              	.LVL41:
 742              		.loc 7 78 20 view .LVU169
 743              	.LBE270:
 744              	.LBE272:
 108:oscillator.cpp ****         reverb.SetFeedback(reverbVolume);
 745              		.loc 11 108 9 is_stmt 1 view .LVU170
ARM GAS  C:\Users\Miguel\AppData\Local\Temp\ccDAyH9H.s 			page 35


 746              	.LBB273:
 747              	.LBI273:
  39:../../../DaisySP/DaisySP-LGPL/Source/Effects/reverbsc.h ****     /** Initializes the reverb module, and sets the sample_rate at which the Process function will 
  40:../../../DaisySP/DaisySP-LGPL/Source/Effects/reverbsc.h ****         Returns 0 if all good, or 1 if it runs out of delay times exceed maximum allowed.
  41:../../../DaisySP/DaisySP-LGPL/Source/Effects/reverbsc.h ****     */
  42:../../../DaisySP/DaisySP-LGPL/Source/Effects/reverbsc.h ****     int Init(float sample_rate);
  43:../../../DaisySP/DaisySP-LGPL/Source/Effects/reverbsc.h **** 
  44:../../../DaisySP/DaisySP-LGPL/Source/Effects/reverbsc.h ****     /** Process the input through the reverb, and updates values of out1, and out2 with the new pro
  45:../../../DaisySP/DaisySP-LGPL/Source/Effects/reverbsc.h ****     */
  46:../../../DaisySP/DaisySP-LGPL/Source/Effects/reverbsc.h ****     int Process(const float &in1, const float &in2, float *out1, float *out2);
  47:../../../DaisySP/DaisySP-LGPL/Source/Effects/reverbsc.h **** 
  48:../../../DaisySP/DaisySP-LGPL/Source/Effects/reverbsc.h ****     /** controls the reverb time. reverb tail becomes infinite when set to 1.0
  49:../../../DaisySP/DaisySP-LGPL/Source/Effects/reverbsc.h ****         \param fb - sets reverb time. range: 0.0 to 1.0
  50:../../../DaisySP/DaisySP-LGPL/Source/Effects/reverbsc.h ****     */
  51:../../../DaisySP/DaisySP-LGPL/Source/Effects/reverbsc.h ****     inline void SetFeedback(const float &fb) { feedback_ = fb; }
  52:../../../DaisySP/DaisySP-LGPL/Source/Effects/reverbsc.h ****     /** controls the internal dampening filter's cutoff frequency.
  53:../../../DaisySP/DaisySP-LGPL/Source/Effects/reverbsc.h ****         \param freq - low pass frequency. range: 0.0 to sample_rate / 2
  54:../../../DaisySP/DaisySP-LGPL/Source/Effects/reverbsc.h ****     */
  55:../../../DaisySP/DaisySP-LGPL/Source/Effects/reverbsc.h ****     inline void SetLpFreq(const float &freq) { lpfreq_ = freq; }
 748              		.loc 10 55 17 view .LVU171
 749              	.LBB274:
 750              		.loc 10 55 48 view .LVU172
 751              		.loc 10 55 56 is_stmt 0 view .LVU173
 752 0042 C8ED019A 		vstr.32	s19, [r8, #4]
 753              	.LVL42:
 754              		.loc 10 55 56 view .LVU174
 755              	.LBE274:
 756              	.LBE273:
 109:oscillator.cpp **** 
 757              		.loc 11 109 9 is_stmt 1 view .LVU175
 758              	.LBB275:
 759              	.LBI275:
  51:../../../DaisySP/DaisySP-LGPL/Source/Effects/reverbsc.h ****     /** controls the internal dampening filter's cutoff frequency.
 760              		.loc 10 51 17 view .LVU176
 761              	.LBB276:
  51:../../../DaisySP/DaisySP-LGPL/Source/Effects/reverbsc.h ****     /** controls the internal dampening filter's cutoff frequency.
 762              		.loc 10 51 48 view .LVU177
  51:../../../DaisySP/DaisySP-LGPL/Source/Effects/reverbsc.h ****     /** controls the internal dampening filter's cutoff frequency.
 763              		.loc 10 51 58 is_stmt 0 view .LVU178
 764 0046 88ED008A 		vstr.32	s16, [r8]
 765              	.LVL43:
  51:../../../DaisySP/DaisySP-LGPL/Source/Effects/reverbsc.h ****     /** controls the internal dampening filter's cutoff frequency.
 766              		.loc 10 51 58 view .LVU179
 767              	.LBE276:
 768              	.LBE275:
 769              		.loc 11 112 9 is_stmt 1 view .LVU180
 770              		.loc 11 112 30 is_stmt 0 view .LVU181
 771 004a FFF7FEFF 		bl	_ZN7daisysp4Adsr7ProcessEb
 772              	.LVL44:
 773 004e F0EE408A 		vmov.f32	s17, s0
 774              	.LVL45:
 113:oscillator.cpp ****         osc_out = oscillator.Process() * env_out;
 775              		.loc 11 113 9 is_stmt 1 view .LVU182
 776              		.loc 11 113 37 is_stmt 0 view .LVU183
 777 0052 C348     		ldr	r0, .L70+48
 778 0054 FFF7FEFF 		bl	_ZN7daisysp10Oscillator7ProcessEv
 779              	.LVL46:
ARM GAS  C:\Users\Miguel\AppData\Local\Temp\ccDAyH9H.s 			page 36


 114:oscillator.cpp ****         osc2_out = osc2.Process() * env_out;
 780              		.loc 11 114 32 view .LVU184
 781 0058 C248     		ldr	r0, .L70+52
 113:oscillator.cpp ****         osc_out = oscillator.Process() * env_out;
 782              		.loc 11 113 40 view .LVU185
 783 005a 20EE280A 		vmul.f32	s0, s0, s17
 113:oscillator.cpp ****         osc_out = oscillator.Process() * env_out;
 784              		.loc 11 113 17 view .LVU186
 785 005e 8DED020A 		vstr.32	s0, [sp, #8]
 786              		.loc 11 114 9 is_stmt 1 view .LVU187
 787              		.loc 11 114 32 is_stmt 0 view .LVU188
 788 0062 FFF7FEFF 		bl	_ZN7daisysp10Oscillator7ProcessEv
 789              	.LVL47:
 115:oscillator.cpp **** 
 116:oscillator.cpp ****         if (reverbVolume > 0.05f) 
 790              		.loc 11 116 9 view .LVU189
 791 0066 DFEDC17A 		vldr.32	s15, .L70+60
 114:oscillator.cpp ****         osc2_out = osc2.Process() * env_out;
 792              		.loc 11 114 35 view .LVU190
 793 006a 20EE280A 		vmul.f32	s0, s0, s17
 794              		.loc 11 116 9 view .LVU191
 795 006e B4EEE78A 		vcmpe.f32	s16, s15
 114:oscillator.cpp ****         osc2_out = osc2.Process() * env_out;
 796              		.loc 11 114 18 view .LVU192
 797 0072 8DED030A 		vstr.32	s0, [sp, #12]
 798              		.loc 11 116 9 is_stmt 1 view .LVU193
 799 0076 F1EE10FA 		vmrs	APSR_nzcv, FPSCR
 800 007a 00F34681 		bgt	.L67
 117:oscillator.cpp ****         {
 118:oscillator.cpp ****             reverb.Process(osc_out, osc2_out, OUT_L, OUT_R);
 119:oscillator.cpp ****         }
 120:oscillator.cpp ****         else 
 121:oscillator.cpp ****         {
 122:oscillator.cpp ****             // A noticeable sync effect can be heard on high frequencies
 123:oscillator.cpp ****             OUT_L[i] = osc_out;
 801              		.loc 11 123 13 view .LVU194
 802              		.loc 11 123 22 is_stmt 0 view .LVU195
 803 007e 3A68     		ldr	r2, [r7]
 124:oscillator.cpp ****             OUT_R[i] = osc2_out;
 804              		.loc 11 124 22 view .LVU196
 805 0080 7B68     		ldr	r3, [r7, #4]
 123:oscillator.cpp ****             OUT_R[i] = osc2_out;
 806              		.loc 11 123 22 view .LVU197
 807 0082 02EB8402 		add	r2, r2, r4, lsl #2
 808 0086 0299     		ldr	r1, [sp, #8]	@ float
 809              		.loc 11 124 22 view .LVU198
 810 0088 03EB8403 		add	r3, r3, r4, lsl #2
 811              	.LBE267:
  71:oscillator.cpp ****     {
 812              		.loc 11 71 5 view .LVU199
 813 008c 0134     		adds	r4, r4, #1
 814              	.LVL48:
 815              	.LBB398:
 123:oscillator.cpp ****             OUT_R[i] = osc2_out;
 816              		.loc 11 123 22 view .LVU200
 817 008e 1160     		str	r1, [r2]	@ float
 818              		.loc 11 124 13 is_stmt 1 view .LVU201
ARM GAS  C:\Users\Miguel\AppData\Local\Temp\ccDAyH9H.s 			page 37


 819              		.loc 11 124 22 is_stmt 0 view .LVU202
 820 0090 039A     		ldr	r2, [sp, #12]	@ float
 821              	.LBE398:
  71:oscillator.cpp ****     {
 822              		.loc 11 71 26 view .LVU203
 823 0092 A245     		cmp	r10, r4
 824              	.LBB399:
 825              		.loc 11 124 22 view .LVU204
 826 0094 1A60     		str	r2, [r3]	@ float
 827              	.LVL49:
 828              		.loc 11 124 22 view .LVU205
 829              	.LBE399:
  71:oscillator.cpp ****     {
 830              		.loc 11 71 5 is_stmt 1 view .LVU206
  71:oscillator.cpp ****     {
 831              		.loc 11 71 26 view .LVU207
 832 0096 00F04481 		beq	.L68
 833              	.LVL50:
 834              	.L36:
 835              	.LBB400:
  73:oscillator.cpp ****         {
 836              		.loc 11 73 9 view .LVU208
  73:oscillator.cpp ****         {
 837              		.loc 11 73 25 is_stmt 0 view .LVU209
 838 009a B548     		ldr	r0, .L70+64
 839 009c FFF7FEFF 		bl	_ZN7daisysp5Metro7ProcessEv
 840              	.LVL51:
  73:oscillator.cpp ****         {
 841              		.loc 11 73 9 view .LVU210
 842 00a0 28B1     		cbz	r0, .L37
  75:oscillator.cpp ****         }
 843              		.loc 11 75 13 is_stmt 1 view .LVU211
  75:oscillator.cpp ****         }
 844              		.loc 11 75 20 is_stmt 0 view .LVU212
 845 00a2 99F80030 		ldrb	r3, [r9]	@ zero_extendqisi2
 846 00a6 83F00103 		eor	r3, r3, #1
  75:oscillator.cpp ****         }
 847              		.loc 11 75 18 view .LVU213
 848 00aa 89F80030 		strb	r3, [r9]
 849              	.L37:
  79:oscillator.cpp ****         float freqOsc1 = convertValue(hw.adc.Get(1), 27.5f, 4186.0f);
 850              		.loc 11 79 9 is_stmt 1 view .LVU214
  79:oscillator.cpp ****         float freqOsc1 = convertValue(hw.adc.Get(1), 27.5f, 4186.0f);
 851              		.loc 11 79 48 is_stmt 0 view .LVU215
 852 00ae 0021     		movs	r1, #0
 853 00b0 B048     		ldr	r0, .L70+68
 854 00b2 FFF7FEFF 		bl	_ZNK5daisy9AdcHandle3GetEh
 855              	.LVL52:
 856              	.LBB277:
 857              	.LBI277:
  36:oscillator.cpp ****     int min_value = 0;
 858              		.loc 11 36 7 is_stmt 1 view .LVU216
 859              	.LBB278:
  37:oscillator.cpp ****     int max_value = 65534;
 860              		.loc 11 37 5 view .LVU217
  38:oscillator.cpp ****     
 861              		.loc 11 38 5 view .LVU218
ARM GAS  C:\Users\Miguel\AppData\Local\Temp\ccDAyH9H.s 			page 38


  41:oscillator.cpp ****     
 862              		.loc 11 41 5 view .LVU219
  44:oscillator.cpp ****     
 863              		.loc 11 44 5 view .LVU220
 864              	.LBB279:
 865              	.LBI279:
 415:c:\program files\daisytoolchain\arm-none-eabi\include\c++\10.2.1\cmath ****     {
 866              		.loc 12 415 5 view .LVU221
 867              	.LBE279:
  41:oscillator.cpp ****     
 868              		.loc 11 41 30 is_stmt 0 view .LVU222
 869 00b6 07EE900A 		vmov	s15, r0	@ int
  41:oscillator.cpp ****     
 870              		.loc 11 41 11 view .LVU223
 871 00ba 9FEDAFEA 		vldr.32	s28, .L70+72
 872              	.LBE278:
 873              	.LBE277:
  80:oscillator.cpp ****         float ampOsc2 = convertValue(hw.adc.Get(2), 0.0f, 1.0f);
 874              		.loc 11 80 49 view .LVU224
 875 00be 0121     		movs	r1, #1
 876              	.LBB287:
 877              	.LBB282:
  41:oscillator.cpp ****     
 878              		.loc 11 41 30 view .LVU225
 879 00c0 F8EEE77A 		vcvt.f32.s32	s15, s15
 880              	.LBE282:
 881              	.LBE287:
  80:oscillator.cpp ****         float ampOsc2 = convertValue(hw.adc.Get(2), 0.0f, 1.0f);
 882              		.loc 11 80 49 view .LVU226
 883 00c4 AB48     		ldr	r0, .L70+68
 884              	.LVL53:
 885              	.LBB288:
 886              	.LBB289:
  44:oscillator.cpp ****     
 887              		.loc 11 44 75 view .LVU227
 888 00c6 B7EE009B 		vmov.f64	d9, #1.0e+0
 889 00ca B1EE00BB 		vmov.f64	d11, #4.0e+0
 890              	.LBE289:
 891              	.LBE288:
 892              	.LBB294:
 893              	.LBB283:
  41:oscillator.cpp ****     
 894              		.loc 11 41 11 view .LVU228
 895 00ce 87EE8E7A 		vdiv.f32	s14, s15, s28
  44:oscillator.cpp ****     
 896              		.loc 11 44 75 view .LVU229
 897 00d2 9FED978B 		vldr.64	d8, .L70
 898              	.LBE283:
 899              	.LBE294:
 900              	.LBB295:
 901              	.LBB296:
 902 00d6 9FED98AB 		vldr.64	d10, .L70+8
 903 00da 9FED99CB 		vldr.64	d12, .L70+16
 904              	.LBE296:
 905              	.LBE295:
 906              	.LBB303:
 907              	.LBB284:
ARM GAS  C:\Users\Miguel\AppData\Local\Temp\ccDAyH9H.s 			page 39


 908 00de B0EE48FB 		vmov.f64	d15, d8
 909              	.LBE284:
 910              	.LBE303:
 911              	.LBB304:
 912              	.LBB299:
 913 00e2 B0EE4ADB 		vmov.f64	d13, d10
 914              	.LBE299:
 915              	.LBE304:
 916              	.LBB305:
 917              	.LBB285:
 918              	.LBB281:
 919              	.LBB280:
 920              		.loc 12 418 17 view .LVU230
 921 00e6 B7EEC77A 		vcvt.f64.f32	d7, s14
 922              	.LVL54:
 923              		.loc 12 418 17 view .LVU231
 924              	.LBE280:
 925              	.LBE281:
  44:oscillator.cpp ****     
 926              		.loc 11 44 75 view .LVU232
 927 00ea A7EE07FB 		vfma.f64	d15, d7, d7
 928              	.LBE285:
 929              	.LBE305:
  80:oscillator.cpp ****         float ampOsc2 = convertValue(hw.adc.Get(2), 0.0f, 1.0f);
 930              		.loc 11 80 49 view .LVU233
 931 00ee FFF7FEFF 		bl	_ZNK5daisy9AdcHandle3GetEh
 932              	.LVL55:
 933 00f2 07EE900A 		vmov	s15, r0	@ int
  81:oscillator.cpp ****         float freqOsc2 = convertValue(hw.adc.Get(3), 27.5f, 4186.0f);
 934              		.loc 11 81 48 view .LVU234
 935 00f6 0221     		movs	r1, #2
 936 00f8 9E48     		ldr	r0, .L70+68
 937              	.LBB306:
 938              	.LBB300:
  41:oscillator.cpp ****     
 939              		.loc 11 41 30 view .LVU235
 940 00fa F8EEE77A 		vcvt.f32.s32	s15, s15
  41:oscillator.cpp ****     
 941              		.loc 11 41 11 view .LVU236
 942 00fe 87EE8E7A 		vdiv.f32	s14, s15, s28
 943              	.LBE300:
 944              	.LBE306:
 945              	.LBB307:
 946              	.LBB286:
  44:oscillator.cpp ****     
 947              		.loc 11 44 77 view .LVU237
 948 0102 B7EECFFB 		vcvt.f32.f64	s30, d15
 949              	.LVL56:
  46:oscillator.cpp **** }
 950              		.loc 11 46 5 is_stmt 1 view .LVU238
  46:oscillator.cpp **** }
 951              		.loc 11 46 5 is_stmt 0 view .LVU239
 952              	.LBE286:
 953              	.LBE307:
  80:oscillator.cpp ****         float ampOsc2 = convertValue(hw.adc.Get(2), 0.0f, 1.0f);
 954              		.loc 11 80 9 is_stmt 1 view .LVU240
 955              	.LBB308:
ARM GAS  C:\Users\Miguel\AppData\Local\Temp\ccDAyH9H.s 			page 40


 956              	.LBI295:
  36:oscillator.cpp ****     int min_value = 0;
 957              		.loc 11 36 7 view .LVU241
 958              	.LBB301:
  37:oscillator.cpp ****     int max_value = 65534;
 959              		.loc 11 37 5 view .LVU242
  38:oscillator.cpp ****     
 960              		.loc 11 38 5 view .LVU243
  41:oscillator.cpp ****     
 961              		.loc 11 41 5 view .LVU244
  44:oscillator.cpp ****     
 962              		.loc 11 44 5 view .LVU245
 963              	.LBB297:
 964              	.LBI297:
 415:c:\program files\daisytoolchain\arm-none-eabi\include\c++\10.2.1\cmath ****     {
 965              		.loc 12 415 5 view .LVU246
 966              	.LBB298:
 967              		.loc 12 418 17 is_stmt 0 view .LVU247
 968 0106 B7EEC77A 		vcvt.f64.f32	d7, s14
 969              	.LVL57:
 970              		.loc 12 418 17 view .LVU248
 971 010a 27EE077B 		vmul.f64	d7, d7, d7
 972              	.LBE298:
 973              	.LBE297:
  44:oscillator.cpp ****     
 974              		.loc 11 44 75 view .LVU249
 975 010e A7EE0CDB 		vfma.f64	d13, d7, d12
 976              	.LVL58:
  46:oscillator.cpp **** }
 977              		.loc 11 46 5 is_stmt 1 view .LVU250
  46:oscillator.cpp **** }
 978              		.loc 11 46 5 is_stmt 0 view .LVU251
 979              	.LBE301:
 980              	.LBE308:
  81:oscillator.cpp ****         float freqOsc2 = convertValue(hw.adc.Get(3), 27.5f, 4186.0f);
 981              		.loc 11 81 9 is_stmt 1 view .LVU252
  81:oscillator.cpp ****         float freqOsc2 = convertValue(hw.adc.Get(3), 27.5f, 4186.0f);
 982              		.loc 11 81 48 is_stmt 0 view .LVU253
 983 0112 FFF7FEFF 		bl	_ZNK5daisy9AdcHandle3GetEh
 984              	.LVL59:
 985 0116 07EE900A 		vmov	s15, r0	@ int
 986              	.LVL60:
 987              	.LBB309:
 988              	.LBI309:
  36:oscillator.cpp ****     int min_value = 0;
 989              		.loc 11 36 7 is_stmt 1 view .LVU254
 990              	.LBB310:
  37:oscillator.cpp ****     int max_value = 65534;
 991              		.loc 11 37 5 view .LVU255
  38:oscillator.cpp ****     
 992              		.loc 11 38 5 view .LVU256
  41:oscillator.cpp ****     
 993              		.loc 11 41 5 view .LVU257
  44:oscillator.cpp ****     
 994              		.loc 11 44 5 view .LVU258
 995              	.LBB311:
 996              	.LBI311:
ARM GAS  C:\Users\Miguel\AppData\Local\Temp\ccDAyH9H.s 			page 41


 415:c:\program files\daisytoolchain\arm-none-eabi\include\c++\10.2.1\cmath ****     {
 997              		.loc 12 415 5 view .LVU259
 998              	.LBE311:
 999              	.LBE310:
 1000              	.LBE309:
  82:oscillator.cpp ****         float envAttack = convertValue(hw.adc.Get(4), 1.0f, 5.0f);
 1001              		.loc 11 82 49 is_stmt 0 view .LVU260
 1002 011a 0321     		movs	r1, #3
 1003 011c 9548     		ldr	r0, .L70+68
 1004              	.LBB315:
 1005              	.LBB314:
  41:oscillator.cpp ****     
 1006              		.loc 11 41 30 view .LVU261
 1007 011e F8EEE77A 		vcvt.f32.s32	s15, s15
 1008              	.LVL61:
  44:oscillator.cpp ****     
 1009              		.loc 11 44 75 view .LVU262
 1010 0122 B0EE486B 		vmov.f64	d6, d8
  41:oscillator.cpp ****     
 1011              		.loc 11 41 11 view .LVU263
 1012 0126 87EE8E7A 		vdiv.f32	s14, s15, s28
 1013              	.LBB313:
 1014              	.LBB312:
 1015              		.loc 12 418 17 view .LVU264
 1016 012a B7EEC77A 		vcvt.f64.f32	d7, s14
 1017              	.LVL62:
 1018              		.loc 12 418 17 view .LVU265
 1019              	.LBE312:
 1020              	.LBE313:
  44:oscillator.cpp ****     
 1021              		.loc 11 44 75 view .LVU266
 1022 012e A7EE076B 		vfma.f64	d6, d7, d7
  44:oscillator.cpp ****     
 1023              		.loc 11 44 77 view .LVU267
 1024 0132 F7EEC6EB 		vcvt.f32.f64	s29, d6
 1025              	.LVL63:
  46:oscillator.cpp **** }
 1026              		.loc 11 46 5 is_stmt 1 view .LVU268
  46:oscillator.cpp **** }
 1027              		.loc 11 46 5 is_stmt 0 view .LVU269
 1028              	.LBE314:
 1029              	.LBE315:
  82:oscillator.cpp ****         float envAttack = convertValue(hw.adc.Get(4), 1.0f, 5.0f);
 1030              		.loc 11 82 9 is_stmt 1 view .LVU270
  82:oscillator.cpp ****         float envAttack = convertValue(hw.adc.Get(4), 1.0f, 5.0f);
 1031              		.loc 11 82 49 is_stmt 0 view .LVU271
 1032 0136 FFF7FEFF 		bl	_ZNK5daisy9AdcHandle3GetEh
 1033              	.LVL64:
 1034 013a 07EE900A 		vmov	s15, r0	@ int
 1035              	.LVL65:
 1036              	.LBB316:
 1037              	.LBI316:
  36:oscillator.cpp ****     int min_value = 0;
 1038              		.loc 11 36 7 is_stmt 1 view .LVU272
 1039              	.LBB317:
  37:oscillator.cpp ****     int max_value = 65534;
 1040              		.loc 11 37 5 view .LVU273
ARM GAS  C:\Users\Miguel\AppData\Local\Temp\ccDAyH9H.s 			page 42


  38:oscillator.cpp ****     
 1041              		.loc 11 38 5 view .LVU274
  41:oscillator.cpp ****     
 1042              		.loc 11 41 5 view .LVU275
  44:oscillator.cpp ****     
 1043              		.loc 11 44 5 view .LVU276
 1044              	.LBB318:
 1045              	.LBI318:
 415:c:\program files\daisytoolchain\arm-none-eabi\include\c++\10.2.1\cmath ****     {
 1046              		.loc 12 415 5 view .LVU277
 1047              	.LBE318:
 1048              	.LBE317:
 1049              	.LBE316:
  83:oscillator.cpp ****         float envDecay = convertValue(hw.adc.Get(5), 1.0f, 5.0f);
 1050              		.loc 11 83 50 is_stmt 0 view .LVU278
 1051 013e 0421     		movs	r1, #4
 1052 0140 8C48     		ldr	r0, .L70+68
 1053              	.LBB323:
 1054              	.LBB321:
  41:oscillator.cpp ****     
 1055              		.loc 11 41 30 view .LVU279
 1056 0142 F8EEE77A 		vcvt.f32.s32	s15, s15
 1057              	.LVL66:
  41:oscillator.cpp ****     
 1058              		.loc 11 41 11 view .LVU280
 1059 0146 87EE8E7A 		vdiv.f32	s14, s15, s28
 1060              	.LBB320:
 1061              	.LBB319:
 1062              		.loc 12 418 17 view .LVU281
 1063 014a B7EEC77A 		vcvt.f64.f32	d7, s14
 1064              	.LVL67:
 1065              		.loc 12 418 17 view .LVU282
 1066 014e 27EE077B 		vmul.f64	d7, d7, d7
 1067              	.LBE319:
 1068              	.LBE320:
  44:oscillator.cpp ****     
 1069              		.loc 11 44 75 view .LVU283
 1070 0152 A7EE0CAB 		vfma.f64	d10, d7, d12
 1071              	.LBE321:
 1072              	.LBE323:
  83:oscillator.cpp ****         float envDecay = convertValue(hw.adc.Get(5), 1.0f, 5.0f);
 1073              		.loc 11 83 50 view .LVU284
 1074 0156 FFF7FEFF 		bl	_ZNK5daisy9AdcHandle3GetEh
 1075              	.LVL68:
 1076 015a 07EE900A 		vmov	s15, r0	@ int
  84:oscillator.cpp ****         float sustain = convertValue(hw.adc.Get(6), 0.0f, 1.0f);
 1077              		.loc 11 84 49 view .LVU285
 1078 015e 0521     		movs	r1, #5
 1079 0160 8448     		ldr	r0, .L70+68
 1080              	.LBB324:
 1081              	.LBB292:
  41:oscillator.cpp ****     
 1082              		.loc 11 41 30 view .LVU286
 1083 0162 F8EEE77A 		vcvt.f32.s32	s15, s15
  44:oscillator.cpp ****     
 1084              		.loc 11 44 75 view .LVU287
 1085 0166 B0EE496B 		vmov.f64	d6, d9
ARM GAS  C:\Users\Miguel\AppData\Local\Temp\ccDAyH9H.s 			page 43


  41:oscillator.cpp ****     
 1086              		.loc 11 41 11 view .LVU288
 1087 016a 87EE8E7A 		vdiv.f32	s14, s15, s28
 1088              	.LBE292:
 1089              	.LBE324:
 1090              	.LBB325:
 1091              	.LBB322:
  44:oscillator.cpp ****     
 1092              		.loc 11 44 77 view .LVU289
 1093 016e B7EECAAB 		vcvt.f32.f64	s20, d10
 1094              	.LVL69:
  46:oscillator.cpp **** }
 1095              		.loc 11 46 5 is_stmt 1 view .LVU290
  46:oscillator.cpp **** }
 1096              		.loc 11 46 5 is_stmt 0 view .LVU291
 1097              	.LBE322:
 1098              	.LBE325:
  83:oscillator.cpp ****         float envDecay = convertValue(hw.adc.Get(5), 1.0f, 5.0f);
 1099              		.loc 11 83 9 is_stmt 1 view .LVU292
 1100              	.LBB326:
 1101              	.LBI288:
  36:oscillator.cpp ****     int min_value = 0;
 1102              		.loc 11 36 7 view .LVU293
 1103              	.LBB293:
  37:oscillator.cpp ****     int max_value = 65534;
 1104              		.loc 11 37 5 view .LVU294
  38:oscillator.cpp ****     
 1105              		.loc 11 38 5 view .LVU295
  41:oscillator.cpp ****     
 1106              		.loc 11 41 5 view .LVU296
  44:oscillator.cpp ****     
 1107              		.loc 11 44 5 view .LVU297
 1108              	.LBB290:
 1109              	.LBI290:
 415:c:\program files\daisytoolchain\arm-none-eabi\include\c++\10.2.1\cmath ****     {
 1110              		.loc 12 415 5 view .LVU298
 1111              	.LBB291:
 1112              		.loc 12 418 17 is_stmt 0 view .LVU299
 1113 0172 B7EEC77A 		vcvt.f64.f32	d7, s14
 1114              	.LVL70:
 1115              		.loc 12 418 17 view .LVU300
 1116 0176 27EE077B 		vmul.f64	d7, d7, d7
 1117              	.LBE291:
 1118              	.LBE290:
  44:oscillator.cpp ****     
 1119              		.loc 11 44 75 view .LVU301
 1120 017a A7EE0B6B 		vfma.f64	d6, d7, d11
  44:oscillator.cpp ****     
 1121              		.loc 11 44 77 view .LVU302
 1122 017e F7EEC6CB 		vcvt.f32.f64	s25, d6
 1123              	.LVL71:
  46:oscillator.cpp **** }
 1124              		.loc 11 46 5 is_stmt 1 view .LVU303
  46:oscillator.cpp **** }
 1125              		.loc 11 46 5 is_stmt 0 view .LVU304
 1126              	.LBE293:
 1127              	.LBE326:
ARM GAS  C:\Users\Miguel\AppData\Local\Temp\ccDAyH9H.s 			page 44


  84:oscillator.cpp ****         float sustain = convertValue(hw.adc.Get(6), 0.0f, 1.0f);
 1128              		.loc 11 84 9 is_stmt 1 view .LVU305
  84:oscillator.cpp ****         float sustain = convertValue(hw.adc.Get(6), 0.0f, 1.0f);
 1129              		.loc 11 84 49 is_stmt 0 view .LVU306
 1130 0182 FFF7FEFF 		bl	_ZNK5daisy9AdcHandle3GetEh
 1131              	.LVL72:
 1132 0186 07EE900A 		vmov	s15, r0	@ int
 1133              	.LVL73:
 1134              	.LBB327:
 1135              	.LBI327:
  36:oscillator.cpp ****     int min_value = 0;
 1136              		.loc 11 36 7 is_stmt 1 view .LVU307
 1137              	.LBB328:
  37:oscillator.cpp ****     int max_value = 65534;
 1138              		.loc 11 37 5 view .LVU308
  38:oscillator.cpp ****     
 1139              		.loc 11 38 5 view .LVU309
  41:oscillator.cpp ****     
 1140              		.loc 11 41 5 view .LVU310
  44:oscillator.cpp ****     
 1141              		.loc 11 44 5 view .LVU311
 1142              	.LBB329:
 1143              	.LBI329:
 415:c:\program files\daisytoolchain\arm-none-eabi\include\c++\10.2.1\cmath ****     {
 1144              		.loc 12 415 5 view .LVU312
 1145              	.LBE329:
  44:oscillator.cpp ****     
 1146              		.loc 11 44 75 is_stmt 0 view .LVU313
 1147 018a B0EE496B 		vmov.f64	d6, d9
 1148              	.LBE328:
 1149              	.LBE327:
  85:oscillator.cpp ****         float tickFrequency = convertValue(hw.adc.Get(7), 1.0f, 5.0f); 
 1150              		.loc 11 85 48 view .LVU314
 1151 018e 0621     		movs	r1, #6
 1152 0190 7848     		ldr	r0, .L70+68
 1153              	.LBB333:
 1154              	.LBB332:
  41:oscillator.cpp ****     
 1155              		.loc 11 41 30 view .LVU315
 1156 0192 F8EEE77A 		vcvt.f32.s32	s15, s15
 1157              	.LVL74:
  41:oscillator.cpp ****     
 1158              		.loc 11 41 11 view .LVU316
 1159 0196 87EE8E7A 		vdiv.f32	s14, s15, s28
 1160              	.LBB331:
 1161              	.LBB330:
 1162              		.loc 12 418 17 view .LVU317
 1163 019a B7EEC77A 		vcvt.f64.f32	d7, s14
 1164              	.LVL75:
 1165              		.loc 12 418 17 view .LVU318
 1166 019e 27EE077B 		vmul.f64	d7, d7, d7
 1167              	.LBE330:
 1168              	.LBE331:
  44:oscillator.cpp ****     
 1169              		.loc 11 44 75 view .LVU319
 1170 01a2 A7EE0B6B 		vfma.f64	d6, d7, d11
  44:oscillator.cpp ****     
ARM GAS  C:\Users\Miguel\AppData\Local\Temp\ccDAyH9H.s 			page 45


 1171              		.loc 11 44 77 view .LVU320
 1172 01a6 B7EEC6CB 		vcvt.f32.f64	s24, d6
 1173              	.LVL76:
  46:oscillator.cpp **** }
 1174              		.loc 11 46 5 is_stmt 1 view .LVU321
  46:oscillator.cpp **** }
 1175              		.loc 11 46 5 is_stmt 0 view .LVU322
 1176              	.LBE332:
 1177              	.LBE333:
  85:oscillator.cpp ****         float tickFrequency = convertValue(hw.adc.Get(7), 1.0f, 5.0f); 
 1178              		.loc 11 85 9 is_stmt 1 view .LVU323
  85:oscillator.cpp ****         float tickFrequency = convertValue(hw.adc.Get(7), 1.0f, 5.0f); 
 1179              		.loc 11 85 48 is_stmt 0 view .LVU324
 1180 01aa FFF7FEFF 		bl	_ZNK5daisy9AdcHandle3GetEh
 1181              	.LVL77:
 1182 01ae 07EE900A 		vmov	s15, r0	@ int
 1183              	.LVL78:
 1184              	.LBB334:
 1185              	.LBI334:
  36:oscillator.cpp ****     int min_value = 0;
 1186              		.loc 11 36 7 is_stmt 1 view .LVU325
 1187              	.LBB335:
  37:oscillator.cpp ****     int max_value = 65534;
 1188              		.loc 11 37 5 view .LVU326
  38:oscillator.cpp ****     
 1189              		.loc 11 38 5 view .LVU327
  41:oscillator.cpp ****     
 1190              		.loc 11 41 5 view .LVU328
  44:oscillator.cpp ****     
 1191              		.loc 11 44 5 view .LVU329
 1192              	.LBB336:
 1193              	.LBI336:
 415:c:\program files\daisytoolchain\arm-none-eabi\include\c++\10.2.1\cmath ****     {
 1194              		.loc 12 415 5 view .LVU330
 1195              	.LBE336:
  44:oscillator.cpp ****     
 1196              		.loc 11 44 75 is_stmt 0 view .LVU331
 1197 01b2 B0EE486B 		vmov.f64	d6, d8
 1198              	.LBE335:
 1199              	.LBE334:
  86:oscillator.cpp ****         float reverbFreq = convertValue(hw.adc.Get(8), 1000.0f, 36000.0f);
 1200              		.loc 11 86 54 view .LVU332
 1201 01b6 0721     		movs	r1, #7
 1202 01b8 6E48     		ldr	r0, .L70+68
 1203              	.LBB340:
 1204              	.LBB339:
  41:oscillator.cpp ****     
 1205              		.loc 11 41 30 view .LVU333
 1206 01ba F8EEE77A 		vcvt.f32.s32	s15, s15
 1207              	.LVL79:
  41:oscillator.cpp ****     
 1208              		.loc 11 41 11 view .LVU334
 1209 01be 87EE8E7A 		vdiv.f32	s14, s15, s28
 1210              	.LBB338:
 1211              	.LBB337:
 1212              		.loc 12 418 17 view .LVU335
 1213 01c2 B7EEC77A 		vcvt.f64.f32	d7, s14
ARM GAS  C:\Users\Miguel\AppData\Local\Temp\ccDAyH9H.s 			page 46


 1214              	.LVL80:
 1215              		.loc 12 418 17 view .LVU336
 1216              	.LBE337:
 1217              	.LBE338:
  44:oscillator.cpp ****     
 1218              		.loc 11 44 75 view .LVU337
 1219 01c6 A7EE076B 		vfma.f64	d6, d7, d7
  44:oscillator.cpp ****     
 1220              		.loc 11 44 77 view .LVU338
 1221 01ca F7EEC6AB 		vcvt.f32.f64	s21, d6
 1222              	.LVL81:
  46:oscillator.cpp **** }
 1223              		.loc 11 46 5 is_stmt 1 view .LVU339
  46:oscillator.cpp **** }
 1224              		.loc 11 46 5 is_stmt 0 view .LVU340
 1225              	.LBE339:
 1226              	.LBE340:
  86:oscillator.cpp ****         float reverbFreq = convertValue(hw.adc.Get(8), 1000.0f, 36000.0f);
 1227              		.loc 11 86 9 is_stmt 1 view .LVU341
  86:oscillator.cpp ****         float reverbFreq = convertValue(hw.adc.Get(8), 1000.0f, 36000.0f);
 1228              		.loc 11 86 54 is_stmt 0 view .LVU342
 1229 01ce FFF7FEFF 		bl	_ZNK5daisy9AdcHandle3GetEh
 1230              	.LVL82:
 1231 01d2 07EE900A 		vmov	s15, r0	@ int
 1232              	.LVL83:
 1233              	.LBB341:
 1234              	.LBI341:
  36:oscillator.cpp ****     int min_value = 0;
 1235              		.loc 11 36 7 is_stmt 1 view .LVU343
 1236              	.LBB342:
  37:oscillator.cpp ****     int max_value = 65534;
 1237              		.loc 11 37 5 view .LVU344
  38:oscillator.cpp ****     
 1238              		.loc 11 38 5 view .LVU345
  41:oscillator.cpp ****     
 1239              		.loc 11 41 5 view .LVU346
  44:oscillator.cpp ****     
 1240              		.loc 11 44 5 view .LVU347
 1241              	.LBB343:
 1242              	.LBI343:
 415:c:\program files\daisytoolchain\arm-none-eabi\include\c++\10.2.1\cmath ****     {
 1243              		.loc 12 415 5 view .LVU348
 1244              	.LBE343:
 1245              	.LBE342:
 1246              	.LBE341:
  87:oscillator.cpp ****         float reverbVolume = convertValue(hw.adc.Get(9), 0.0f, 0.9f);
 1247              		.loc 11 87 51 is_stmt 0 view .LVU349
 1248 01d6 0821     		movs	r1, #8
 1249 01d8 6648     		ldr	r0, .L70+68
 1250              	.LBB348:
 1251              	.LBB346:
  41:oscillator.cpp ****     
 1252              		.loc 11 41 30 view .LVU350
 1253 01da F8EEE77A 		vcvt.f32.s32	s15, s15
 1254              	.LVL84:
  41:oscillator.cpp ****     
 1255              		.loc 11 41 11 view .LVU351
ARM GAS  C:\Users\Miguel\AppData\Local\Temp\ccDAyH9H.s 			page 47


 1256 01de 87EE8E7A 		vdiv.f32	s14, s15, s28
 1257              	.LBB345:
 1258              	.LBB344:
 1259              		.loc 12 418 17 view .LVU352
 1260 01e2 B7EEC77A 		vcvt.f64.f32	d7, s14
 1261              	.LVL85:
 1262              		.loc 12 418 17 view .LVU353
 1263 01e6 27EE077B 		vmul.f64	d7, d7, d7
 1264              	.LBE344:
 1265              	.LBE345:
  44:oscillator.cpp ****     
 1266              		.loc 11 44 75 view .LVU354
 1267 01ea A7EE0B9B 		vfma.f64	d9, d7, d11
 1268              	.LBE346:
 1269              	.LBE348:
  87:oscillator.cpp ****         float reverbVolume = convertValue(hw.adc.Get(9), 0.0f, 0.9f);
 1270              		.loc 11 87 51 view .LVU355
 1271 01ee FFF7FEFF 		bl	_ZNK5daisy9AdcHandle3GetEh
 1272              	.LVL86:
 1273              	.LBB349:
 1274              	.LBB350:
  41:oscillator.cpp ****     
 1275              		.loc 11 41 30 view .LVU356
 1276 01f2 07EE900A 		vmov	s15, r0	@ int
 1277              	.LBE350:
 1278              	.LBE349:
  88:oscillator.cpp **** 
 1279              		.loc 11 88 53 view .LVU357
 1280 01f6 0921     		movs	r1, #9
 1281 01f8 5E48     		ldr	r0, .L70+68
 1282              	.LBB356:
 1283              	.LBB354:
  41:oscillator.cpp ****     
 1284              		.loc 11 41 30 view .LVU358
 1285 01fa F8EEE77A 		vcvt.f32.s32	s15, s15
  44:oscillator.cpp ****     
 1286              		.loc 11 44 75 view .LVU359
 1287 01fe 9FED525B 		vldr.64	d5, .L70+24
  41:oscillator.cpp ****     
 1288              		.loc 11 41 11 view .LVU360
 1289 0202 87EE8E7A 		vdiv.f32	s14, s15, s28
 1290              	.LBE354:
 1291              	.LBE356:
 1292              	.LBB357:
 1293              	.LBB347:
  44:oscillator.cpp ****     
 1294              		.loc 11 44 77 view .LVU361
 1295 0206 B7EEC99B 		vcvt.f32.f64	s18, d9
 1296              	.LVL87:
  46:oscillator.cpp **** }
 1297              		.loc 11 46 5 is_stmt 1 view .LVU362
  46:oscillator.cpp **** }
 1298              		.loc 11 46 5 is_stmt 0 view .LVU363
 1299              	.LBE347:
 1300              	.LBE357:
  87:oscillator.cpp ****         float reverbVolume = convertValue(hw.adc.Get(9), 0.0f, 0.9f);
 1301              		.loc 11 87 9 is_stmt 1 view .LVU364
ARM GAS  C:\Users\Miguel\AppData\Local\Temp\ccDAyH9H.s 			page 48


 1302              	.LBB358:
 1303              	.LBI349:
  36:oscillator.cpp ****     int min_value = 0;
 1304              		.loc 11 36 7 view .LVU365
 1305              	.LBB355:
  37:oscillator.cpp ****     int max_value = 65534;
 1306              		.loc 11 37 5 view .LVU366
  38:oscillator.cpp ****     
 1307              		.loc 11 38 5 view .LVU367
  41:oscillator.cpp ****     
 1308              		.loc 11 41 5 view .LVU368
  44:oscillator.cpp ****     
 1309              		.loc 11 44 5 view .LVU369
 1310              	.LBB351:
 1311              	.LBI351:
 415:c:\program files\daisytoolchain\arm-none-eabi\include\c++\10.2.1\cmath ****     {
 1312              		.loc 12 415 5 view .LVU370
 1313              	.LBE351:
  44:oscillator.cpp ****     
 1314              		.loc 11 44 75 is_stmt 0 view .LVU371
 1315 020a 9FED516B 		vldr.64	d6, .L70+32
 1316              	.LBB353:
 1317              	.LBB352:
 1318              		.loc 12 418 17 view .LVU372
 1319 020e B7EEC77A 		vcvt.f64.f32	d7, s14
 1320              	.LVL88:
 1321              		.loc 12 418 17 view .LVU373
 1322 0212 27EE077B 		vmul.f64	d7, d7, d7
 1323              	.LBE352:
 1324              	.LBE353:
  44:oscillator.cpp ****     
 1325              		.loc 11 44 75 view .LVU374
 1326 0216 A7EE056B 		vfma.f64	d6, d7, d5
  44:oscillator.cpp ****     
 1327              		.loc 11 44 77 view .LVU375
 1328 021a F7EEC69B 		vcvt.f32.f64	s19, d6
 1329              	.LVL89:
  46:oscillator.cpp **** }
 1330              		.loc 11 46 5 is_stmt 1 view .LVU376
  46:oscillator.cpp **** }
 1331              		.loc 11 46 5 is_stmt 0 view .LVU377
 1332              	.LBE355:
 1333              	.LBE358:
  88:oscillator.cpp **** 
 1334              		.loc 11 88 9 is_stmt 1 view .LVU378
  88:oscillator.cpp **** 
 1335              		.loc 11 88 53 is_stmt 0 view .LVU379
 1336 021e FFF7FEFF 		bl	_ZNK5daisy9AdcHandle3GetEh
 1337              	.LVL90:
 1338 0222 07EE900A 		vmov	s15, r0	@ int
 1339              	.LVL91:
 1340              	.LBB359:
 1341              	.LBI359:
  36:oscillator.cpp ****     int min_value = 0;
 1342              		.loc 11 36 7 is_stmt 1 view .LVU380
 1343              	.LBB360:
  37:oscillator.cpp ****     int max_value = 65534;
ARM GAS  C:\Users\Miguel\AppData\Local\Temp\ccDAyH9H.s 			page 49


 1344              		.loc 11 37 5 view .LVU381
  38:oscillator.cpp ****     
 1345              		.loc 11 38 5 view .LVU382
  41:oscillator.cpp ****     
 1346              		.loc 11 41 5 view .LVU383
  44:oscillator.cpp ****     
 1347              		.loc 11 44 5 view .LVU384
 1348              	.LBB361:
 1349              	.LBI361:
 415:c:\program files\daisytoolchain\arm-none-eabi\include\c++\10.2.1\cmath ****     {
 1350              		.loc 12 415 5 view .LVU385
 1351              	.LBE361:
 1352              	.LBE360:
 1353              	.LBE359:
  90:oscillator.cpp ****         freqOsc2 = frequencyCheck(freqOsc2, lfo.Process());
 1354              		.loc 11 90 34 is_stmt 0 view .LVU386
 1355 0226 5548     		ldr	r0, .L70+76
 1356              	.LBB366:
 1357              	.LBB364:
  41:oscillator.cpp ****     
 1358              		.loc 11 41 30 view .LVU387
 1359 0228 F8EEE77A 		vcvt.f32.s32	s15, s15
 1360              	.LVL92:
  44:oscillator.cpp ****     
 1361              		.loc 11 44 75 view .LVU388
 1362 022c 9FED4A6B 		vldr.64	d6, .L70+40
  41:oscillator.cpp ****     
 1363              		.loc 11 41 11 view .LVU389
 1364 0230 87EE8E7A 		vdiv.f32	s14, s15, s28
 1365              	.LBB363:
 1366              	.LBB362:
 1367              		.loc 12 418 17 view .LVU390
 1368 0234 B7EEC77A 		vcvt.f64.f32	d7, s14
 1369              	.LVL93:
 1370              		.loc 12 418 17 view .LVU391
 1371 0238 27EE077B 		vmul.f64	d7, d7, d7
 1372              	.LBE362:
 1373              	.LBE363:
  44:oscillator.cpp ****     
 1374              		.loc 11 44 75 view .LVU392
 1375 023c A7EE068B 		vfma.f64	d8, d7, d6
 1376              	.LBE364:
 1377              	.LBE366:
  90:oscillator.cpp ****         freqOsc2 = frequencyCheck(freqOsc2, lfo.Process());
 1378              		.loc 11 90 34 view .LVU393
 1379 0240 FFF7FEFF 		bl	_ZN7daisysp10Oscillator7ProcessEv
 1380              	.LVL94:
  91:oscillator.cpp **** 
 1381              		.loc 11 91 34 view .LVU394
 1382 0244 4D48     		ldr	r0, .L70+76
 1383              	.LBB367:
 1384              	.LBB302:
  44:oscillator.cpp ****     
 1385              		.loc 11 44 77 view .LVU395
 1386 0246 F7EECD7B 		vcvt.f32.f64	s15, d13
 1387              	.LVL95:
  44:oscillator.cpp ****     
ARM GAS  C:\Users\Miguel\AppData\Local\Temp\ccDAyH9H.s 			page 50


 1388              		.loc 11 44 77 view .LVU396
 1389              	.LBE302:
 1390              	.LBE367:
 1391              	.LBB368:
 1392              	.LBB369:
  21:oscillator.cpp **** 
 1393              		.loc 11 21 31 view .LVU397
 1394 024a 27EE80DA 		vmul.f32	s26, s15, s0
  28:oscillator.cpp ****     {
 1395              		.loc 11 28 5 view .LVU398
 1396 024e DFED4C7A 		vldr.32	s15, .L70+80
 1397              	.LVL96:
  21:oscillator.cpp **** 
 1398              		.loc 11 21 11 view .LVU399
 1399 0252 3DEE0DDA 		vadd.f32	s26, s26, s26
 1400              	.LBE369:
 1401              	.LBE368:
 1402              	.LBB371:
 1403              	.LBB365:
  44:oscillator.cpp ****     
 1404              		.loc 11 44 77 view .LVU400
 1405 0256 B7EEC88B 		vcvt.f32.f64	s16, d8
 1406              	.LVL97:
  46:oscillator.cpp **** }
 1407              		.loc 11 46 5 is_stmt 1 view .LVU401
  46:oscillator.cpp **** }
 1408              		.loc 11 46 5 is_stmt 0 view .LVU402
 1409              	.LBE365:
 1410              	.LBE371:
  90:oscillator.cpp ****         freqOsc2 = frequencyCheck(freqOsc2, lfo.Process());
 1411              		.loc 11 90 9 is_stmt 1 view .LVU403
 1412              	.LBB372:
 1413              	.LBI368:
  19:oscillator.cpp **** {
 1414              		.loc 11 19 7 view .LVU404
 1415              	.LBB370:
  21:oscillator.cpp **** 
 1416              		.loc 11 21 5 view .LVU405
  23:oscillator.cpp ****     {
 1417              		.loc 11 23 5 view .LVU406
 1418 025a B5EEC0DA 		vcmpe.f32	s26, #0
 1419 025e F1EE10FA 		vmrs	APSR_nzcv, FPSCR
  25:oscillator.cpp ****     }
 1420              		.loc 11 25 9 view .LVU407
  25:oscillator.cpp ****     }
 1421              		.loc 11 25 14 is_stmt 0 view .LVU408
 1422 0262 48BF     		it	mi
 1423 0264 B1EE4DDA 		vnegmi.f32	s26, s26
 1424              	.LVL98:
  28:oscillator.cpp ****     {
 1425              		.loc 11 28 5 is_stmt 1 view .LVU409
  30:oscillator.cpp ****     }
 1426              		.loc 11 30 14 is_stmt 0 view .LVU410
 1427 0268 B4EE67DA 		vcmp.f32	s26, s15
 1428 026c F1EE10FA 		vmrs	APSR_nzcv, FPSCR
 1429 0270 48BF     		it	mi
 1430 0272 B0EE67DA 		vmovmi.f32	s26, s15
ARM GAS  C:\Users\Miguel\AppData\Local\Temp\ccDAyH9H.s 			page 51


 1431              	.LVL99:
  33:oscillator.cpp **** }
 1432              		.loc 11 33 5 is_stmt 1 view .LVU411
  33:oscillator.cpp **** }
 1433              		.loc 11 33 5 is_stmt 0 view .LVU412
 1434              	.LBE370:
 1435              	.LBE372:
  91:oscillator.cpp **** 
 1436              		.loc 11 91 9 is_stmt 1 view .LVU413
  91:oscillator.cpp **** 
 1437              		.loc 11 91 34 is_stmt 0 view .LVU414
 1438 0276 FFF7FEFF 		bl	_ZN7daisysp10Oscillator7ProcessEv
 1439              	.LVL100:
 1440              	.LBB373:
 1441              	.LBI373:
  19:oscillator.cpp **** {
 1442              		.loc 11 19 7 is_stmt 1 view .LVU415
 1443              	.LBB374:
  21:oscillator.cpp **** 
 1444              		.loc 11 21 5 view .LVU416
  21:oscillator.cpp **** 
 1445              		.loc 11 21 31 is_stmt 0 view .LVU417
 1446 027a 20EE0AAA 		vmul.f32	s20, s0, s20
 1447              	.LVL101:
  28:oscillator.cpp ****     {
 1448              		.loc 11 28 5 view .LVU418
 1449 027e DFED407A 		vldr.32	s15, .L70+80
 1450              	.LBE374:
 1451              	.LBE373:
 1452              	.LBB376:
 1453              	.LBB377:
  70:../../../DaisySP/Source/Synthesis/oscillator.h ****     }
 1454              		.loc 8 70 34 view .LVU419
 1455 0282 3748     		ldr	r0, .L70+48
 1456 0284 B0EE4D0A 		vmov.f32	s0, s26
 1457              	.LVL102:
  69:../../../DaisySP/Source/Synthesis/oscillator.h ****         phase_inc_ = CalcPhaseInc(f);
 1458              		.loc 8 69 20 view .LVU420
 1459 0288 86ED02DA 		vstr.32	s26, [r6, #8]
 1460              	.LBE377:
 1461              	.LBE376:
 1462              	.LBB380:
 1463              	.LBB375:
  21:oscillator.cpp **** 
 1464              		.loc 11 21 11 view .LVU421
 1465 028c 3AEE0AAA 		vadd.f32	s20, s20, s20
 1466              	.LVL103:
  23:oscillator.cpp ****     {
 1467              		.loc 11 23 5 is_stmt 1 view .LVU422
 1468 0290 B5EEC0AA 		vcmpe.f32	s20, #0
 1469 0294 F1EE10FA 		vmrs	APSR_nzcv, FPSCR
  25:oscillator.cpp ****     }
 1470              		.loc 11 25 9 view .LVU423
  25:oscillator.cpp ****     }
 1471              		.loc 11 25 14 is_stmt 0 view .LVU424
 1472 0298 48BF     		it	mi
 1473 029a B1EE4AAA 		vnegmi.f32	s20, s20
ARM GAS  C:\Users\Miguel\AppData\Local\Temp\ccDAyH9H.s 			page 52


 1474              	.LVL104:
  28:oscillator.cpp ****     {
 1475              		.loc 11 28 5 is_stmt 1 view .LVU425
  30:oscillator.cpp ****     }
 1476              		.loc 11 30 14 is_stmt 0 view .LVU426
 1477 029e B4EE67AA 		vcmp.f32	s20, s15
 1478 02a2 F1EE10FA 		vmrs	APSR_nzcv, FPSCR
 1479 02a6 48BF     		it	mi
 1480 02a8 B0EE67AA 		vmovmi.f32	s20, s15
 1481              	.LVL105:
  33:oscillator.cpp **** }
 1482              		.loc 11 33 5 is_stmt 1 view .LVU427
  33:oscillator.cpp **** }
 1483              		.loc 11 33 5 is_stmt 0 view .LVU428
 1484              	.LBE375:
 1485              	.LBE380:
  94:oscillator.cpp ****         osc2.SetFreq(freqOsc2);
 1486              		.loc 11 94 9 is_stmt 1 view .LVU429
 1487              	.LBB381:
 1488              	.LBI376:
  67:../../../DaisySP/Source/Synthesis/oscillator.h ****     {
 1489              		.loc 8 67 17 view .LVU430
 1490              	.LBB378:
  69:../../../DaisySP/Source/Synthesis/oscillator.h ****         phase_inc_ = CalcPhaseInc(f);
 1491              		.loc 8 69 9 view .LVU431
  70:../../../DaisySP/Source/Synthesis/oscillator.h ****     }
 1492              		.loc 8 70 9 view .LVU432
  70:../../../DaisySP/Source/Synthesis/oscillator.h ****     }
 1493              		.loc 8 70 34 is_stmt 0 view .LVU433
 1494 02ac FFF7FEFF 		bl	_ZN7daisysp10Oscillator12CalcPhaseIncEf
 1495              	.LVL106:
 1496 02b0 F0EE407A 		vmov.f32	s15, s0
 1497              	.LBE378:
 1498              	.LBE381:
 1499              	.LBB382:
 1500              	.LBB383:
 1501 02b4 2B48     		ldr	r0, .L70+52
 1502 02b6 B0EE4A0A 		vmov.f32	s0, s20
  69:../../../DaisySP/Source/Synthesis/oscillator.h ****         phase_inc_ = CalcPhaseInc(f);
 1503              		.loc 8 69 20 view .LVU434
 1504 02ba 85ED02AA 		vstr.32	s20, [r5, #8]
 1505              	.LBE383:
 1506              	.LBE382:
 1507              	.LBB386:
 1508              	.LBB379:
  70:../../../DaisySP/Source/Synthesis/oscillator.h ****     }
 1509              		.loc 8 70 20 view .LVU435
 1510 02be C6ED077A 		vstr.32	s15, [r6, #28]
 1511              	.LVL107:
  70:../../../DaisySP/Source/Synthesis/oscillator.h ****     }
 1512              		.loc 8 70 20 view .LVU436
 1513              	.LBE379:
 1514              	.LBE386:
  95:oscillator.cpp ****         oscillator.SetAmp(ampOsc1);
 1515              		.loc 11 95 9 is_stmt 1 view .LVU437
 1516              	.LBB387:
 1517              	.LBI382:
ARM GAS  C:\Users\Miguel\AppData\Local\Temp\ccDAyH9H.s 			page 53


  67:../../../DaisySP/Source/Synthesis/oscillator.h ****     {
 1518              		.loc 8 67 17 view .LVU438
 1519              	.LBB384:
  69:../../../DaisySP/Source/Synthesis/oscillator.h ****         phase_inc_ = CalcPhaseInc(f);
 1520              		.loc 8 69 9 view .LVU439
  70:../../../DaisySP/Source/Synthesis/oscillator.h ****     }
 1521              		.loc 8 70 9 view .LVU440
  70:../../../DaisySP/Source/Synthesis/oscillator.h ****     }
 1522              		.loc 8 70 34 is_stmt 0 view .LVU441
 1523 02c2 FFF7FEFF 		bl	_ZN7daisysp10Oscillator12CalcPhaseIncEf
 1524              	.LVL108:
 1525              	.LBE384:
 1526              	.LBE387:
 1527              	.LBB388:
 1528              	.LBB389:
  76:../../../DaisySP/Source/Synthesis/oscillator.h ****     /** Sets the waveform to be synthesized by the Process() function.
 1529              		.loc 8 76 46 view .LVU442
 1530 02c6 86ED01FA 		vstr.32	s30, [r6, #4]
 1531              	.LBE389:
 1532              	.LBE388:
 1533              	.LBB391:
 1534              	.LBB385:
  70:../../../DaisySP/Source/Synthesis/oscillator.h ****     }
 1535              		.loc 8 70 20 view .LVU443
 1536 02ca 85ED070A 		vstr.32	s0, [r5, #28]
 1537              	.LVL109:
  70:../../../DaisySP/Source/Synthesis/oscillator.h ****     }
 1538              		.loc 8 70 20 view .LVU444
 1539              	.LBE385:
 1540              	.LBE391:
  96:oscillator.cpp ****         osc2.SetAmp(ampOsc2);
 1541              		.loc 11 96 9 is_stmt 1 view .LVU445
 1542              	.LBB392:
 1543              	.LBI388:
  76:../../../DaisySP/Source/Synthesis/oscillator.h ****     /** Sets the waveform to be synthesized by the Process() function.
 1544              		.loc 8 76 17 view .LVU446
 1545              	.LBB390:
  76:../../../DaisySP/Source/Synthesis/oscillator.h ****     /** Sets the waveform to be synthesized by the Process() function.
 1546              		.loc 8 76 41 view .LVU447
  76:../../../DaisySP/Source/Synthesis/oscillator.h ****     /** Sets the waveform to be synthesized by the Process() function.
 1547              		.loc 8 76 41 is_stmt 0 view .LVU448
 1548              	.LBE390:
 1549              	.LBE392:
  97:oscillator.cpp ****         changeWaveForm();
 1550              		.loc 11 97 9 is_stmt 1 view .LVU449
 1551              	.LBB393:
 1552              	.LBI393:
  76:../../../DaisySP/Source/Synthesis/oscillator.h ****     /** Sets the waveform to be synthesized by the Process() function.
 1553              		.loc 8 76 17 view .LVU450
 1554              	.LBB394:
  76:../../../DaisySP/Source/Synthesis/oscillator.h ****     /** Sets the waveform to be synthesized by the Process() function.
 1555              		.loc 8 76 41 view .LVU451
  76:../../../DaisySP/Source/Synthesis/oscillator.h ****     /** Sets the waveform to be synthesized by the Process() function.
 1556              		.loc 8 76 41 is_stmt 0 view .LVU452
 1557              	.LBE394:
 1558              	.LBE393:
  98:oscillator.cpp ****         // Update tick frequency
ARM GAS  C:\Users\Miguel\AppData\Local\Temp\ccDAyH9H.s 			page 54


 1559              		.loc 11 98 9 is_stmt 1 view .LVU453
 1560              	.LBB396:
 1561              	.LBB395:
  76:../../../DaisySP/Source/Synthesis/oscillator.h ****     /** Sets the waveform to be synthesized by the Process() function.
 1562              		.loc 8 76 46 is_stmt 0 view .LVU454
 1563 02ce C5ED01EA 		vstr.32	s29, [r5, #4]
 1564              	.LBE395:
 1565              	.LBE396:
  98:oscillator.cpp ****         // Update tick frequency
 1566              		.loc 11 98 23 view .LVU455
 1567 02d2 FFF7FEFF 		bl	_Z14changeWaveFormv
 1568              	.LVL110:
 100:oscillator.cpp **** 
 1569              		.loc 11 100 9 is_stmt 1 view .LVU456
 100:oscillator.cpp **** 
 1570              		.loc 11 100 21 is_stmt 0 view .LVU457
 1571 02d6 B0EE490A 		vmov.f32	s0, s18
 1572 02da 2548     		ldr	r0, .L70+64
 1573 02dc FFF7FEFF 		bl	_ZN7daisysp5Metro7SetFreqEf
 1574              	.LVL111:
 103:oscillator.cpp ****         env.SetTime(ADSR_SEG_DECAY, envDecay);
 1575              		.loc 11 103 9 is_stmt 1 view .LVU458
 103:oscillator.cpp ****         env.SetTime(ADSR_SEG_DECAY, envDecay);
 1576              		.loc 11 103 20 is_stmt 0 view .LVU459
 1577 02e0 B0EE6C0A 		vmov.f32	s0, s25
 1578 02e4 0121     		movs	r1, #1
 1579 02e6 2048     		ldr	r0, .L70+56
 1580 02e8 FFF7FEFF 		bl	_ZN7daisysp4Adsr7SetTimeEif
 1581              	.LVL112:
 104:oscillator.cpp ****         env.SetSustainLevel(sustain);
 1582              		.loc 11 104 9 is_stmt 1 view .LVU460
 104:oscillator.cpp ****         env.SetSustainLevel(sustain);
 1583              		.loc 11 104 20 is_stmt 0 view .LVU461
 1584 02ec B0EE4C0A 		vmov.f32	s0, s24
 1585 02f0 0221     		movs	r1, #2
 1586 02f2 1D48     		ldr	r0, .L70+56
 1587 02f4 FFF7FEFF 		bl	_ZN7daisysp4Adsr7SetTimeEif
 1588              	.LVL113:
 105:oscillator.cpp **** 
 1589              		.loc 11 105 9 is_stmt 1 view .LVU462
 1590              	.LBB397:
 1591              	.LBI268:
  74:../../../DaisySP/Source/Control/adsr.h ****     {
 1592              		.loc 7 74 17 view .LVU463
 1593              	.LBB271:
  76:../../../DaisySP/Source/Control/adsr.h ****                                        : (sus_level > 1.f) ? 1.f : sus_level;
 1594              		.loc 7 76 9 view .LVU464
  76:../../../DaisySP/Source/Control/adsr.h ****                                        : (sus_level > 1.f) ? 1.f : sus_level;
 1595              		.loc 7 76 40 is_stmt 0 view .LVU465
 1596 02f8 F5EEC0AA 		vcmpe.f32	s21, #0
 1597 02fc F1EE10FA 		vmrs	APSR_nzcv, FPSCR
 1598 0300 3FF692AE 		bhi	.L69
 1599 0304 DFED1FAA 		vldr.32	s21, .L70+84
 1600              	.LVL114:
  76:../../../DaisySP/Source/Control/adsr.h ****                                        : (sus_level > 1.f) ? 1.f : sus_level;
 1601              		.loc 7 76 40 view .LVU466
 1602 0308 96E6     		b	.L46
ARM GAS  C:\Users\Miguel\AppData\Local\Temp\ccDAyH9H.s 			page 55


 1603              	.LVL115:
 1604              	.L67:
  76:../../../DaisySP/Source/Control/adsr.h ****                                        : (sus_level > 1.f) ? 1.f : sus_level;
 1605              		.loc 7 76 40 view .LVU467
 1606              	.LBE271:
 1607              	.LBE397:
 118:oscillator.cpp ****         }
 1608              		.loc 11 118 13 is_stmt 1 view .LVU468
 118:oscillator.cpp ****         }
 1609              		.loc 11 118 27 is_stmt 0 view .LVU469
 1610 030a D7E90031 		ldrd	r3, r1, [r7]
 1611              	.LBE400:
  71:oscillator.cpp ****     {
 1612              		.loc 11 71 5 view .LVU470
 1613 030e 0134     		adds	r4, r4, #1
 1614              	.LVL116:
 1615              	.LBB401:
 118:oscillator.cpp ****         }
 1616              		.loc 11 118 27 view .LVU471
 1617 0310 03AA     		add	r2, sp, #12
 1618 0312 0091     		str	r1, [sp]
 1619 0314 02A9     		add	r1, sp, #8
 1620 0316 1C48     		ldr	r0, .L70+88
 1621 0318 FFF7FEFF 		bl	_ZN7daisysp8ReverbSc7ProcessERKfS2_PfS3_
 1622              	.LVL117:
 118:oscillator.cpp ****         }
 1623              		.loc 11 118 27 view .LVU472
 1624              	.LBE401:
  71:oscillator.cpp ****     {
 1625              		.loc 11 71 5 is_stmt 1 view .LVU473
  71:oscillator.cpp ****     {
 1626              		.loc 11 71 26 view .LVU474
 1627 031c A245     		cmp	r10, r4
 1628 031e 7FF4BCAE 		bne	.L36
 1629              	.L68:
  71:oscillator.cpp ****     {
 1630              		.loc 11 71 26 is_stmt 0 view .LVU475
 1631              	.LBE403:
 125:oscillator.cpp ****         }   
 126:oscillator.cpp ****     }
 127:oscillator.cpp **** }
 1632              		.loc 11 127 1 view .LVU476
 1633 0322 05B0     		add	sp, sp, #20
 1634              		.cfi_def_cfa_offset 100
 1635              		@ sp needed
 1636 0324 BDEC108B 		vldm	sp!, {d8-d15}
 1637              		.cfi_restore 94
 1638              		.cfi_restore 95
 1639              		.cfi_restore 92
 1640              		.cfi_restore 93
 1641              		.cfi_restore 90
 1642              		.cfi_restore 91
 1643              		.cfi_restore 88
 1644              		.cfi_restore 89
 1645              		.cfi_restore 86
 1646              		.cfi_restore 87
 1647              		.cfi_restore 84
ARM GAS  C:\Users\Miguel\AppData\Local\Temp\ccDAyH9H.s 			page 56


 1648              		.cfi_restore 85
 1649              		.cfi_restore 82
 1650              		.cfi_restore 83
 1651              		.cfi_restore 80
 1652              		.cfi_restore 81
 1653              		.cfi_def_cfa_offset 36
 1654              	.LVL118:
 1655              		.loc 11 127 1 view .LVU477
 1656 0328 BDE8F08F 		pop	{r4, r5, r6, r7, r8, r9, r10, fp, pc}
 1657              	.LVL119:
 1658              	.L64:
 1659              		.cfi_def_cfa_offset 0
 1660              		.cfi_restore 4
 1661              		.cfi_restore 5
 1662              		.cfi_restore 6
 1663              		.cfi_restore 7
 1664              		.cfi_restore 8
 1665              		.cfi_restore 9
 1666              		.cfi_restore 10
 1667              		.cfi_restore 11
 1668              		.cfi_restore 14
 1669              		.loc 11 127 1 view .LVU478
 1670 032c 7047     		bx	lr
 1671              	.L71:
 1672 032e 00BF     		.align	3
 1673              	.L70:
 1674 0330 00000000 		.word	0
 1675 0334 00000000 		.word	0
 1676 0338 00000000 		.word	0
 1677 033c 00803B40 		.word	1077641216
 1678 0340 00000000 		.word	0
 1679 0344 803EB040 		.word	1085292160
 1680 0348 00000000 		.word	0
 1681 034c 0017E140 		.word	1088493312
 1682 0350 00000000 		.word	0
 1683 0354 00408F40 		.word	1083129856
 1684 0358 000000C0 		.word	-1073741824
 1685 035c CCCCEC3F 		.word	1072483532
 1686 0360 00000000 		.word	.LANCHOR1
 1687 0364 00000000 		.word	.LANCHOR7
 1688 0368 00000000 		.word	.LANCHOR8
 1689 036c CDCC4C3D 		.word	1028443341
 1690 0370 00000000 		.word	.LANCHOR3
 1691 0374 18000000 		.word	.LANCHOR5+24
 1692 0378 00FE7F47 		.word	1199570432
 1693 037c 00000000 		.word	.LANCHOR6
 1694 0380 0000DC41 		.word	1104936960
 1695 0384 0AD723BC 		.word	-1138501878
 1696 0388 00000000 		.word	_ZL6reverb
 1697 038c 00000000 		.word	.LANCHOR4
 1698              		.cfi_endproc
 1699              	.LFE4849:
 1701              		.section	.text.startup.main,"ax",%progbits
 1702              		.align	1
 1703              		.p2align 2,,3
 1704              		.global	main
 1705              		.syntax unified
ARM GAS  C:\Users\Miguel\AppData\Local\Temp\ccDAyH9H.s 			page 57


 1706              		.thumb
 1707              		.thumb_func
 1708              		.fpu fpv5-d16
 1710              	main:
 1711              	.LFB4850:
 128:oscillator.cpp **** 
 129:oscillator.cpp **** int main(void)
 130:oscillator.cpp **** {
 1712              		.loc 11 130 1 is_stmt 1 view -0
 1713              		.cfi_startproc
 1714              		@ Volatile: function does not return.
 1715              		@ args = 0, pretend = 0, frame = 224
 1716              		@ frame_needed = 0, uses_anonymous_args = 0
 131:oscillator.cpp ****     hw.Init();
 1717              		.loc 11 131 5 view .LVU480
 130:oscillator.cpp ****     hw.Init();
 1718              		.loc 11 130 1 is_stmt 0 view .LVU481
 1719 0000 80B5     		push	{r7, lr}
 1720              		.cfi_def_cfa_offset 8
 1721              		.cfi_offset 7, -8
 1722              		.cfi_offset 14, -4
 1723              		.loc 11 131 12 view .LVU482
 1724 0002 0021     		movs	r1, #0
 130:oscillator.cpp ****     hw.Init();
 1725              		.loc 11 130 1 view .LVU483
 1726 0004 B8B0     		sub	sp, sp, #224
 1727              		.cfi_def_cfa_offset 232
 1728              		.loc 11 131 12 view .LVU484
 1729 0006 7748     		ldr	r0, .L75
 1730              	.LBB424:
 1731              	.LBB425:
 1732              		.loc 7 78 20 view .LVU485
 1733 0008 B6EE008A 		vmov.f32	s16, #5.0e-1
 1734              	.LBE425:
 1735              	.LBE424:
 1736              		.loc 11 131 12 view .LVU486
 1737 000c FFF7FEFF 		bl	_ZN5daisy9DaisySeed4InitEb
 1738              	.LVL120:
 132:oscillator.cpp ****     hw.SetAudioBlockSize(4);
 1739              		.loc 11 132 5 is_stmt 1 view .LVU487
 1740              		.loc 11 132 25 is_stmt 0 view .LVU488
 1741 0010 0421     		movs	r1, #4
 1742 0012 7448     		ldr	r0, .L75
 1743 0014 FFF7FEFF 		bl	_ZN5daisy9DaisySeed17SetAudioBlockSizeEj
 1744              	.LVL121:
 133:oscillator.cpp ****     sampleRate = hw.AudioSampleRate();
 1745              		.loc 11 133 5 is_stmt 1 view .LVU489
 1746              		.loc 11 133 36 is_stmt 0 view .LVU490
 1747 0018 7248     		ldr	r0, .L75
 1748 001a FFF7FEFF 		bl	_ZN5daisy9DaisySeed15AudioSampleRateEv
 1749              	.LVL122:
 1750              	.LBB428:
 1751              	.LBB429:
  25:../../../libDaisy/src/hid/switch3.h ****         pina_gpio_.mode = DSY_GPIO_MODE_INPUT;
 1752              		.loc 1 25 25 view .LVU491
 1753 001e 724D     		ldr	r5, .L75+4
 1754 0020 724B     		ldr	r3, .L75+8
ARM GAS  C:\Users\Miguel\AppData\Local\Temp\ccDAyH9H.s 			page 58


 1755              	.LBE429:
 1756              	.LBE428:
 1757              		.loc 11 133 16 view .LVU492
 1758 0022 734C     		ldr	r4, .L75+12
 1759              	.LBB433:
 1760              	.LBB430:
  28:../../../libDaisy/src/hid/switch3.h **** 
 1761              		.loc 1 28 22 view .LVU493
 1762 0024 2846     		mov	r0, r5
  25:../../../libDaisy/src/hid/switch3.h ****         pina_gpio_.mode = DSY_GPIO_MODE_INPUT;
 1763              		.loc 1 25 25 view .LVU494
 1764 0026 2B60     		str	r3, [r5]
 1765              	.LBE430:
 1766              	.LBE433:
 1767              		.loc 11 133 16 view .LVU495
 1768 0028 84ED000A 		vstr.32	s0, [r4]
 134:oscillator.cpp **** 
 135:oscillator.cpp ****     toggleWaveForm.Init(seed::D29, seed::D30);
 1769              		.loc 11 135 5 is_stmt 1 view .LVU496
 1770              	.LVL123:
 1771              	.LBB434:
 1772              	.LBI428:
  23:../../../libDaisy/src/hid/switch3.h ****     {
 1773              		.loc 1 23 10 view .LVU497
 1774              	.LBB431:
  25:../../../libDaisy/src/hid/switch3.h ****         pina_gpio_.mode = DSY_GPIO_MODE_INPUT;
 1775              		.loc 1 25 9 view .LVU498
  26:../../../libDaisy/src/hid/switch3.h ****         pina_gpio_.pull = DSY_GPIO_PULLUP;
 1776              		.loc 1 26 9 view .LVU499
  27:../../../libDaisy/src/hid/switch3.h ****         dsy_gpio_init(&pina_gpio_);
 1777              		.loc 1 27 9 view .LVU500
  28:../../../libDaisy/src/hid/switch3.h **** 
 1778              		.loc 1 28 9 view .LVU501
  28:../../../libDaisy/src/hid/switch3.h **** 
 1779              		.loc 1 28 22 is_stmt 0 view .LVU502
 1780 002c FFF7FEFF 		bl	dsy_gpio_init
 1781              	.LVL124:
  30:../../../libDaisy/src/hid/switch3.h ****         pinb_gpio_.mode = DSY_GPIO_MODE_INPUT;
 1782              		.loc 1 30 9 is_stmt 1 view .LVU503
  31:../../../libDaisy/src/hid/switch3.h ****         pinb_gpio_.pull = DSY_GPIO_PULLUP;
 1783              		.loc 1 31 9 view .LVU504
  32:../../../libDaisy/src/hid/switch3.h ****         dsy_gpio_init(&pinb_gpio_);
 1784              		.loc 1 32 9 view .LVU505
  30:../../../libDaisy/src/hid/switch3.h ****         pinb_gpio_.mode = DSY_GPIO_MODE_INPUT;
 1785              		.loc 1 30 25 is_stmt 0 view .LVU506
 1786 0030 2846     		mov	r0, r5
 1787 0032 704B     		ldr	r3, .L75+16
 1788              	.LBE431:
 1789              	.LBE434:
 1790              	.LBB435:
 1791              	.LBB436:
  25:../../../libDaisy/src/hid/switch3.h ****         pina_gpio_.mode = DSY_GPIO_MODE_INPUT;
 1792              		.loc 1 25 25 view .LVU507
 1793 0034 704D     		ldr	r5, .L75+20
 1794              	.LBE436:
 1795              	.LBE435:
 1796              	.LBB440:
ARM GAS  C:\Users\Miguel\AppData\Local\Temp\ccDAyH9H.s 			page 59


 1797              	.LBB432:
  30:../../../libDaisy/src/hid/switch3.h ****         pinb_gpio_.mode = DSY_GPIO_MODE_INPUT;
 1798              		.loc 1 30 25 view .LVU508
 1799 0036 40F8043F 		str	r3, [r0, #4]!
  33:../../../libDaisy/src/hid/switch3.h ****     }
 1800              		.loc 1 33 9 is_stmt 1 view .LVU509
  33:../../../libDaisy/src/hid/switch3.h ****     }
 1801              		.loc 1 33 22 is_stmt 0 view .LVU510
 1802 003a FFF7FEFF 		bl	dsy_gpio_init
 1803              	.LVL125:
  33:../../../libDaisy/src/hid/switch3.h ****     }
 1804              		.loc 1 33 22 view .LVU511
 1805              	.LBE432:
 1806              	.LBE440:
 136:oscillator.cpp ****     toggleWaveForm2.Init(seed::D14, seed::D13);
 1807              		.loc 11 136 5 is_stmt 1 view .LVU512
 1808              	.LBB441:
 1809              	.LBI435:
  23:../../../libDaisy/src/hid/switch3.h ****     {
 1810              		.loc 1 23 10 view .LVU513
 1811              	.LBB437:
  25:../../../libDaisy/src/hid/switch3.h ****         pina_gpio_.mode = DSY_GPIO_MODE_INPUT;
 1812              		.loc 1 25 9 view .LVU514
  26:../../../libDaisy/src/hid/switch3.h ****         pina_gpio_.pull = DSY_GPIO_PULLUP;
 1813              		.loc 1 26 9 view .LVU515
  27:../../../libDaisy/src/hid/switch3.h ****         dsy_gpio_init(&pina_gpio_);
 1814              		.loc 1 27 9 view .LVU516
  25:../../../libDaisy/src/hid/switch3.h ****         pina_gpio_.mode = DSY_GPIO_MODE_INPUT;
 1815              		.loc 1 25 25 is_stmt 0 view .LVU517
 1816 003e 6F4B     		ldr	r3, .L75+24
  28:../../../libDaisy/src/hid/switch3.h **** 
 1817              		.loc 1 28 22 view .LVU518
 1818 0040 2846     		mov	r0, r5
 1819              	.LBE437:
 1820              	.LBE441:
 137:oscillator.cpp **** 
 138:oscillator.cpp ****     AdcChannelConfig adcConfig[10];
 139:oscillator.cpp **** 
 140:oscillator.cpp ****     adcConfig[0].InitSingle(hw.GetPin(20));
 141:oscillator.cpp ****     adcConfig[1].InitSingle(hw.GetPin(17));
 142:oscillator.cpp ****     adcConfig[2].InitSingle(hw.GetPin(21));
 143:oscillator.cpp ****     adcConfig[3].InitSingle(hw.GetPin(18));
 144:oscillator.cpp ****     adcConfig[4].InitSingle(hw.GetPin(16));
 145:oscillator.cpp ****     adcConfig[5].InitSingle(hw.GetPin(22));
 146:oscillator.cpp ****     adcConfig[6].InitSingle(hw.GetPin(23));
 147:oscillator.cpp ****     adcConfig[7].InitSingle(hw.GetPin(24));
 148:oscillator.cpp ****     adcConfig[8].InitSingle(hw.GetPin(15));
 149:oscillator.cpp ****     adcConfig[9].InitSingle(hw.GetPin(19));
 150:oscillator.cpp **** 
 151:oscillator.cpp ****     hw.adc.Init(adcConfig, 10);
 152:oscillator.cpp ****     hw.adc.Start();
 153:oscillator.cpp ****     hw.StartLog();
 154:oscillator.cpp **** 
 155:oscillator.cpp ****     // Audio Oscillator
 156:oscillator.cpp ****     oscillator.Init(sampleRate);
 1821              		.loc 11 156 20 view .LVU519
 1822 0042 6F4F     		ldr	r7, .L75+28
ARM GAS  C:\Users\Miguel\AppData\Local\Temp\ccDAyH9H.s 			page 60


 1823              	.LBB442:
 1824              	.LBB438:
  25:../../../libDaisy/src/hid/switch3.h ****         pina_gpio_.mode = DSY_GPIO_MODE_INPUT;
 1825              		.loc 1 25 25 view .LVU520
 1826 0044 2B60     		str	r3, [r5]
  28:../../../libDaisy/src/hid/switch3.h **** 
 1827              		.loc 1 28 9 is_stmt 1 view .LVU521
  28:../../../libDaisy/src/hid/switch3.h **** 
 1828              		.loc 1 28 22 is_stmt 0 view .LVU522
 1829 0046 FFF7FEFF 		bl	dsy_gpio_init
 1830              	.LVL126:
  30:../../../libDaisy/src/hid/switch3.h ****         pinb_gpio_.mode = DSY_GPIO_MODE_INPUT;
 1831              		.loc 1 30 9 is_stmt 1 view .LVU523
  31:../../../libDaisy/src/hid/switch3.h ****         pinb_gpio_.pull = DSY_GPIO_PULLUP;
 1832              		.loc 1 31 9 view .LVU524
  32:../../../libDaisy/src/hid/switch3.h ****         dsy_gpio_init(&pinb_gpio_);
 1833              		.loc 1 32 9 view .LVU525
  30:../../../libDaisy/src/hid/switch3.h ****         pinb_gpio_.mode = DSY_GPIO_MODE_INPUT;
 1834              		.loc 1 30 25 is_stmt 0 view .LVU526
 1835 004a 6E4B     		ldr	r3, .L75+32
 1836 004c 2846     		mov	r0, r5
 1837              	.LBE438:
 1838              	.LBE442:
 157:oscillator.cpp ****     osc2.Init(sampleRate);
 1839              		.loc 11 157 14 view .LVU527
 1840 004e 6E4E     		ldr	r6, .L75+36
 158:oscillator.cpp ****     oscillator.SetWaveform(oscillator.WAVE_POLYBLEP_SAW);
 159:oscillator.cpp ****     osc2.SetWaveform(oscillator.WAVE_SQUARE);
 160:oscillator.cpp **** 
 161:oscillator.cpp ****     // LFO
 162:oscillator.cpp ****     lfo.Init(sampleRate);
 1841              		.loc 11 162 13 view .LVU528
 1842 0050 6E4D     		ldr	r5, .L75+40
 1843              	.LBB443:
 1844              	.LBB439:
  30:../../../libDaisy/src/hid/switch3.h ****         pinb_gpio_.mode = DSY_GPIO_MODE_INPUT;
 1845              		.loc 1 30 25 view .LVU529
 1846 0052 40F8043F 		str	r3, [r0, #4]!
  33:../../../libDaisy/src/hid/switch3.h ****     }
 1847              		.loc 1 33 9 is_stmt 1 view .LVU530
  33:../../../libDaisy/src/hid/switch3.h ****     }
 1848              		.loc 1 33 22 is_stmt 0 view .LVU531
 1849 0056 FFF7FEFF 		bl	dsy_gpio_init
 1850              	.LVL127:
  33:../../../libDaisy/src/hid/switch3.h ****     }
 1851              		.loc 1 33 22 view .LVU532
 1852              	.LBE439:
 1853              	.LBE443:
 138:oscillator.cpp **** 
 1854              		.loc 11 138 5 is_stmt 1 view .LVU533
 140:oscillator.cpp ****     adcConfig[1].InitSingle(hw.GetPin(17));
 1855              		.loc 11 140 5 view .LVU534
 140:oscillator.cpp ****     adcConfig[1].InitSingle(hw.GetPin(17));
 1856              		.loc 11 140 28 is_stmt 0 view .LVU535
 1857 005a 1420     		movs	r0, #20
 1858 005c FFF7FEFF 		bl	_ZN5daisy9DaisySeed6GetPinEh
 1859              	.LVL128:
ARM GAS  C:\Users\Miguel\AppData\Local\Temp\ccDAyH9H.s 			page 61


 1860 0060 ADF80400 		strh	r0, [sp, #4]	@ movhi
 1861 0064 0222     		movs	r2, #2
 1862 0066 0199     		ldr	r1, [sp, #4]
 1863 0068 0BA8     		add	r0, sp, #44
 1864 006a FFF7FEFF 		bl	_ZN5daisy16AdcChannelConfig10InitSingleE12dsy_gpio_pinNS0_15ConversionSpeedE
 1865              	.LVL129:
 141:oscillator.cpp ****     adcConfig[2].InitSingle(hw.GetPin(21));
 1866              		.loc 11 141 5 is_stmt 1 view .LVU536
 141:oscillator.cpp ****     adcConfig[2].InitSingle(hw.GetPin(21));
 1867              		.loc 11 141 28 is_stmt 0 view .LVU537
 1868 006e 1120     		movs	r0, #17
 1869 0070 FFF7FEFF 		bl	_ZN5daisy9DaisySeed6GetPinEh
 1870              	.LVL130:
 1871 0074 ADF80800 		strh	r0, [sp, #8]	@ movhi
 1872 0078 0222     		movs	r2, #2
 1873 007a 0299     		ldr	r1, [sp, #8]
 1874 007c 0DF13E00 		add	r0, sp, #62
 1875 0080 FFF7FEFF 		bl	_ZN5daisy16AdcChannelConfig10InitSingleE12dsy_gpio_pinNS0_15ConversionSpeedE
 1876              	.LVL131:
 142:oscillator.cpp ****     adcConfig[3].InitSingle(hw.GetPin(18));
 1877              		.loc 11 142 5 is_stmt 1 view .LVU538
 142:oscillator.cpp ****     adcConfig[3].InitSingle(hw.GetPin(18));
 1878              		.loc 11 142 28 is_stmt 0 view .LVU539
 1879 0084 1520     		movs	r0, #21
 1880 0086 FFF7FEFF 		bl	_ZN5daisy9DaisySeed6GetPinEh
 1881              	.LVL132:
 1882 008a ADF80C00 		strh	r0, [sp, #12]	@ movhi
 1883 008e 0222     		movs	r2, #2
 1884 0090 0399     		ldr	r1, [sp, #12]
 1885 0092 14A8     		add	r0, sp, #80
 1886 0094 FFF7FEFF 		bl	_ZN5daisy16AdcChannelConfig10InitSingleE12dsy_gpio_pinNS0_15ConversionSpeedE
 1887              	.LVL133:
 143:oscillator.cpp ****     adcConfig[4].InitSingle(hw.GetPin(16));
 1888              		.loc 11 143 5 is_stmt 1 view .LVU540
 143:oscillator.cpp ****     adcConfig[4].InitSingle(hw.GetPin(16));
 1889              		.loc 11 143 28 is_stmt 0 view .LVU541
 1890 0098 1220     		movs	r0, #18
 1891 009a FFF7FEFF 		bl	_ZN5daisy9DaisySeed6GetPinEh
 1892              	.LVL134:
 1893 009e ADF81000 		strh	r0, [sp, #16]	@ movhi
 1894 00a2 0222     		movs	r2, #2
 1895 00a4 0499     		ldr	r1, [sp, #16]
 1896 00a6 0DF16200 		add	r0, sp, #98
 1897 00aa FFF7FEFF 		bl	_ZN5daisy16AdcChannelConfig10InitSingleE12dsy_gpio_pinNS0_15ConversionSpeedE
 1898              	.LVL135:
 144:oscillator.cpp ****     adcConfig[5].InitSingle(hw.GetPin(22));
 1899              		.loc 11 144 5 is_stmt 1 view .LVU542
 144:oscillator.cpp ****     adcConfig[5].InitSingle(hw.GetPin(22));
 1900              		.loc 11 144 28 is_stmt 0 view .LVU543
 1901 00ae 1020     		movs	r0, #16
 1902 00b0 FFF7FEFF 		bl	_ZN5daisy9DaisySeed6GetPinEh
 1903              	.LVL136:
 1904 00b4 ADF81400 		strh	r0, [sp, #20]	@ movhi
 1905 00b8 0222     		movs	r2, #2
 1906 00ba 0599     		ldr	r1, [sp, #20]
 1907 00bc 1DA8     		add	r0, sp, #116
 1908 00be FFF7FEFF 		bl	_ZN5daisy16AdcChannelConfig10InitSingleE12dsy_gpio_pinNS0_15ConversionSpeedE
ARM GAS  C:\Users\Miguel\AppData\Local\Temp\ccDAyH9H.s 			page 62


 1909              	.LVL137:
 145:oscillator.cpp ****     adcConfig[6].InitSingle(hw.GetPin(23));
 1910              		.loc 11 145 5 is_stmt 1 view .LVU544
 145:oscillator.cpp ****     adcConfig[6].InitSingle(hw.GetPin(23));
 1911              		.loc 11 145 28 is_stmt 0 view .LVU545
 1912 00c2 1620     		movs	r0, #22
 1913 00c4 FFF7FEFF 		bl	_ZN5daisy9DaisySeed6GetPinEh
 1914              	.LVL138:
 1915 00c8 ADF81800 		strh	r0, [sp, #24]	@ movhi
 1916 00cc 0222     		movs	r2, #2
 1917 00ce 0699     		ldr	r1, [sp, #24]
 1918 00d0 0DF18600 		add	r0, sp, #134
 1919 00d4 FFF7FEFF 		bl	_ZN5daisy16AdcChannelConfig10InitSingleE12dsy_gpio_pinNS0_15ConversionSpeedE
 1920              	.LVL139:
 146:oscillator.cpp ****     adcConfig[7].InitSingle(hw.GetPin(24));
 1921              		.loc 11 146 5 is_stmt 1 view .LVU546
 146:oscillator.cpp ****     adcConfig[7].InitSingle(hw.GetPin(24));
 1922              		.loc 11 146 28 is_stmt 0 view .LVU547
 1923 00d8 1720     		movs	r0, #23
 1924 00da FFF7FEFF 		bl	_ZN5daisy9DaisySeed6GetPinEh
 1925              	.LVL140:
 1926 00de ADF81C00 		strh	r0, [sp, #28]	@ movhi
 1927 00e2 0222     		movs	r2, #2
 1928 00e4 0799     		ldr	r1, [sp, #28]
 1929 00e6 26A8     		add	r0, sp, #152
 1930 00e8 FFF7FEFF 		bl	_ZN5daisy16AdcChannelConfig10InitSingleE12dsy_gpio_pinNS0_15ConversionSpeedE
 1931              	.LVL141:
 147:oscillator.cpp ****     adcConfig[8].InitSingle(hw.GetPin(15));
 1932              		.loc 11 147 5 is_stmt 1 view .LVU548
 147:oscillator.cpp ****     adcConfig[8].InitSingle(hw.GetPin(15));
 1933              		.loc 11 147 28 is_stmt 0 view .LVU549
 1934 00ec 1820     		movs	r0, #24
 1935 00ee FFF7FEFF 		bl	_ZN5daisy9DaisySeed6GetPinEh
 1936              	.LVL142:
 1937 00f2 ADF82000 		strh	r0, [sp, #32]	@ movhi
 1938 00f6 0222     		movs	r2, #2
 1939 00f8 0899     		ldr	r1, [sp, #32]
 1940 00fa 0DF1AA00 		add	r0, sp, #170
 1941 00fe FFF7FEFF 		bl	_ZN5daisy16AdcChannelConfig10InitSingleE12dsy_gpio_pinNS0_15ConversionSpeedE
 1942              	.LVL143:
 148:oscillator.cpp ****     adcConfig[9].InitSingle(hw.GetPin(19));
 1943              		.loc 11 148 5 is_stmt 1 view .LVU550
 148:oscillator.cpp ****     adcConfig[9].InitSingle(hw.GetPin(19));
 1944              		.loc 11 148 28 is_stmt 0 view .LVU551
 1945 0102 0F20     		movs	r0, #15
 1946 0104 FFF7FEFF 		bl	_ZN5daisy9DaisySeed6GetPinEh
 1947              	.LVL144:
 1948 0108 ADF82400 		strh	r0, [sp, #36]	@ movhi
 1949 010c 0222     		movs	r2, #2
 1950 010e 0999     		ldr	r1, [sp, #36]
 1951 0110 2FA8     		add	r0, sp, #188
 1952 0112 FFF7FEFF 		bl	_ZN5daisy16AdcChannelConfig10InitSingleE12dsy_gpio_pinNS0_15ConversionSpeedE
 1953              	.LVL145:
 149:oscillator.cpp **** 
 1954              		.loc 11 149 5 is_stmt 1 view .LVU552
 149:oscillator.cpp **** 
 1955              		.loc 11 149 28 is_stmt 0 view .LVU553
ARM GAS  C:\Users\Miguel\AppData\Local\Temp\ccDAyH9H.s 			page 63


 1956 0116 1320     		movs	r0, #19
 1957 0118 FFF7FEFF 		bl	_ZN5daisy9DaisySeed6GetPinEh
 1958              	.LVL146:
 1959 011c ADF82800 		strh	r0, [sp, #40]	@ movhi
 1960 0120 0222     		movs	r2, #2
 1961 0122 0A99     		ldr	r1, [sp, #40]
 1962 0124 0DF1CE00 		add	r0, sp, #206
 1963 0128 FFF7FEFF 		bl	_ZN5daisy16AdcChannelConfig10InitSingleE12dsy_gpio_pinNS0_15ConversionSpeedE
 1964              	.LVL147:
 151:oscillator.cpp ****     hw.adc.Start();
 1965              		.loc 11 151 5 is_stmt 1 view .LVU554
 151:oscillator.cpp ****     hw.adc.Start();
 1966              		.loc 11 151 16 is_stmt 0 view .LVU555
 1967 012c 0A22     		movs	r2, #10
 1968 012e 0BA9     		add	r1, sp, #44
 1969 0130 0423     		movs	r3, #4
 1970 0132 3748     		ldr	r0, .L75+44
 1971 0134 FFF7FEFF 		bl	_ZN5daisy9AdcHandle4InitEPNS_16AdcChannelConfigEjNS0_12OverSamplingE
 1972              	.LVL148:
 152:oscillator.cpp ****     hw.StartLog();
 1973              		.loc 11 152 5 is_stmt 1 view .LVU556
 152:oscillator.cpp ****     hw.StartLog();
 1974              		.loc 11 152 17 is_stmt 0 view .LVU557
 1975 0138 3548     		ldr	r0, .L75+44
 1976 013a FFF7FEFF 		bl	_ZN5daisy9AdcHandle5StartEv
 1977              	.LVL149:
 153:oscillator.cpp **** 
 1978              		.loc 11 153 5 is_stmt 1 view .LVU558
 1979              	.LBB444:
 1980              	.LBI444:
  23:../../../libDaisy/src/daisy_seed.h **** 
  24:../../../libDaisy/src/daisy_seed.h ****     /** This function used to provide a pre-initialization configuraiton 
  25:../../../libDaisy/src/daisy_seed.h ****      *  it has since been deprecated, and does nothing.
  26:../../../libDaisy/src/daisy_seed.h ****      */
  27:../../../libDaisy/src/daisy_seed.h ****     void Configure();
  28:../../../libDaisy/src/daisy_seed.h **** 
  29:../../../libDaisy/src/daisy_seed.h ****     /** 
  30:../../../libDaisy/src/daisy_seed.h ****     Initializes the Daisy Seed and the following peripherals:
  31:../../../libDaisy/src/daisy_seed.h ****     SDRAM, QSPI, 24-bit 48kHz Audio via AK4556, Internal USB,
  32:../../../libDaisy/src/daisy_seed.h ****     as well as the built-in LED and Testpoint.
  33:../../../libDaisy/src/daisy_seed.h **** 
  34:../../../libDaisy/src/daisy_seed.h ****     ADCs, DACs, and other special peripherals (such as I2C, SPI, etc.)
  35:../../../libDaisy/src/daisy_seed.h ****     can be initialized using their specific initializers within libdaisy
  36:../../../libDaisy/src/daisy_seed.h ****     for a specific application.
  37:../../../libDaisy/src/daisy_seed.h ****     */
  38:../../../libDaisy/src/daisy_seed.h ****     void Init(bool boost = false);
  39:../../../libDaisy/src/daisy_seed.h **** 
  40:../../../libDaisy/src/daisy_seed.h ****     /** 
  41:../../../libDaisy/src/daisy_seed.h ****     Deinitializes all peripherals automatically handled by `Init`.
  42:../../../libDaisy/src/daisy_seed.h ****     */
  43:../../../libDaisy/src/daisy_seed.h ****     void DeInit();
  44:../../../libDaisy/src/daisy_seed.h **** 
  45:../../../libDaisy/src/daisy_seed.h ****     /** 
  46:../../../libDaisy/src/daisy_seed.h ****     Wait some ms before going on.
  47:../../../libDaisy/src/daisy_seed.h ****     \param del Delay time in ms.
  48:../../../libDaisy/src/daisy_seed.h ****     */
  49:../../../libDaisy/src/daisy_seed.h ****     void DelayMs(size_t del);
ARM GAS  C:\Users\Miguel\AppData\Local\Temp\ccDAyH9H.s 			page 64


  50:../../../libDaisy/src/daisy_seed.h **** 
  51:../../../libDaisy/src/daisy_seed.h ****     /** 
  52:../../../libDaisy/src/daisy_seed.h ****     Returns the gpio_pin corresponding to the index 0-31.
  53:../../../libDaisy/src/daisy_seed.h ****     For the given GPIO on the Daisy Seed (labeled 1-32 in docs).
  54:../../../libDaisy/src/daisy_seed.h ****     */
  55:../../../libDaisy/src/daisy_seed.h ****     static dsy_gpio_pin GetPin(uint8_t pin_idx);
  56:../../../libDaisy/src/daisy_seed.h **** 
  57:../../../libDaisy/src/daisy_seed.h ****     /** Begins the audio for the seeds builtin audio.
  58:../../../libDaisy/src/daisy_seed.h ****     the specified callback will get called whenever
  59:../../../libDaisy/src/daisy_seed.h ****     new data is ready to be prepared.
  60:../../../libDaisy/src/daisy_seed.h ****     */
  61:../../../libDaisy/src/daisy_seed.h ****     void StartAudio(AudioHandle::InterleavingAudioCallback cb);
  62:../../../libDaisy/src/daisy_seed.h **** 
  63:../../../libDaisy/src/daisy_seed.h ****     /** Begins the audio for the seeds builtin audio.
  64:../../../libDaisy/src/daisy_seed.h ****     the specified callback will get called whenever
  65:../../../libDaisy/src/daisy_seed.h ****     new data is ready to be prepared.
  66:../../../libDaisy/src/daisy_seed.h ****     This will use the newer non-interleaved callback.
  67:../../../libDaisy/src/daisy_seed.h ****     */
  68:../../../libDaisy/src/daisy_seed.h ****     void StartAudio(AudioHandle::AudioCallback cb);
  69:../../../libDaisy/src/daisy_seed.h **** 
  70:../../../libDaisy/src/daisy_seed.h ****     /** Changes to a new interleaved callback
  71:../../../libDaisy/src/daisy_seed.h ****      */
  72:../../../libDaisy/src/daisy_seed.h ****     void ChangeAudioCallback(AudioHandle::InterleavingAudioCallback cb);
  73:../../../libDaisy/src/daisy_seed.h **** 
  74:../../../libDaisy/src/daisy_seed.h ****     /** Changes to a new multichannel callback
  75:../../../libDaisy/src/daisy_seed.h ****      */
  76:../../../libDaisy/src/daisy_seed.h ****     void ChangeAudioCallback(AudioHandle::AudioCallback cb);
  77:../../../libDaisy/src/daisy_seed.h **** 
  78:../../../libDaisy/src/daisy_seed.h ****     /** Stops the audio if it is running. */
  79:../../../libDaisy/src/daisy_seed.h ****     void StopAudio();
  80:../../../libDaisy/src/daisy_seed.h **** 
  81:../../../libDaisy/src/daisy_seed.h ****     /** Updates the Audio Sample Rate, and reinitializes.
  82:../../../libDaisy/src/daisy_seed.h ****      ** Audio must be stopped for this to work.
  83:../../../libDaisy/src/daisy_seed.h ****      */
  84:../../../libDaisy/src/daisy_seed.h ****     void SetAudioSampleRate(SaiHandle::Config::SampleRate samplerate);
  85:../../../libDaisy/src/daisy_seed.h **** 
  86:../../../libDaisy/src/daisy_seed.h ****     /** Returns the audio sample rate in Hz as a floating point number.
  87:../../../libDaisy/src/daisy_seed.h ****      */
  88:../../../libDaisy/src/daisy_seed.h ****     float AudioSampleRate();
  89:../../../libDaisy/src/daisy_seed.h **** 
  90:../../../libDaisy/src/daisy_seed.h ****     /** Sets the number of samples processed per channel by the audio callback.
  91:../../../libDaisy/src/daisy_seed.h ****      */
  92:../../../libDaisy/src/daisy_seed.h ****     void SetAudioBlockSize(size_t blocksize);
  93:../../../libDaisy/src/daisy_seed.h **** 
  94:../../../libDaisy/src/daisy_seed.h ****     /** Returns the number of samples per channel in a block of audio. */
  95:../../../libDaisy/src/daisy_seed.h ****     size_t AudioBlockSize();
  96:../../../libDaisy/src/daisy_seed.h **** 
  97:../../../libDaisy/src/daisy_seed.h ****     /** Returns the rate in Hz that the Audio callback is called */
  98:../../../libDaisy/src/daisy_seed.h ****     float AudioCallbackRate() const;
  99:../../../libDaisy/src/daisy_seed.h **** 
 100:../../../libDaisy/src/daisy_seed.h ****     /** Returns the SAI Handle for the Daisy Seed 
 101:../../../libDaisy/src/daisy_seed.h ****      *  This can be useful when adding a secondary codec,
 102:../../../libDaisy/src/daisy_seed.h ****      *  the result of this function can be passed to the audio reinit 
 103:../../../libDaisy/src/daisy_seed.h ****      *  with an SAI2 configuration
 104:../../../libDaisy/src/daisy_seed.h ****      */
 105:../../../libDaisy/src/daisy_seed.h ****     const SaiHandle& AudioSaiHandle() const;
 106:../../../libDaisy/src/daisy_seed.h **** 
ARM GAS  C:\Users\Miguel\AppData\Local\Temp\ccDAyH9H.s 			page 65


 107:../../../libDaisy/src/daisy_seed.h ****     /** Sets the state of the built in LED
 108:../../../libDaisy/src/daisy_seed.h ****      */
 109:../../../libDaisy/src/daisy_seed.h ****     void SetLed(bool state);
 110:../../../libDaisy/src/daisy_seed.h **** 
 111:../../../libDaisy/src/daisy_seed.h ****     /** Sets the state of the test point near pin 10
 112:../../../libDaisy/src/daisy_seed.h ****      */
 113:../../../libDaisy/src/daisy_seed.h ****     void SetTestPoint(bool state);
 114:../../../libDaisy/src/daisy_seed.h **** 
 115:../../../libDaisy/src/daisy_seed.h ****     /** Print formatted debug log message
 116:../../../libDaisy/src/daisy_seed.h ****      */
 117:../../../libDaisy/src/daisy_seed.h ****     template <typename... VA>
 118:../../../libDaisy/src/daisy_seed.h ****     static void Print(const char* format, VA... va)
 119:../../../libDaisy/src/daisy_seed.h ****     {
 120:../../../libDaisy/src/daisy_seed.h ****         Log::Print(format, va...);
 121:../../../libDaisy/src/daisy_seed.h ****     }
 122:../../../libDaisy/src/daisy_seed.h **** 
 123:../../../libDaisy/src/daisy_seed.h ****     /** Print formatted debug log message with automatic line termination
 124:../../../libDaisy/src/daisy_seed.h ****     */
 125:../../../libDaisy/src/daisy_seed.h ****     template <typename... VA>
 126:../../../libDaisy/src/daisy_seed.h ****     static void PrintLine(const char* format, VA... va)
 127:../../../libDaisy/src/daisy_seed.h ****     {
 128:../../../libDaisy/src/daisy_seed.h ****         Log::PrintLine(format, va...);
 129:../../../libDaisy/src/daisy_seed.h ****     }
 130:../../../libDaisy/src/daisy_seed.h **** 
 131:../../../libDaisy/src/daisy_seed.h ****     /** Start the logging session. Optionally wait for terminal connection before proceeding.
 132:../../../libDaisy/src/daisy_seed.h ****     */
 133:../../../libDaisy/src/daisy_seed.h ****     static void StartLog(bool wait_for_pc = false)
 1981              		.loc 2 133 17 view .LVU559
 1982              	.LBB445:
 134:../../../libDaisy/src/daisy_seed.h ****     {
 135:../../../libDaisy/src/daisy_seed.h ****         Log::StartLog(wait_for_pc);
 1983              		.loc 2 135 9 view .LVU560
 1984              		.loc 2 135 22 is_stmt 0 view .LVU561
 1985 013e 0020     		movs	r0, #0
 1986 0140 FFF7FEFF 		bl	_ZN5daisy6LoggerILNS_17LoggerDestinationE1EE8StartLogEb
 1987              	.LVL150:
 1988              		.loc 2 135 22 view .LVU562
 1989              	.LBE445:
 1990              	.LBE444:
 156:oscillator.cpp ****     osc2.Init(sampleRate);
 1991              		.loc 11 156 5 is_stmt 1 view .LVU563
 156:oscillator.cpp ****     osc2.Init(sampleRate);
 1992              		.loc 11 156 20 is_stmt 0 view .LVU564
 1993 0144 94ED000A 		vldr.32	s0, [r4]
 1994 0148 3846     		mov	r0, r7
 1995 014a FFF7FEFF 		bl	_ZN7daisysp10Oscillator4InitEf
 1996              	.LVL151:
 157:oscillator.cpp ****     oscillator.SetWaveform(oscillator.WAVE_POLYBLEP_SAW);
 1997              		.loc 11 157 5 is_stmt 1 view .LVU565
 157:oscillator.cpp ****     oscillator.SetWaveform(oscillator.WAVE_POLYBLEP_SAW);
 1998              		.loc 11 157 14 is_stmt 0 view .LVU566
 1999 014e 3046     		mov	r0, r6
 2000 0150 94ED000A 		vldr.32	s0, [r4]
 2001 0154 FFF7FEFF 		bl	_ZN7daisysp10Oscillator4InitEf
 2002              	.LVL152:
 158:oscillator.cpp ****     osc2.SetWaveform(oscillator.WAVE_SQUARE);
 2003              		.loc 11 158 5 is_stmt 1 view .LVU567
ARM GAS  C:\Users\Miguel\AppData\Local\Temp\ccDAyH9H.s 			page 66


 2004              	.LBB446:
 2005              	.LBI446:
  79:../../../DaisySP/Source/Synthesis/oscillator.h ****     {
 2006              		.loc 8 79 17 view .LVU568
 2007              	.LBB447:
  81:../../../DaisySP/Source/Synthesis/oscillator.h ****     }
 2008              		.loc 8 81 9 view .LVU569
  81:../../../DaisySP/Source/Synthesis/oscillator.h ****     }
 2009              		.loc 8 81 19 is_stmt 0 view .LVU570
 2010 0158 0623     		movs	r3, #6
 2011              	.LBE447:
 2012              	.LBE446:
 2013              		.loc 11 162 13 view .LVU571
 2014 015a 2846     		mov	r0, r5
 2015 015c 94ED000A 		vldr.32	s0, [r4]
 2016              	.LBB449:
 2017              	.LBB448:
  81:../../../DaisySP/Source/Synthesis/oscillator.h ****     }
 2018              		.loc 8 81 19 view .LVU572
 2019 0160 3B70     		strb	r3, [r7]
 2020              	.LVL153:
  81:../../../DaisySP/Source/Synthesis/oscillator.h ****     }
 2021              		.loc 8 81 19 view .LVU573
 2022              	.LBE448:
 2023              	.LBE449:
 159:oscillator.cpp **** 
 2024              		.loc 11 159 5 is_stmt 1 view .LVU574
 2025              	.LBB450:
 2026              	.LBI450:
  79:../../../DaisySP/Source/Synthesis/oscillator.h ****     {
 2027              		.loc 8 79 17 view .LVU575
 2028              	.LBB451:
  81:../../../DaisySP/Source/Synthesis/oscillator.h ****     }
 2029              		.loc 8 81 9 view .LVU576
  81:../../../DaisySP/Source/Synthesis/oscillator.h ****     }
 2030              		.loc 8 81 19 is_stmt 0 view .LVU577
 2031 0162 0423     		movs	r3, #4
 2032 0164 3370     		strb	r3, [r6]
 2033              	.LVL154:
  81:../../../DaisySP/Source/Synthesis/oscillator.h ****     }
 2034              		.loc 8 81 19 view .LVU578
 2035              	.LBE451:
 2036              	.LBE450:
 2037              		.loc 11 162 5 is_stmt 1 view .LVU579
 2038              		.loc 11 162 13 is_stmt 0 view .LVU580
 2039 0166 FFF7FEFF 		bl	_ZN7daisysp10Oscillator4InitEf
 2040              	.LVL155:
 163:oscillator.cpp ****     lfo.SetWaveform(lfo.WAVE_SIN);
 2041              		.loc 11 163 5 is_stmt 1 view .LVU581
 2042              	.LBB452:
 2043              	.LBI452:
  79:../../../DaisySP/Source/Synthesis/oscillator.h ****     {
 2044              		.loc 8 79 17 view .LVU582
 2045              	.LBB453:
  81:../../../DaisySP/Source/Synthesis/oscillator.h ****     }
 2046              		.loc 8 81 9 view .LVU583
  81:../../../DaisySP/Source/Synthesis/oscillator.h ****     }
ARM GAS  C:\Users\Miguel\AppData\Local\Temp\ccDAyH9H.s 			page 67


 2047              		.loc 8 81 19 is_stmt 0 view .LVU584
 2048 016a 0023     		movs	r3, #0
 2049              	.LBE453:
 2050              	.LBE452:
 2051              	.LBB455:
 2052              	.LBB456:
  69:../../../DaisySP/Source/Synthesis/oscillator.h ****         phase_inc_ = CalcPhaseInc(f);
 2053              		.loc 8 69 20 view .LVU585
 2054 016c 9FED290A 		vldr.32	s0, .L75+48
  70:../../../DaisySP/Source/Synthesis/oscillator.h ****     }
 2055              		.loc 8 70 34 view .LVU586
 2056 0170 2846     		mov	r0, r5
 2057              	.LBE456:
 2058              	.LBE455:
 164:oscillator.cpp ****     lfo.SetFreq(0.2f);
 165:oscillator.cpp **** 
 166:oscillator.cpp ****     // Set up metro to pulse every x second
 167:oscillator.cpp ****     tick.Init(1.0f, sampleRate);
 168:oscillator.cpp **** 
 169:oscillator.cpp ****     // Set envelope parameters
 170:oscillator.cpp ****     env.Init(sampleRate);
 2059              		.loc 11 170 13 view .LVU587
 2060 0172 294E     		ldr	r6, .L75+52
 2061              	.LBB459:
 2062              	.LBB454:
  81:../../../DaisySP/Source/Synthesis/oscillator.h ****     }
 2063              		.loc 8 81 19 view .LVU588
 2064 0174 2B70     		strb	r3, [r5]
 2065              	.LVL156:
  81:../../../DaisySP/Source/Synthesis/oscillator.h ****     }
 2066              		.loc 8 81 19 view .LVU589
 2067              	.LBE454:
 2068              	.LBE459:
 164:oscillator.cpp ****     lfo.SetFreq(0.2f);
 2069              		.loc 11 164 5 is_stmt 1 view .LVU590
 2070              	.LBB460:
 2071              	.LBI455:
  67:../../../DaisySP/Source/Synthesis/oscillator.h ****     {
 2072              		.loc 8 67 17 view .LVU591
 2073              	.LBB457:
  69:../../../DaisySP/Source/Synthesis/oscillator.h ****         phase_inc_ = CalcPhaseInc(f);
 2074              		.loc 8 69 9 view .LVU592
  69:../../../DaisySP/Source/Synthesis/oscillator.h ****         phase_inc_ = CalcPhaseInc(f);
 2075              		.loc 8 69 20 is_stmt 0 view .LVU593
 2076 0176 85ED020A 		vstr.32	s0, [r5, #8]
  70:../../../DaisySP/Source/Synthesis/oscillator.h ****     }
 2077              		.loc 8 70 9 is_stmt 1 view .LVU594
  70:../../../DaisySP/Source/Synthesis/oscillator.h ****     }
 2078              		.loc 8 70 34 is_stmt 0 view .LVU595
 2079 017a FFF7FEFF 		bl	_ZN7daisysp10Oscillator12CalcPhaseIncEf
 2080              	.LVL157:
 2081 017e F0EE407A 		vmov.f32	s15, s0
 2082              	.LBE457:
 2083              	.LBE460:
 167:oscillator.cpp **** 
 2084              		.loc 11 167 14 view .LVU596
 2085 0182 D4ED000A 		vldr.32	s1, [r4]
ARM GAS  C:\Users\Miguel\AppData\Local\Temp\ccDAyH9H.s 			page 68


 2086 0186 B7EE000A 		vmov.f32	s0, #1.0e+0
 2087 018a 2448     		ldr	r0, .L75+56
 2088              	.LBB461:
 2089              	.LBB458:
  70:../../../DaisySP/Source/Synthesis/oscillator.h ****     }
 2090              		.loc 8 70 20 view .LVU597
 2091 018c C5ED077A 		vstr.32	s15, [r5, #28]
 2092              	.LVL158:
  70:../../../DaisySP/Source/Synthesis/oscillator.h ****     }
 2093              		.loc 8 70 20 view .LVU598
 2094              	.LBE458:
 2095              	.LBE461:
 167:oscillator.cpp **** 
 2096              		.loc 11 167 5 is_stmt 1 view .LVU599
 167:oscillator.cpp **** 
 2097              		.loc 11 167 14 is_stmt 0 view .LVU600
 2098 0190 FFF7FEFF 		bl	_ZN7daisysp5Metro4InitEff
 2099              	.LVL159:
 2100              		.loc 11 170 5 is_stmt 1 view .LVU601
 2101              		.loc 11 170 13 is_stmt 0 view .LVU602
 2102 0194 0121     		movs	r1, #1
 2103 0196 94ED000A 		vldr.32	s0, [r4]
 2104 019a 3046     		mov	r0, r6
 171:oscillator.cpp ****     env.SetTime(ADSR_SEG_ATTACK, 1.0f);
 172:oscillator.cpp ****     env.SetTime(ADSR_SEG_DECAY, 1.0f);
 173:oscillator.cpp ****     env.SetSustainLevel(.50);
 174:oscillator.cpp **** 
 175:oscillator.cpp ****     // Set reverb parameters
 176:oscillator.cpp ****     reverb.Init(sampleRate);
 2105              		.loc 11 176 16 view .LVU603
 2106 019c 204D     		ldr	r5, .L75+60
 170:oscillator.cpp ****     env.SetTime(ADSR_SEG_ATTACK, 1.0f);
 2107              		.loc 11 170 13 view .LVU604
 2108 019e FFF7FEFF 		bl	_ZN7daisysp4Adsr4InitEfi
 2109              	.LVL160:
 171:oscillator.cpp ****     env.SetTime(ADSR_SEG_ATTACK, 1.0f);
 2110              		.loc 11 171 5 is_stmt 1 view .LVU605
 171:oscillator.cpp ****     env.SetTime(ADSR_SEG_ATTACK, 1.0f);
 2111              		.loc 11 171 16 is_stmt 0 view .LVU606
 2112 01a2 B7EE000A 		vmov.f32	s0, #1.0e+0
 2113 01a6 0121     		movs	r1, #1
 2114 01a8 3046     		mov	r0, r6
 2115 01aa FFF7FEFF 		bl	_ZN7daisysp4Adsr7SetTimeEif
 2116              	.LVL161:
 172:oscillator.cpp ****     env.SetSustainLevel(.50);
 2117              		.loc 11 172 5 is_stmt 1 view .LVU607
 172:oscillator.cpp ****     env.SetSustainLevel(.50);
 2118              		.loc 11 172 16 is_stmt 0 view .LVU608
 2119 01ae 0221     		movs	r1, #2
 2120 01b0 B7EE000A 		vmov.f32	s0, #1.0e+0
 2121 01b4 3046     		mov	r0, r6
 2122 01b6 FFF7FEFF 		bl	_ZN7daisysp4Adsr7SetTimeEif
 2123              	.LVL162:
 173:oscillator.cpp **** 
 2124              		.loc 11 173 5 is_stmt 1 view .LVU609
 2125              	.LBB462:
 2126              	.LBI424:
ARM GAS  C:\Users\Miguel\AppData\Local\Temp\ccDAyH9H.s 			page 69


  74:../../../DaisySP/Source/Control/adsr.h ****     {
 2127              		.loc 7 74 17 view .LVU610
 2128              	.LBB426:
  76:../../../DaisySP/Source/Control/adsr.h ****                                        : (sus_level > 1.f) ? 1.f : sus_level;
 2129              		.loc 7 76 9 view .LVU611
 2130              		.loc 7 78 9 view .LVU612
 2131              	.LBE426:
 2132              	.LBE462:
 2133              		.loc 11 176 16 is_stmt 0 view .LVU613
 2134 01ba 94ED000A 		vldr.32	s0, [r4]
 2135 01be 2846     		mov	r0, r5
 2136              	.LBB463:
 2137              	.LBB427:
 2138              		.loc 7 78 20 view .LVU614
 2139 01c0 86ED008A 		vstr.32	s16, [r6]
 2140              	.LVL163:
 2141              		.loc 7 78 20 view .LVU615
 2142              	.LBE427:
 2143              	.LBE463:
 2144              		.loc 11 176 5 is_stmt 1 view .LVU616
 2145              		.loc 11 176 16 is_stmt 0 view .LVU617
 2146 01c4 FFF7FEFF 		bl	_ZN7daisysp8ReverbSc4InitEf
 2147              	.LVL164:
 177:oscillator.cpp ****     reverb.SetFeedback(0.9f);
 2148              		.loc 11 177 5 is_stmt 1 view .LVU618
 2149              	.LBB464:
 2150              	.LBI464:
  51:../../../DaisySP/DaisySP-LGPL/Source/Effects/reverbsc.h ****     /** controls the internal dampening filter's cutoff frequency.
 2151              		.loc 10 51 17 view .LVU619
 2152              	.LBB465:
  51:../../../DaisySP/DaisySP-LGPL/Source/Effects/reverbsc.h ****     /** controls the internal dampening filter's cutoff frequency.
 2153              		.loc 10 51 48 view .LVU620
 2154              	.LBE465:
 2155              	.LBE464:
 178:oscillator.cpp ****     reverb.SetLpFreq(sampleRate/2);
 2156              		.loc 11 178 32 is_stmt 0 view .LVU621
 2157 01c8 D4ED007A 		vldr.32	s15, [r4]
 2158              	.LBB468:
 2159              	.LBB466:
  51:../../../DaisySP/DaisySP-LGPL/Source/Effects/reverbsc.h ****     /** controls the internal dampening filter's cutoff frequency.
 2160              		.loc 10 51 58 view .LVU622
 2161 01cc 154B     		ldr	r3, .L75+64
 2162              	.LBE466:
 2163              	.LBE468:
 2164              		.loc 11 178 32 view .LVU623
 2165 01ce 67EE887A 		vmul.f32	s15, s15, s16
 179:oscillator.cpp **** 
 180:oscillator.cpp ****     hw.StartAudio(AudioCallback);
 2166              		.loc 11 180 18 view .LVU624
 2167 01d2 1549     		ldr	r1, .L75+68
 2168 01d4 0348     		ldr	r0, .L75
 2169              	.LBB469:
 2170              	.LBB467:
  51:../../../DaisySP/DaisySP-LGPL/Source/Effects/reverbsc.h ****     /** controls the internal dampening filter's cutoff frequency.
 2171              		.loc 10 51 58 view .LVU625
 2172 01d6 2B60     		str	r3, [r5]	@ float
 2173              	.LVL165:
ARM GAS  C:\Users\Miguel\AppData\Local\Temp\ccDAyH9H.s 			page 70


  51:../../../DaisySP/DaisySP-LGPL/Source/Effects/reverbsc.h ****     /** controls the internal dampening filter's cutoff frequency.
 2174              		.loc 10 51 58 view .LVU626
 2175              	.LBE467:
 2176              	.LBE469:
 178:oscillator.cpp ****     reverb.SetLpFreq(sampleRate/2);
 2177              		.loc 11 178 5 is_stmt 1 view .LVU627
 2178              	.LBB470:
 2179              	.LBI470:
 2180              		.loc 10 55 17 view .LVU628
 2181              	.LBB471:
 2182              		.loc 10 55 48 view .LVU629
 2183              		.loc 10 55 56 is_stmt 0 view .LVU630
 2184 01d8 C5ED017A 		vstr.32	s15, [r5, #4]
 2185              	.LVL166:
 2186              		.loc 10 55 56 view .LVU631
 2187              	.LBE471:
 2188              	.LBE470:
 2189              		.loc 11 180 5 is_stmt 1 view .LVU632
 2190              		.loc 11 180 18 is_stmt 0 view .LVU633
 2191 01dc FFF7FEFF 		bl	_ZN5daisy9DaisySeed10StartAudioEPFvPKPKfPPfjE
 2192              	.LVL167:
 2193              	.L73:
 181:oscillator.cpp ****     
 182:oscillator.cpp ****     for(;;) 
 2194              		.loc 11 182 5 is_stmt 1 discriminator 1 view .LVU634
 2195              		.loc 11 182 5 discriminator 1 view .LVU635
 2196              		.loc 11 182 5 discriminator 1 view .LVU636
 2197              		.loc 11 182 5 discriminator 1 view .LVU637
 2198 01e0 FEE7     		b	.L73
 2199              	.L76:
 2200 01e2 00BF     		.align	2
 2201              	.L75:
 2202 01e4 00000000 		.word	.LANCHOR5
 2203 01e8 00000000 		.word	.LANCHOR0
 2204 01ec 010E0001 		.word	16780801
 2205 01f0 00000000 		.word	.LANCHOR9
 2206 01f4 010F0001 		.word	16781057
 2207 01f8 00000000 		.word	.LANCHOR2
 2208 01fc 01070001 		.word	16779009
 2209 0200 00000000 		.word	.LANCHOR1
 2210 0204 01060001 		.word	16778753
 2211 0208 00000000 		.word	.LANCHOR7
 2212 020c 00000000 		.word	.LANCHOR6
 2213 0210 18000000 		.word	.LANCHOR5+24
 2214 0214 CDCC4C3E 		.word	1045220557
 2215 0218 00000000 		.word	.LANCHOR8
 2216 021c 00000000 		.word	.LANCHOR3
 2217 0220 00000000 		.word	_ZL6reverb
 2218 0224 6666663F 		.word	1063675494
 2219 0228 00000000 		.word	_Z13AudioCallbackPKPKfPPfj
 2220              		.cfi_endproc
 2221              	.LFE4850:
 2223              		.section	.text.startup._GLOBAL__sub_I_gate,"ax",%progbits
 2224              		.align	1
 2225              		.p2align 2,,3
 2226              		.syntax unified
 2227              		.thumb
ARM GAS  C:\Users\Miguel\AppData\Local\Temp\ccDAyH9H.s 			page 71


 2228              		.thumb_func
 2229              		.fpu fpv5-d16
 2231              	_GLOBAL__sub_I_gate:
 2232              	.LFB5414:
 183:oscillator.cpp ****     {
 184:oscillator.cpp **** 
 185:oscillator.cpp ****     }
 186:oscillator.cpp **** }...
 2233              		.loc 11 186 1 view -0
 2234              		.cfi_startproc
 2235              		@ args = 0, pretend = 0, frame = 0
 2236              		@ frame_needed = 0, uses_anonymous_args = 0
 2237              	.LBB510:
 2238              	.LBI510:
 2239              		.loc 11 186 1 view .LVU639
 2240              	.LVL168:
 2241              	.LBB511:
 2242              	.LBB512:
 2243              	.LBI512:
  21:../../../libDaisy/src/daisy_seed.h ****     ~DaisySeed() {}
 2244              		.loc 2 21 5 view .LVU640
 2245              	.LBB513:
 2246              	.LBB514:
 2247              	.LBI514:
 2248              		.file 13 "../../../libDaisy/src/per/qspi.h"
   1:../../../libDaisy/src/per/qspi.h **** #ifndef DSY_QSPI
   2:../../../libDaisy/src/per/qspi.h **** #define DSY_QSPI /**< Macro */
   3:../../../libDaisy/src/per/qspi.h **** 
   4:../../../libDaisy/src/per/qspi.h **** #ifndef UNIT_TEST // for unit tests, a dummy implementation
   5:../../../libDaisy/src/per/qspi.h **** 
   6:../../../libDaisy/src/per/qspi.h **** #include <cstdint>
   7:../../../libDaisy/src/per/qspi.h **** #include "daisy_core.h" // Added for dsy_gpio_pin typedef
   8:../../../libDaisy/src/per/qspi.h **** 
   9:../../../libDaisy/src/per/qspi.h **** #define DSY_QSPI_TEXT       \
  10:../../../libDaisy/src/per/qspi.h ****     __attribute__((section( \
  11:../../../libDaisy/src/per/qspi.h ****         ".qspiflash_text"))) /**< used for reading memory in memory_mapped mode. */
  12:../../../libDaisy/src/per/qspi.h **** #define DSY_QSPI_DATA       \
  13:../../../libDaisy/src/per/qspi.h ****     __attribute__((section( \
  14:../../../libDaisy/src/per/qspi.h ****         ".qspiflash_data"))) /**< used for reading memory in memory_mapped mode. */
  15:../../../libDaisy/src/per/qspi.h **** #define DSY_QSPI_BSS        \
  16:../../../libDaisy/src/per/qspi.h ****     __attribute__((section( \
  17:../../../libDaisy/src/per/qspi.h ****         ".qspiflash_bss"))) /**< used for reading memory in memory_mapped mode. */
  18:../../../libDaisy/src/per/qspi.h **** 
  19:../../../libDaisy/src/per/qspi.h **** namespace daisy
  20:../../../libDaisy/src/per/qspi.h **** {
  21:../../../libDaisy/src/per/qspi.h **** /** @addtogroup serial
  22:../../../libDaisy/src/per/qspi.h **** @{
  23:../../../libDaisy/src/per/qspi.h **** */
  24:../../../libDaisy/src/per/qspi.h **** 
  25:../../../libDaisy/src/per/qspi.h **** /** 
  26:../../../libDaisy/src/per/qspi.h ****  Driver for QSPI peripheral to interface with external flash memory. \n 
  27:../../../libDaisy/src/per/qspi.h ****     Currently supported QSPI Devices: \n 
  28:../../../libDaisy/src/per/qspi.h ****     * IS25LP080D
  29:../../../libDaisy/src/per/qspi.h **** */
  30:../../../libDaisy/src/per/qspi.h **** class QSPIHandle
  31:../../../libDaisy/src/per/qspi.h **** {
  32:../../../libDaisy/src/per/qspi.h ****   public:
ARM GAS  C:\Users\Miguel\AppData\Local\Temp\ccDAyH9H.s 			page 72


  33:../../../libDaisy/src/per/qspi.h ****     enum Result
  34:../../../libDaisy/src/per/qspi.h ****     {
  35:../../../libDaisy/src/per/qspi.h ****         OK = 0,
  36:../../../libDaisy/src/per/qspi.h ****         ERR
  37:../../../libDaisy/src/per/qspi.h ****     };
  38:../../../libDaisy/src/per/qspi.h **** 
  39:../../../libDaisy/src/per/qspi.h ****     /** Indicates the current status of the module. 
  40:../../../libDaisy/src/per/qspi.h ****          *  Warnings are indicated by a leading W.
  41:../../../libDaisy/src/per/qspi.h ****          *  Errors are indicated by a leading E and cause an immediate exit.
  42:../../../libDaisy/src/per/qspi.h ****          * 
  43:../../../libDaisy/src/per/qspi.h ****          *  \param GOOD - No errors have been reported.
  44:../../../libDaisy/src/per/qspi.h ****          *  \param E_HAL_ERROR - HAL code did not return HAL_OK.
  45:../../../libDaisy/src/per/qspi.h ****          *  \param E_SWITCHING_MODES - An error was encountered while switching QSPI peripheral mod
  46:../../../libDaisy/src/per/qspi.h ****          *  \param E_INVALID_MODE - QSPI should not be written to while the program is executing fr
  47:../../../libDaisy/src/per/qspi.h ****          */
  48:../../../libDaisy/src/per/qspi.h ****     enum Status
  49:../../../libDaisy/src/per/qspi.h ****     {
  50:../../../libDaisy/src/per/qspi.h ****         GOOD = 0,
  51:../../../libDaisy/src/per/qspi.h ****         E_HAL_ERROR,
  52:../../../libDaisy/src/per/qspi.h ****         E_SWITCHING_MODES,
  53:../../../libDaisy/src/per/qspi.h ****         E_INVALID_MODE,
  54:../../../libDaisy/src/per/qspi.h ****     };
  55:../../../libDaisy/src/per/qspi.h **** 
  56:../../../libDaisy/src/per/qspi.h ****     /** Configuration structure for interfacing with QSPI Driver */
  57:../../../libDaisy/src/per/qspi.h ****     struct Config
  58:../../../libDaisy/src/per/qspi.h ****     {
  59:../../../libDaisy/src/per/qspi.h ****         /** Flash Devices supported. (Both of these are more-or-less the same, just different sizes
  60:../../../libDaisy/src/per/qspi.h ****         enum Device
  61:../../../libDaisy/src/per/qspi.h ****         {
  62:../../../libDaisy/src/per/qspi.h ****             IS25LP080D,  /**< & */
  63:../../../libDaisy/src/per/qspi.h ****             IS25LP064A,  /**< & */
  64:../../../libDaisy/src/per/qspi.h ****             DEVICE_LAST, /**< & */
  65:../../../libDaisy/src/per/qspi.h ****         };
  66:../../../libDaisy/src/per/qspi.h **** 
  67:../../../libDaisy/src/per/qspi.h ****         /** 
  68:../../../libDaisy/src/per/qspi.h ****         Modes of operation.
  69:../../../libDaisy/src/per/qspi.h ****         Memory Mapped mode: QSPI configured so that the QSPI can be
  70:../../../libDaisy/src/per/qspi.h ****         read from starting address 0x90000000. Writing is not
  71:../../../libDaisy/src/per/qspi.h ****         possible in this mode. \n 
  72:../../../libDaisy/src/per/qspi.h ****         Indirect Polling mode: Device driver enabled. 
  73:../../../libDaisy/src/per/qspi.h ****         */
  74:../../../libDaisy/src/per/qspi.h ****         enum Mode
  75:../../../libDaisy/src/per/qspi.h ****         {
  76:../../../libDaisy/src/per/qspi.h ****             MEMORY_MAPPED,    /**< & */
  77:../../../libDaisy/src/per/qspi.h ****             INDIRECT_POLLING, /**< & */
  78:../../../libDaisy/src/per/qspi.h ****             MODE_LAST,
  79:../../../libDaisy/src/per/qspi.h ****         };
  80:../../../libDaisy/src/per/qspi.h **** 
  81:../../../libDaisy/src/per/qspi.h ****         //SCK,  CE# (active low)
  82:../../../libDaisy/src/per/qspi.h ****         struct
  83:../../../libDaisy/src/per/qspi.h ****         {
  84:../../../libDaisy/src/per/qspi.h ****             dsy_gpio_pin io0; /**< & */
  85:../../../libDaisy/src/per/qspi.h ****             dsy_gpio_pin io1; /**< & */
  86:../../../libDaisy/src/per/qspi.h ****             dsy_gpio_pin io2; /**< & */
  87:../../../libDaisy/src/per/qspi.h ****             dsy_gpio_pin io3; /**< & */
  88:../../../libDaisy/src/per/qspi.h ****             dsy_gpio_pin clk; /**< & */
  89:../../../libDaisy/src/per/qspi.h ****             dsy_gpio_pin ncs; /**< & */
ARM GAS  C:\Users\Miguel\AppData\Local\Temp\ccDAyH9H.s 			page 73


  90:../../../libDaisy/src/per/qspi.h ****         } pin_config;
  91:../../../libDaisy/src/per/qspi.h **** 
  92:../../../libDaisy/src/per/qspi.h ****         Device device;
  93:../../../libDaisy/src/per/qspi.h ****         Mode   mode;
  94:../../../libDaisy/src/per/qspi.h ****     };
  95:../../../libDaisy/src/per/qspi.h **** 
  96:../../../libDaisy/src/per/qspi.h ****     /** 
  97:../../../libDaisy/src/per/qspi.h ****         Initializes QSPI peripheral, and Resets, and prepares memory for access.
  98:../../../libDaisy/src/per/qspi.h ****         \param config should be populated with the mode, device and pin_config before calling this 
  99:../../../libDaisy/src/per/qspi.h ****         \return Result::OK or Result::ERR
 100:../../../libDaisy/src/per/qspi.h ****         */
 101:../../../libDaisy/src/per/qspi.h ****     Result Init(const Config& config);
 102:../../../libDaisy/src/per/qspi.h **** 
 103:../../../libDaisy/src/per/qspi.h ****     /** Returns the current config. */
 104:../../../libDaisy/src/per/qspi.h ****     const Config& GetConfig() const;
 105:../../../libDaisy/src/per/qspi.h **** 
 106:../../../libDaisy/src/per/qspi.h ****     // Couldn't this just be called before anything else in init? That
 107:../../../libDaisy/src/per/qspi.h ****     // would make manually calling it unnecessary.
 108:../../../libDaisy/src/per/qspi.h ****     /** 
 109:../../../libDaisy/src/per/qspi.h ****         Deinitializes the peripheral
 110:../../../libDaisy/src/per/qspi.h ****         This should be called before reinitializing QSPI in a different mode.
 111:../../../libDaisy/src/per/qspi.h ****         \return Result::OK or Result::ERR
 112:../../../libDaisy/src/per/qspi.h ****         */
 113:../../../libDaisy/src/per/qspi.h ****     Result DeInit();
 114:../../../libDaisy/src/per/qspi.h **** 
 115:../../../libDaisy/src/per/qspi.h ****     /** 
 116:../../../libDaisy/src/per/qspi.h ****         Writes a single page to to the specified address on the QSPI chip.
 117:../../../libDaisy/src/per/qspi.h ****         For IS25LP*, page size is 256 bytes.
 118:../../../libDaisy/src/per/qspi.h ****         \param address Address to write to
 119:../../../libDaisy/src/per/qspi.h ****         \param size Buffer size
 120:../../../libDaisy/src/per/qspi.h ****         \param buffer Buffer to write
 121:../../../libDaisy/src/per/qspi.h ****         \return Result::OK or Result::ERR
 122:../../../libDaisy/src/per/qspi.h ****         */
 123:../../../libDaisy/src/per/qspi.h ****     Result WritePage(uint32_t address, uint32_t size, uint8_t* buffer);
 124:../../../libDaisy/src/per/qspi.h **** 
 125:../../../libDaisy/src/per/qspi.h ****     /** 
 126:../../../libDaisy/src/per/qspi.h ****         Writes data in buffer to to the QSPI. Starting at address to address+size 
 127:../../../libDaisy/src/per/qspi.h ****         \param address Address to write to
 128:../../../libDaisy/src/per/qspi.h ****         \param size Buffer size
 129:../../../libDaisy/src/per/qspi.h ****         \param buffer Buffer to write
 130:../../../libDaisy/src/per/qspi.h ****         \return Result::OK or Result::ERR
 131:../../../libDaisy/src/per/qspi.h ****         */
 132:../../../libDaisy/src/per/qspi.h ****     Result Write(uint32_t address, uint32_t size, uint8_t* buffer);
 133:../../../libDaisy/src/per/qspi.h **** 
 134:../../../libDaisy/src/per/qspi.h ****     /** 
 135:../../../libDaisy/src/per/qspi.h ****         Erases the area specified on the chip.
 136:../../../libDaisy/src/per/qspi.h ****         Erasures will happen by 4K, 32K or 64K increments.
 137:../../../libDaisy/src/per/qspi.h ****         Smallest erase possible is 4kB at a time. (on IS25LP*)
 138:../../../libDaisy/src/per/qspi.h ****         \param start_addr Address to begin erasing from
 139:../../../libDaisy/src/per/qspi.h ****         \param end_addr  Address to stop erasing at
 140:../../../libDaisy/src/per/qspi.h ****         \return Result::OK or Result::ERR
 141:../../../libDaisy/src/per/qspi.h ****         */
 142:../../../libDaisy/src/per/qspi.h ****     Result Erase(uint32_t start_addr, uint32_t end_addr);
 143:../../../libDaisy/src/per/qspi.h **** 
 144:../../../libDaisy/src/per/qspi.h ****     /**  
 145:../../../libDaisy/src/per/qspi.h ****          Erases a single sector of the chip.  
 146:../../../libDaisy/src/per/qspi.h ****         TODO: Document the size of this function. 
ARM GAS  C:\Users\Miguel\AppData\Local\Temp\ccDAyH9H.s 			page 74


 147:../../../libDaisy/src/per/qspi.h ****         \param address Address of sector to erase
 148:../../../libDaisy/src/per/qspi.h ****         \return Result::OK or Result::ERR
 149:../../../libDaisy/src/per/qspi.h ****         */
 150:../../../libDaisy/src/per/qspi.h ****     Result EraseSector(uint32_t address);
 151:../../../libDaisy/src/per/qspi.h **** 
 152:../../../libDaisy/src/per/qspi.h ****     /** Returns the current class status. Useful for debugging.
 153:../../../libDaisy/src/per/qspi.h ****      *  \returns Status
 154:../../../libDaisy/src/per/qspi.h ****      */
 155:../../../libDaisy/src/per/qspi.h ****     Status GetStatus();
 156:../../../libDaisy/src/per/qspi.h **** 
 157:../../../libDaisy/src/per/qspi.h ****     /** Returns a pointer to the actual memory used 
 158:../../../libDaisy/src/per/qspi.h ****      *  The memory at this address is read-only
 159:../../../libDaisy/src/per/qspi.h ****      *  to write to it use the Write function.
 160:../../../libDaisy/src/per/qspi.h ****      * 
 161:../../../libDaisy/src/per/qspi.h ****      *  \param offset returns the pointer starting this 
 162:../../../libDaisy/src/per/qspi.h ****      *                many bytes into the memory
 163:../../../libDaisy/src/per/qspi.h ****     */
 164:../../../libDaisy/src/per/qspi.h ****     void* GetData(uint32_t offset = 0);
 165:../../../libDaisy/src/per/qspi.h **** 
 166:../../../libDaisy/src/per/qspi.h ****     QSPIHandle() : pimpl_(nullptr) {}
 2249              		.loc 13 166 5 view .LVU641
 2250              	.LBE514:
 2251              	.LBE513:
 2252              	.LBE512:
 2253              	.LBE511:
 2254              	.LBE510:
 2255              		.loc 11 186 1 is_stmt 0 view .LVU642
 2256 0000 38B5     		push	{r3, r4, r5, lr}
 2257              		.cfi_def_cfa_offset 16
 2258              		.cfi_offset 3, -16
 2259              		.cfi_offset 4, -12
 2260              		.cfi_offset 5, -8
 2261              		.cfi_offset 14, -4
 2262              	.LBB552:
 2263              	.LBB550:
 2264              	.LBB535:
 2265              	.LBB533:
 2266              	.LBB519:
 2267              	.LBB515:
 2268              	.LBB516:
 2269              		.loc 13 166 34 view .LVU643
 2270 0002 2148     		ldr	r0, .L79
 2271 0004 0025     		movs	r5, #0
 2272              	.LBE516:
 2273              	.LBE515:
 2274              	.LBE519:
 2275              	.LBE533:
 2276              	.LBE535:
   9:oscillator.cpp **** static DaisySeed hw;
 2277              		.loc 11 9 18 view .LVU644
 2278 0006 214C     		ldr	r4, .L79+4
 2279 0008 2149     		ldr	r1, .L79+8
 2280 000a 2246     		mov	r2, r4
 2281              	.LBB536:
 2282              	.LBB534:
 2283              	.LBB520:
 2284              	.LBB518:
ARM GAS  C:\Users\Miguel\AppData\Local\Temp\ccDAyH9H.s 			page 75


 2285              	.LBB517:
 2286              		.loc 13 166 34 view .LVU645
 2287 000c 0560     		str	r5, [r0]
 2288              	.LVL169:
 2289              		.loc 13 166 34 view .LVU646
 2290              	.LBE517:
 2291              	.LBE518:
 2292              	.LBE520:
 2293              	.LBB521:
 2294              	.LBI521:
  95:../../../libDaisy/src/hid/audio.h ****     ~AudioHandle() {}
 2295              		.loc 6 95 5 is_stmt 1 view .LVU647
 2296              	.LBB522:
 2297              	.LBB523:
  95:../../../libDaisy/src/hid/audio.h ****     ~AudioHandle() {}
 2298              		.loc 6 95 35 is_stmt 0 view .LVU648
 2299 000e 4561     		str	r5, [r0, #20]
 2300              	.LVL170:
  95:../../../libDaisy/src/hid/audio.h ****     ~AudioHandle() {}
 2301              		.loc 6 95 35 view .LVU649
 2302              	.LBE523:
 2303              	.LBE522:
 2304              	.LBE521:
 2305              	.LBB524:
 2306              	.LBI524:
 109:../../../libDaisy/src/per/adc.h ****     ~AdcHandle() {}
 2307              		.loc 5 109 5 is_stmt 1 view .LVU650
 109:../../../libDaisy/src/per/adc.h ****     ~AdcHandle() {}
 2308              		.loc 5 109 5 is_stmt 0 view .LVU651
 2309              	.LBE524:
 2310              	.LBB525:
 2311              	.LBI525:
 2312              		.file 14 "../../../libDaisy/src/per/dac.h"
   1:../../../libDaisy/src/per/dac.h **** #pragma once
   2:../../../libDaisy/src/per/dac.h **** #ifndef DSY_DAC_H
   3:../../../libDaisy/src/per/dac.h **** #define DSY_DAC_H
   4:../../../libDaisy/src/per/dac.h **** 
   5:../../../libDaisy/src/per/dac.h **** #include "daisy_core.h"
   6:../../../libDaisy/src/per/dac.h **** 
   7:../../../libDaisy/src/per/dac.h **** namespace daisy
   8:../../../libDaisy/src/per/dac.h **** {
   9:../../../libDaisy/src/per/dac.h **** /** @brief DAC handle for Built-in DAC Peripheral 
  10:../../../libDaisy/src/per/dac.h ****  *  @ingroup per_analog
  11:../../../libDaisy/src/per/dac.h ****  ** 
  12:../../../libDaisy/src/per/dac.h ****  ** For now only Normal Mode is supported,
  13:../../../libDaisy/src/per/dac.h ****  ** Sample and hold mode provides reduced power consumption, but requires a bit more setup.
  14:../../../libDaisy/src/per/dac.h ****  **
  15:../../../libDaisy/src/per/dac.h ****  ** For now connecting the DAC through other internal peripherals is also not supported.
  16:../../../libDaisy/src/per/dac.h ****  **
  17:../../../libDaisy/src/per/dac.h ****  ** Since the DAC channels have dedicated pins we don't need to pass in a pin config like with
  18:../../../libDaisy/src/per/dac.h ****  ** other modules. However, it is still important to not try to use the DAC pins for anything else.
  19:../../../libDaisy/src/per/dac.h ****  ** DAC Channel 1 is on PA4, and DAC Channel 2 is on PA5
  20:../../../libDaisy/src/per/dac.h ****  ***/
  21:../../../libDaisy/src/per/dac.h **** class DacHandle
  22:../../../libDaisy/src/per/dac.h **** {
  23:../../../libDaisy/src/per/dac.h ****   public:
  24:../../../libDaisy/src/per/dac.h ****     /** Return Values for the DacHandle class */
ARM GAS  C:\Users\Miguel\AppData\Local\Temp\ccDAyH9H.s 			page 76


  25:../../../libDaisy/src/per/dac.h ****     enum class Result
  26:../../../libDaisy/src/per/dac.h ****     {
  27:../../../libDaisy/src/per/dac.h ****         OK,
  28:../../../libDaisy/src/per/dac.h ****         ERR,
  29:../../../libDaisy/src/per/dac.h ****     };
  30:../../../libDaisy/src/per/dac.h **** 
  31:../../../libDaisy/src/per/dac.h ****     /** Selects which channel(s) will be configured for use. */
  32:../../../libDaisy/src/per/dac.h ****     enum class Channel
  33:../../../libDaisy/src/per/dac.h ****     {
  34:../../../libDaisy/src/per/dac.h ****         ONE,
  35:../../../libDaisy/src/per/dac.h ****         TWO,
  36:../../../libDaisy/src/per/dac.h ****         BOTH,
  37:../../../libDaisy/src/per/dac.h ****     };
  38:../../../libDaisy/src/per/dac.h **** 
  39:../../../libDaisy/src/per/dac.h ****     /** Sets the Mode for the DAC channels.
  40:../../../libDaisy/src/per/dac.h ****      **
  41:../../../libDaisy/src/per/dac.h ****      ** Polling mode uses the blocking mode to transmit a single value at a time.
  42:../../../libDaisy/src/per/dac.h ****      **
  43:../../../libDaisy/src/per/dac.h ****      ** DMA mode uses a buffer, and periodically transmits it triggering a 
  44:../../../libDaisy/src/per/dac.h ****      ** callback to fill the buffer when it is ready for more samples.
  45:../../../libDaisy/src/per/dac.h ****      ***/
  46:../../../libDaisy/src/per/dac.h ****     enum class Mode
  47:../../../libDaisy/src/per/dac.h ****     {
  48:../../../libDaisy/src/per/dac.h ****         POLLING,
  49:../../../libDaisy/src/per/dac.h ****         DMA,
  50:../../../libDaisy/src/per/dac.h ****     };
  51:../../../libDaisy/src/per/dac.h **** 
  52:../../../libDaisy/src/per/dac.h ****     /** Sets the number of bits per sample transmitted out of the DAC.
  53:../../../libDaisy/src/per/dac.h ****      ** The output range will be: 0V - VDDA
  54:../../../libDaisy/src/per/dac.h ****      ** The resolution will be roughly: bitdepth / (VDDA - 0V) 
  55:../../../libDaisy/src/per/dac.h ****      ***/
  56:../../../libDaisy/src/per/dac.h ****     enum class BitDepth
  57:../../../libDaisy/src/per/dac.h ****     {
  58:../../../libDaisy/src/per/dac.h ****         BITS_8,
  59:../../../libDaisy/src/per/dac.h ****         BITS_12
  60:../../../libDaisy/src/per/dac.h ****     };
