ARM GAS  C:\Users\Miguel\AppData\Local\Temp\ccIs1zJP.s 			page 1


   1              		.cpu cortex-m7
   2              		.eabi_attribute 28, 1
   3              		.eabi_attribute 20, 1
   4              		.eabi_attribute 21, 1
   5              		.eabi_attribute 23, 3
   6              		.eabi_attribute 24, 1
   7              		.eabi_attribute 25, 1
   8              		.eabi_attribute 26, 1
   9              		.eabi_attribute 30, 2
  10              		.eabi_attribute 34, 1
  11              		.eabi_attribute 18, 4
  12              		.file	"atone.cpp"
  13              		.text
  14              	.Ltext0:
  15              		.cfi_sections	.debug_frame
  16              		.section	.text._ZN7daisysp10OscillatorD2Ev,"axG",%progbits,_ZN7daisysp10OscillatorD5Ev,comdat
  17              		.align	1
  18              		.p2align 2,,3
  19              		.weak	_ZN7daisysp10OscillatorD2Ev
  20              		.arch armv7e-m
  21              		.syntax unified
  22              		.thumb
  23              		.thumb_func
  24              		.fpu fpv5-d16
  26              	_ZN7daisysp10OscillatorD2Ev:
  27              	.LVL0:
  28              	.LFB2825:
  29              		.file 1 "../../../DaisySP/Source/Synthesis/oscillator.h"
   1:../../../DaisySP/Source/Synthesis/oscillator.h **** /*
   2:../../../DaisySP/Source/Synthesis/oscillator.h **** Copyright (c) 2020 Electrosmith, Corp
   3:../../../DaisySP/Source/Synthesis/oscillator.h **** 
   4:../../../DaisySP/Source/Synthesis/oscillator.h **** Use of this source code is governed by an MIT-style
   5:../../../DaisySP/Source/Synthesis/oscillator.h **** license that can be found in the LICENSE file or at
   6:../../../DaisySP/Source/Synthesis/oscillator.h **** https://opensource.org/licenses/MIT.
   7:../../../DaisySP/Source/Synthesis/oscillator.h **** */
   8:../../../DaisySP/Source/Synthesis/oscillator.h **** 
   9:../../../DaisySP/Source/Synthesis/oscillator.h **** #pragma once
  10:../../../DaisySP/Source/Synthesis/oscillator.h **** #ifndef DSY_OSCILLATOR_H
  11:../../../DaisySP/Source/Synthesis/oscillator.h **** #define DSY_OSCILLATOR_H
  12:../../../DaisySP/Source/Synthesis/oscillator.h **** #include <stdint.h>
  13:../../../DaisySP/Source/Synthesis/oscillator.h **** #include "Utility/dsp.h"
  14:../../../DaisySP/Source/Synthesis/oscillator.h **** #ifdef __cplusplus
  15:../../../DaisySP/Source/Synthesis/oscillator.h **** 
  16:../../../DaisySP/Source/Synthesis/oscillator.h **** namespace daisysp
  17:../../../DaisySP/Source/Synthesis/oscillator.h **** {
  18:../../../DaisySP/Source/Synthesis/oscillator.h **** /** Synthesis of several waveforms, including polyBLEP bandlimited waveforms.
  19:../../../DaisySP/Source/Synthesis/oscillator.h **** */
  20:../../../DaisySP/Source/Synthesis/oscillator.h **** class Oscillator
  21:../../../DaisySP/Source/Synthesis/oscillator.h **** {
  22:../../../DaisySP/Source/Synthesis/oscillator.h ****   public:
  23:../../../DaisySP/Source/Synthesis/oscillator.h ****     Oscillator() {}
  24:../../../DaisySP/Source/Synthesis/oscillator.h ****     ~Oscillator() {}
  30              		.loc 1 24 5 view -0
  31              		.cfi_startproc
  32              		@ args = 0, pretend = 0, frame = 0
  33              		@ frame_needed = 0, uses_anonymous_args = 0
  34              		@ link register save eliminated.
ARM GAS  C:\Users\Miguel\AppData\Local\Temp\ccIs1zJP.s 			page 2


  35              		.loc 1 24 20 is_stmt 0 view .LVU1
  36 0000 7047     		bx	lr
  37              		.cfi_endproc
  38              	.LFE2825:
  40              		.weak	_ZN7daisysp10OscillatorD1Ev
  41              		.thumb_set _ZN7daisysp10OscillatorD1Ev,_ZN7daisysp10OscillatorD2Ev
  42 0002 00BF     		.section	.text._ZN7daisysp5AToneD2Ev,"axG",%progbits,_ZN7daisysp5AToneD5Ev,comdat
  43              		.align	1
  44              		.p2align 2,,3
  45              		.weak	_ZN7daisysp5AToneD2Ev
  46              		.syntax unified
  47              		.thumb
  48              		.thumb_func
  49              		.fpu fpv5-d16
  51              	_ZN7daisysp5AToneD2Ev:
  52              	.LVL1:
  53              	.LFB3581:
  54              		.file 2 "../../../DaisySP/DaisySP-LGPL/Source/Filters/atone.h"
   1:../../../DaisySP/DaisySP-LGPL/Source/Filters/atone.h **** /*
   2:../../../DaisySP/DaisySP-LGPL/Source/Filters/atone.h **** Copyright (c) 2023 Electrosmith, Corp, Barry Vercoe, John FFitch, Gabriel Maldonado
   3:../../../DaisySP/DaisySP-LGPL/Source/Filters/atone.h **** 
   4:../../../DaisySP/DaisySP-LGPL/Source/Filters/atone.h **** Use of this source code is governed by the LGPL V2.1
   5:../../../DaisySP/DaisySP-LGPL/Source/Filters/atone.h **** license that can be found in the LICENSE file or at
   6:../../../DaisySP/DaisySP-LGPL/Source/Filters/atone.h **** https://opensource.org/license/lgpl-2-1/
   7:../../../DaisySP/DaisySP-LGPL/Source/Filters/atone.h **** */
   8:../../../DaisySP/DaisySP-LGPL/Source/Filters/atone.h **** 
   9:../../../DaisySP/DaisySP-LGPL/Source/Filters/atone.h **** #pragma once
  10:../../../DaisySP/DaisySP-LGPL/Source/Filters/atone.h **** #ifndef DSY_ATONE_H
  11:../../../DaisySP/DaisySP-LGPL/Source/Filters/atone.h **** #define DSY_ATONE_H
  12:../../../DaisySP/DaisySP-LGPL/Source/Filters/atone.h **** 
  13:../../../DaisySP/DaisySP-LGPL/Source/Filters/atone.h **** #include <stdint.h>
  14:../../../DaisySP/DaisySP-LGPL/Source/Filters/atone.h **** #ifdef __cplusplus
  15:../../../DaisySP/DaisySP-LGPL/Source/Filters/atone.h **** 
  16:../../../DaisySP/DaisySP-LGPL/Source/Filters/atone.h **** namespace daisysp
  17:../../../DaisySP/DaisySP-LGPL/Source/Filters/atone.h **** {
  18:../../../DaisySP/DaisySP-LGPL/Source/Filters/atone.h **** /** A first-order recursive high-pass filter with variable frequency response. */
  19:../../../DaisySP/DaisySP-LGPL/Source/Filters/atone.h **** class ATone
  20:../../../DaisySP/DaisySP-LGPL/Source/Filters/atone.h **** {
  21:../../../DaisySP/DaisySP-LGPL/Source/Filters/atone.h ****   public:
  22:../../../DaisySP/DaisySP-LGPL/Source/Filters/atone.h ****     ATone() {}
  23:../../../DaisySP/DaisySP-LGPL/Source/Filters/atone.h ****     ~ATone() {}
  55              		.loc 2 23 5 is_stmt 1 view -0
  56              		.cfi_startproc
  57              		@ args = 0, pretend = 0, frame = 0
  58              		@ frame_needed = 0, uses_anonymous_args = 0
  59              		@ link register save eliminated.
  60              		.loc 2 23 15 is_stmt 0 view .LVU3
  61 0000 7047     		bx	lr
  62              		.cfi_endproc
  63              	.LFE3581:
  65              		.weak	_ZN7daisysp5AToneD1Ev
  66              		.thumb_set _ZN7daisysp5AToneD1Ev,_ZN7daisysp5AToneD2Ev
  67              		.section	.text._ZN5daisy9DaisySeedD2Ev,"axG",%progbits,_ZN5daisy9DaisySeedD5Ev,comdat
  68              		.align	1
  69              		.p2align 2,,3
  70              		.weak	_ZN5daisy9DaisySeedD2Ev
  71              		.syntax unified
ARM GAS  C:\Users\Miguel\AppData\Local\Temp\ccIs1zJP.s 			page 3


  72              		.thumb
  73              		.thumb_func
  74              		.fpu fpv5-d16
  76              	_ZN5daisy9DaisySeedD2Ev:
  77              	.LVL2:
  78              	.LFB4841:
  79              		.file 3 "../../../libDaisy/src/daisy_seed.h"
   1:../../../libDaisy/src/daisy_seed.h **** #pragma once
   2:../../../libDaisy/src/daisy_seed.h **** #ifndef DSY_SEED_H
   3:../../../libDaisy/src/daisy_seed.h **** #define DSY_SEED_H
   4:../../../libDaisy/src/daisy_seed.h **** 
   5:../../../libDaisy/src/daisy_seed.h **** #include "daisy.h"
   6:../../../libDaisy/src/daisy_seed.h **** 
   7:../../../libDaisy/src/daisy_seed.h **** //Uncomment this out if you're still using the rev2 hardware
   8:../../../libDaisy/src/daisy_seed.h **** //#define SEED_REV2
   9:../../../libDaisy/src/daisy_seed.h **** 
  10:../../../libDaisy/src/daisy_seed.h **** namespace daisy
  11:../../../libDaisy/src/daisy_seed.h **** {
  12:../../../libDaisy/src/daisy_seed.h **** /**
  13:../../../libDaisy/src/daisy_seed.h ****    @brief This is the higher-level interface for the Daisy board. \n 
  14:../../../libDaisy/src/daisy_seed.h ****     All basic peripheral configuration/initialization is setup here. \n
  15:../../../libDaisy/src/daisy_seed.h **** 
  16:../../../libDaisy/src/daisy_seed.h ****    @ingroup boards
  17:../../../libDaisy/src/daisy_seed.h **** */
  18:../../../libDaisy/src/daisy_seed.h **** class DaisySeed
  19:../../../libDaisy/src/daisy_seed.h **** {
  20:../../../libDaisy/src/daisy_seed.h ****   public:
  21:../../../libDaisy/src/daisy_seed.h ****     DaisySeed() {}
  22:../../../libDaisy/src/daisy_seed.h ****     ~DaisySeed() {}
  80              		.loc 3 22 5 is_stmt 1 view -0
  81              		.cfi_startproc
  82              		@ args = 0, pretend = 0, frame = 0
  83              		@ frame_needed = 0, uses_anonymous_args = 0
  84              		@ link register save eliminated.
  85              	.LBB116:
  86              	.LBI116:
  87              		.file 4 "../../../libDaisy/src/sys/system.h"
   1:../../../libDaisy/src/sys/system.h **** #ifndef DSY_SYSTEM_H
   2:../../../libDaisy/src/sys/system.h **** #define DSY_SYSTEM_H
   3:../../../libDaisy/src/sys/system.h **** 
   4:../../../libDaisy/src/sys/system.h **** #ifndef UNIT_TEST // for unit tests, a dummy implementation is provided below
   5:../../../libDaisy/src/sys/system.h **** 
   6:../../../libDaisy/src/sys/system.h **** #include <cstdint>
   7:../../../libDaisy/src/sys/system.h **** #include "per/tim.h"
   8:../../../libDaisy/src/sys/system.h **** 
   9:../../../libDaisy/src/sys/system.h **** namespace daisy
  10:../../../libDaisy/src/sys/system.h **** {
  11:../../../libDaisy/src/sys/system.h **** /** A handle for interacting with the Core System.
  12:../../../libDaisy/src/sys/system.h ****  ** This includes the Clock tree, MPU, global DMA initialization,
  13:../../../libDaisy/src/sys/system.h ****  ** cache handling, and any other necessary global initiailzation
  14:../../../libDaisy/src/sys/system.h ****  **
  15:../../../libDaisy/src/sys/system.h ****  ** @author shensley
  16:../../../libDaisy/src/sys/system.h ****  ** @ingroup system
  17:../../../libDaisy/src/sys/system.h ****  */
  18:../../../libDaisy/src/sys/system.h **** class System
  19:../../../libDaisy/src/sys/system.h **** {
  20:../../../libDaisy/src/sys/system.h ****   public:
ARM GAS  C:\Users\Miguel\AppData\Local\Temp\ccIs1zJP.s 			page 4


  21:../../../libDaisy/src/sys/system.h ****     /** Contains settings for initializing the System */
  22:../../../libDaisy/src/sys/system.h ****     struct Config
  23:../../../libDaisy/src/sys/system.h ****     {
  24:../../../libDaisy/src/sys/system.h ****         /** Specifies the system clock frequency that feeds APB/AHB clocks, etc. */
  25:../../../libDaisy/src/sys/system.h ****         enum class SysClkFreq
  26:../../../libDaisy/src/sys/system.h ****         {
  27:../../../libDaisy/src/sys/system.h ****             FREQ_400MHZ,
  28:../../../libDaisy/src/sys/system.h ****             FREQ_480MHZ,
  29:../../../libDaisy/src/sys/system.h ****         };
  30:../../../libDaisy/src/sys/system.h **** 
  31:../../../libDaisy/src/sys/system.h ****         /** Method to call on the struct to set to defaults
  32:../../../libDaisy/src/sys/system.h ****          ** CPU Freq set to 400MHz
  33:../../../libDaisy/src/sys/system.h ****          ** Cache Enabled
  34:../../../libDaisy/src/sys/system.h ****          ** */
  35:../../../libDaisy/src/sys/system.h ****         void Defaults()
  36:../../../libDaisy/src/sys/system.h ****         {
  37:../../../libDaisy/src/sys/system.h ****             cpu_freq    = SysClkFreq::FREQ_400MHZ;
  38:../../../libDaisy/src/sys/system.h ****             use_dcache  = true;
  39:../../../libDaisy/src/sys/system.h ****             use_icache  = true;
  40:../../../libDaisy/src/sys/system.h ****             skip_clocks = false;
  41:../../../libDaisy/src/sys/system.h ****         }
  42:../../../libDaisy/src/sys/system.h **** 
  43:../../../libDaisy/src/sys/system.h ****         /** Method to call on the struct to set to boost mode:
  44:../../../libDaisy/src/sys/system.h ****          ** CPU Freq set to 480MHz
  45:../../../libDaisy/src/sys/system.h ****          ** Cache Enabled
  46:../../../libDaisy/src/sys/system.h ****          ** */
  47:../../../libDaisy/src/sys/system.h ****         void Boost()
  48:../../../libDaisy/src/sys/system.h ****         {
  49:../../../libDaisy/src/sys/system.h ****             cpu_freq    = SysClkFreq::FREQ_480MHZ;
  50:../../../libDaisy/src/sys/system.h ****             use_dcache  = true;
  51:../../../libDaisy/src/sys/system.h ****             use_icache  = true;
  52:../../../libDaisy/src/sys/system.h ****             skip_clocks = false;
  53:../../../libDaisy/src/sys/system.h ****         }
  54:../../../libDaisy/src/sys/system.h **** 
  55:../../../libDaisy/src/sys/system.h ****         SysClkFreq cpu_freq;
  56:../../../libDaisy/src/sys/system.h ****         bool       use_dcache;
  57:../../../libDaisy/src/sys/system.h ****         bool       use_icache;
  58:../../../libDaisy/src/sys/system.h ****         bool       skip_clocks;
  59:../../../libDaisy/src/sys/system.h ****     };
  60:../../../libDaisy/src/sys/system.h **** 
  61:../../../libDaisy/src/sys/system.h ****     /** Describes the different regions of memory available to the Daisy */
  62:../../../libDaisy/src/sys/system.h ****     enum MemoryRegion
  63:../../../libDaisy/src/sys/system.h ****     {
  64:../../../libDaisy/src/sys/system.h ****         INTERNAL_FLASH = 0,
  65:../../../libDaisy/src/sys/system.h ****         ITCMRAM,
  66:../../../libDaisy/src/sys/system.h ****         DTCMRAM,
  67:../../../libDaisy/src/sys/system.h ****         SRAM_D1,
  68:../../../libDaisy/src/sys/system.h ****         SRAM_D2,
  69:../../../libDaisy/src/sys/system.h ****         SRAM_D3,
  70:../../../libDaisy/src/sys/system.h ****         SDRAM,
  71:../../../libDaisy/src/sys/system.h ****         QSPI,
  72:../../../libDaisy/src/sys/system.h ****         INVALID_ADDRESS,
  73:../../../libDaisy/src/sys/system.h ****     };
  74:../../../libDaisy/src/sys/system.h **** 
  75:../../../libDaisy/src/sys/system.h ****     /** Bootloader struct for controlling bootloading parameters */
  76:../../../libDaisy/src/sys/system.h ****     struct BootInfo
  77:../../../libDaisy/src/sys/system.h ****     {
ARM GAS  C:\Users\Miguel\AppData\Local\Temp\ccIs1zJP.s 			page 5


  78:../../../libDaisy/src/sys/system.h ****         enum class Type : uint32_t
  79:../../../libDaisy/src/sys/system.h ****         {
  80:../../../libDaisy/src/sys/system.h ****             INVALID      = 0x00000000,
  81:../../../libDaisy/src/sys/system.h ****             JUMP         = 0xDEADBEEF,
  82:../../../libDaisy/src/sys/system.h ****             SKIP_TIMEOUT = 0x5AFEB007,
  83:../../../libDaisy/src/sys/system.h ****             INF_TIMEOUT  = 0xB0074EFA,
  84:../../../libDaisy/src/sys/system.h ****         } status;
  85:../../../libDaisy/src/sys/system.h ****         uint32_t data;
  86:../../../libDaisy/src/sys/system.h ****         enum class Version : uint32_t
  87:../../../libDaisy/src/sys/system.h ****         {
  88:../../../libDaisy/src/sys/system.h ****             LT_v6_0 = 0, // Less than v6.0
  89:../../../libDaisy/src/sys/system.h ****             NONE,        // No bootloader present
  90:../../../libDaisy/src/sys/system.h ****             v6_0,        // v6.0
  91:../../../libDaisy/src/sys/system.h ****             v6_1,        // v6.1 or greater
  92:../../../libDaisy/src/sys/system.h ****             LAST
  93:../../../libDaisy/src/sys/system.h ****         } version;
  94:../../../libDaisy/src/sys/system.h ****     };
  95:../../../libDaisy/src/sys/system.h **** 
  96:../../../libDaisy/src/sys/system.h ****     System() {}
  97:../../../libDaisy/src/sys/system.h ****     ~System() {}
  88              		.loc 4 97 5 view .LVU5
  89              		.loc 4 97 5 is_stmt 0 view .LVU6
  90              	.LBE116:
  91              	.LBB117:
  92              	.LBI117:
  93              		.file 5 "../../../libDaisy/src/hid/usb.h"
   1:../../../libDaisy/src/hid/usb.h **** #pragma once
   2:../../../libDaisy/src/hid/usb.h **** #ifndef DSY_HID_USB_H
   3:../../../libDaisy/src/hid/usb.h **** #define DSY_HID_USB_H
   4:../../../libDaisy/src/hid/usb.h **** #include <stdint.h>
   5:../../../libDaisy/src/hid/usb.h **** #include <stdlib.h>
   6:../../../libDaisy/src/hid/usb.h **** 
   7:../../../libDaisy/src/hid/usb.h **** namespace daisy
   8:../../../libDaisy/src/hid/usb.h **** /** @addtogroup human_interface
   9:../../../libDaisy/src/hid/usb.h ****     @{
  10:../../../libDaisy/src/hid/usb.h **** */
  11:../../../libDaisy/src/hid/usb.h **** 
  12:../../../libDaisy/src/hid/usb.h **** {
  13:../../../libDaisy/src/hid/usb.h **** /** 
  14:../../../libDaisy/src/hid/usb.h ****     @brief Interface for initializing and using the USB Peripherals on the daisy
  15:../../../libDaisy/src/hid/usb.h ****     @author Stephen Hensley
  16:../../../libDaisy/src/hid/usb.h ****     @date December 2019
  17:../../../libDaisy/src/hid/usb.h **** */
  18:../../../libDaisy/src/hid/usb.h **** class UsbHandle
  19:../../../libDaisy/src/hid/usb.h **** {
  20:../../../libDaisy/src/hid/usb.h ****   public:
  21:../../../libDaisy/src/hid/usb.h ****     /** Return values for USBHandle Functions */
  22:../../../libDaisy/src/hid/usb.h ****     enum class Result
  23:../../../libDaisy/src/hid/usb.h ****     {
  24:../../../libDaisy/src/hid/usb.h ****         OK,
  25:../../../libDaisy/src/hid/usb.h ****         ERR,
  26:../../../libDaisy/src/hid/usb.h ****     };
  27:../../../libDaisy/src/hid/usb.h **** 
  28:../../../libDaisy/src/hid/usb.h ****     /** Specified which of the two USB Peripherals to initialize. */
  29:../../../libDaisy/src/hid/usb.h ****     enum UsbPeriph
  30:../../../libDaisy/src/hid/usb.h ****     {
  31:../../../libDaisy/src/hid/usb.h ****         FS_INTERNAL, /**< Internal pin */
ARM GAS  C:\Users\Miguel\AppData\Local\Temp\ccIs1zJP.s 			page 6


  32:../../../libDaisy/src/hid/usb.h ****         FS_EXTERNAL, /**< FS External D+ pin is Pin 38 (GPIO32). FS External D- pin is Pin 37 (GPIO
  33:../../../libDaisy/src/hid/usb.h ****         FS_BOTH,     /**< Both */
  34:../../../libDaisy/src/hid/usb.h ****     };
  35:../../../libDaisy/src/hid/usb.h **** 
  36:../../../libDaisy/src/hid/usb.h **** 
  37:../../../libDaisy/src/hid/usb.h ****     /** Function called upon reception of a buffer */
  38:../../../libDaisy/src/hid/usb.h ****     typedef void (*ReceiveCallback)(uint8_t* buff, uint32_t* len);
  39:../../../libDaisy/src/hid/usb.h **** 
  40:../../../libDaisy/src/hid/usb.h ****     UsbHandle() {}
  41:../../../libDaisy/src/hid/usb.h **** 
  42:../../../libDaisy/src/hid/usb.h ****     ~UsbHandle() {}
  94              		.loc 5 42 5 is_stmt 1 view .LVU7
  95              		.loc 5 42 5 is_stmt 0 view .LVU8
  96              	.LBE117:
  97              	.LBB118:
  98              	.LBI118:
  99              		.file 6 "../../../libDaisy/src/per/adc.h"
   1:../../../libDaisy/src/per/adc.h **** #pragma once
   2:../../../libDaisy/src/per/adc.h **** #ifndef DSY_ADC_H
   3:../../../libDaisy/src/per/adc.h **** #define DSY_ADC_H /**< Macro */
   4:../../../libDaisy/src/per/adc.h **** #include <stdint.h>
   5:../../../libDaisy/src/per/adc.h **** #include <stdlib.h>
   6:../../../libDaisy/src/per/adc.h **** #include "daisy_core.h"
   7:../../../libDaisy/src/per/adc.h **** #include "per/gpio.h"
   8:../../../libDaisy/src/per/adc.h **** 
   9:../../../libDaisy/src/per/adc.h **** #define DSY_ADC_MAX_CHANNELS 16 /**< Maximum number of ADC channels */
  10:../../../libDaisy/src/per/adc.h **** 
  11:../../../libDaisy/src/per/adc.h **** namespace daisy
  12:../../../libDaisy/src/per/adc.h **** {
  13:../../../libDaisy/src/per/adc.h **** /** @addtogroup per_analog
  14:../../../libDaisy/src/per/adc.h ****     @{
  15:../../../libDaisy/src/per/adc.h **** */
  16:../../../libDaisy/src/per/adc.h **** 
  17:../../../libDaisy/src/per/adc.h **** /* While there may not be many configuration options here,
  18:../../../libDaisy/src/per/adc.h **** using a struct like this allows us to add more configuration
  19:../../../libDaisy/src/per/adc.h **** later without breaking existing functionality.
  20:../../../libDaisy/src/per/adc.h **** */
  21:../../../libDaisy/src/per/adc.h **** 
  22:../../../libDaisy/src/per/adc.h **** /** @brief   Configuration Structure for an ADC Channel 
  23:../../../libDaisy/src/per/adc.h ****  *  @details This can be used to configure a a single input, 
  24:../../../libDaisy/src/per/adc.h ****  *           or a multiplexed input, allowing up to 8 inputs on 
  25:../../../libDaisy/src/per/adc.h ****  *           one channel.
  26:../../../libDaisy/src/per/adc.h ****  *  @note    Sharing data lines to multiple muxes _is_ possible, but
  27:../../../libDaisy/src/per/adc.h ****  *           each channel sharing data lines must be set to the maximum
  28:../../../libDaisy/src/per/adc.h ****  *           number of channels, even if some multiplexers have fewer
  29:../../../libDaisy/src/per/adc.h ****  *           inputs connected.
  30:../../../libDaisy/src/per/adc.h **** */
  31:../../../libDaisy/src/per/adc.h **** struct AdcChannelConfig
  32:../../../libDaisy/src/per/adc.h **** {
  33:../../../libDaisy/src/per/adc.h ****     /** Which pin to use for multiplexing */
  34:../../../libDaisy/src/per/adc.h ****     enum MuxPin
  35:../../../libDaisy/src/per/adc.h ****     {
  36:../../../libDaisy/src/per/adc.h ****         MUX_SEL_0,    /**< & */
  37:../../../libDaisy/src/per/adc.h ****         MUX_SEL_1,    /**< & */
  38:../../../libDaisy/src/per/adc.h ****         MUX_SEL_2,    /**< & */
  39:../../../libDaisy/src/per/adc.h ****         MUX_SEL_LAST, /**< & */
  40:../../../libDaisy/src/per/adc.h ****     };
ARM GAS  C:\Users\Miguel\AppData\Local\Temp\ccIs1zJP.s 			page 7


  41:../../../libDaisy/src/per/adc.h **** 
  42:../../../libDaisy/src/per/adc.h ****     /** \brief per channel conversion speed added to fixed time based on bitdepth, etc. */
  43:../../../libDaisy/src/per/adc.h ****     enum ConversionSpeed
  44:../../../libDaisy/src/per/adc.h ****     {
  45:../../../libDaisy/src/per/adc.h ****         SPEED_1CYCLES_5,
  46:../../../libDaisy/src/per/adc.h ****         SPEED_2CYCLES_5,
  47:../../../libDaisy/src/per/adc.h ****         SPEED_8CYCLES_5,
  48:../../../libDaisy/src/per/adc.h ****         SPEED_16CYCLES_5,
  49:../../../libDaisy/src/per/adc.h ****         SPEED_32CYCLES_5,
  50:../../../libDaisy/src/per/adc.h ****         SPEED_64CYCLES_5,
  51:../../../libDaisy/src/per/adc.h ****         SPEED_387CYCLES_5,
  52:../../../libDaisy/src/per/adc.h ****         SPEED_810CYCLES_5,
  53:../../../libDaisy/src/per/adc.h ****     };
  54:../../../libDaisy/src/per/adc.h **** 
  55:../../../libDaisy/src/per/adc.h ****     /** Initializes a single ADC pin as an ADC. 
  56:../../../libDaisy/src/per/adc.h ****     \param pin Pin to init.
  57:../../../libDaisy/src/per/adc.h ****     \param speed conversion speed for this pin defaults to 8.5 cycles
  58:../../../libDaisy/src/per/adc.h ****      */
  59:../../../libDaisy/src/per/adc.h ****     void InitSingle(dsy_gpio_pin pin, ConversionSpeed speed = SPEED_8CYCLES_5);
  60:../../../libDaisy/src/per/adc.h **** 
  61:../../../libDaisy/src/per/adc.h ****     /** 
  62:../../../libDaisy/src/per/adc.h ****     Initializes a single ADC pin as a Multiplexed ADC.
  63:../../../libDaisy/src/per/adc.h ****     Requires a CD405X Multiplexer connected to the pin.
  64:../../../libDaisy/src/per/adc.h ****     You only need to supply the mux pins that are required,
  65:../../../libDaisy/src/per/adc.h ****     e.g. a 4052 mux would only require mux_0 and mux_1.
  66:../../../libDaisy/src/per/adc.h ****     Internal Callbacks handle the pin addressing.
  67:../../../libDaisy/src/per/adc.h ****     \param adc_pin &
  68:../../../libDaisy/src/per/adc.h ****     \param mux_channels must be 1-8
  69:../../../libDaisy/src/per/adc.h ****     \param mux_0 First mux pin
  70:../../../libDaisy/src/per/adc.h ****     \param mux_1 Second mux pin
  71:../../../libDaisy/src/per/adc.h ****     \param mux_2 Third mux pin
  72:../../../libDaisy/src/per/adc.h ****     \param speed conversion speed for this pin defaults to 8.5 cycles
  73:../../../libDaisy/src/per/adc.h ****     */
  74:../../../libDaisy/src/per/adc.h ****     void InitMux(dsy_gpio_pin    adc_pin,
  75:../../../libDaisy/src/per/adc.h ****                  size_t          mux_channels,
  76:../../../libDaisy/src/per/adc.h ****                  dsy_gpio_pin    mux_0,
  77:../../../libDaisy/src/per/adc.h ****                  dsy_gpio_pin    mux_1 = {DSY_GPIOX, 0},
  78:../../../libDaisy/src/per/adc.h ****                  dsy_gpio_pin    mux_2 = {DSY_GPIOX, 0},
  79:../../../libDaisy/src/per/adc.h ****                  ConversionSpeed speed = SPEED_8CYCLES_5);
  80:../../../libDaisy/src/per/adc.h **** 
  81:../../../libDaisy/src/per/adc.h ****     dsy_gpio        pin_;                   /**< & */
  82:../../../libDaisy/src/per/adc.h ****     dsy_gpio        mux_pin_[MUX_SEL_LAST]; /**< & */
  83:../../../libDaisy/src/per/adc.h ****     uint8_t         mux_channels_;          /**< & */
  84:../../../libDaisy/src/per/adc.h ****     ConversionSpeed speed_;
  85:../../../libDaisy/src/per/adc.h **** };
  86:../../../libDaisy/src/per/adc.h **** 
  87:../../../libDaisy/src/per/adc.h **** /**
  88:../../../libDaisy/src/per/adc.h ****    @brief Handler for analog to digital conversion
  89:../../../libDaisy/src/per/adc.h **** */
  90:../../../libDaisy/src/per/adc.h **** class AdcHandle
  91:../../../libDaisy/src/per/adc.h **** {
  92:../../../libDaisy/src/per/adc.h ****   public:
  93:../../../libDaisy/src/per/adc.h ****     /** Supported oversampling amounts */
  94:../../../libDaisy/src/per/adc.h ****     enum OverSampling
  95:../../../libDaisy/src/per/adc.h ****     {
  96:../../../libDaisy/src/per/adc.h ****         OVS_NONE, /**< & */
  97:../../../libDaisy/src/per/adc.h ****         OVS_4,    /**< & */
ARM GAS  C:\Users\Miguel\AppData\Local\Temp\ccIs1zJP.s 			page 8


  98:../../../libDaisy/src/per/adc.h ****         OVS_8,    /**< & */
  99:../../../libDaisy/src/per/adc.h ****         OVS_16,   /**< & */
 100:../../../libDaisy/src/per/adc.h ****         OVS_32,   /**< & */
 101:../../../libDaisy/src/per/adc.h ****         OVS_64,   /**< & */
 102:../../../libDaisy/src/per/adc.h ****         OVS_128,  /**< & */
 103:../../../libDaisy/src/per/adc.h ****         OVS_256,  /**< & */
 104:../../../libDaisy/src/per/adc.h ****         OVS_512,  /**< & */
 105:../../../libDaisy/src/per/adc.h ****         OVS_1024, /**< & */
 106:../../../libDaisy/src/per/adc.h ****         OVS_LAST, /**< & */
 107:../../../libDaisy/src/per/adc.h ****     };
 108:../../../libDaisy/src/per/adc.h **** 
 109:../../../libDaisy/src/per/adc.h ****     AdcHandle() {}
 110:../../../libDaisy/src/per/adc.h ****     ~AdcHandle() {}
 100              		.loc 6 110 5 is_stmt 1 view .LVU9
 101              		.loc 6 110 5 is_stmt 0 view .LVU10
 102              	.LBE118:
 103              	.LBB119:
 104              	.LBI119:
 105              		.file 7 "../../../libDaisy/src/hid/audio.h"
   1:../../../libDaisy/src/hid/audio.h **** #ifndef DSY_AUDIO_H
   2:../../../libDaisy/src/hid/audio.h **** #define DSY_AUDIO_H /**< & */
   3:../../../libDaisy/src/hid/audio.h **** 
   4:../../../libDaisy/src/hid/audio.h **** #include "per/sai.h"
   5:../../../libDaisy/src/hid/audio.h **** 
   6:../../../libDaisy/src/hid/audio.h **** namespace daisy
   7:../../../libDaisy/src/hid/audio.h **** {
   8:../../../libDaisy/src/hid/audio.h **** /** @brief Audio Engine Handle
   9:../../../libDaisy/src/hid/audio.h ****  *  @ingroup audio 
  10:../../../libDaisy/src/hid/audio.h ****  *  @details This class allows for higher level access to an audio engine.
  11:../../../libDaisy/src/hid/audio.h ****  *           If you're using a SOM like the DaisySeed or DaisyPatchSM (or any 
  12:../../../libDaisy/src/hid/audio.h ****  *            board that includes one of those objects) then the intialization
  13:../../../libDaisy/src/hid/audio.h ****  *            is already taken  care of.
  14:../../../libDaisy/src/hid/audio.h ****  *           If you're setting up your own custom hardware, or need to make changes
  15:../../../libDaisy/src/hid/audio.h ****  *           you will have to take the following steps:
  16:../../../libDaisy/src/hid/audio.h ****  *             1. Create and Initialize an SaiHandle or two depending on your requirements
  17:../../../libDaisy/src/hid/audio.h ****  *             2. Initialize the Audio Handle with the desired settings and the Initialized SaiHand
  18:../../../libDaisy/src/hid/audio.h ****  *             3. If the connected codec requires special configuration or initialization, do so
  19:../../../libDaisy/src/hid/audio.h ****  *             4. Write a callback method using either the AudioCallback or the InterleavingAudioCa
  20:../../../libDaisy/src/hid/audio.h ****  *             5. Start the Audio using one of the StartAudio function
  21:../../../libDaisy/src/hid/audio.h ****  */
  22:../../../libDaisy/src/hid/audio.h **** class AudioHandle
  23:../../../libDaisy/src/hid/audio.h **** {
  24:../../../libDaisy/src/hid/audio.h ****   public:
  25:../../../libDaisy/src/hid/audio.h ****     /** Manually configurable details about the Audio Engine */
  26:../../../libDaisy/src/hid/audio.h ****     /** TODO: Figure out how to get samplerate in here. */
  27:../../../libDaisy/src/hid/audio.h ****     struct Config
  28:../../../libDaisy/src/hid/audio.h ****     {
  29:../../../libDaisy/src/hid/audio.h ****         /** number of samples to process per callback */
  30:../../../libDaisy/src/hid/audio.h ****         size_t blocksize;
  31:../../../libDaisy/src/hid/audio.h **** 
  32:../../../libDaisy/src/hid/audio.h ****         /**< Sample rate of audio */
  33:../../../libDaisy/src/hid/audio.h ****         SaiHandle::Config::SampleRate samplerate;
  34:../../../libDaisy/src/hid/audio.h **** 
  35:../../../libDaisy/src/hid/audio.h ****         /** factor for adjustment before and after callback for hardware that may have extra headro
  36:../../../libDaisy/src/hid/audio.h ****         float postgain;
  37:../../../libDaisy/src/hid/audio.h **** 
  38:../../../libDaisy/src/hid/audio.h ****         /** factor for additional one-sided compensation to audio path for hardware that may
ARM GAS  C:\Users\Miguel\AppData\Local\Temp\ccIs1zJP.s 			page 9


  39:../../../libDaisy/src/hid/audio.h ****          *  have unequal input/output ranges
  40:../../../libDaisy/src/hid/audio.h ****          */
  41:../../../libDaisy/src/hid/audio.h ****         float output_compensation;
  42:../../../libDaisy/src/hid/audio.h **** 
  43:../../../libDaisy/src/hid/audio.h ****         /** Sets default values for config struct */
  44:../../../libDaisy/src/hid/audio.h ****         Config()
  45:../../../libDaisy/src/hid/audio.h ****         : blocksize(48),
  46:../../../libDaisy/src/hid/audio.h ****           samplerate(SaiHandle::Config::SampleRate::SAI_48KHZ),
  47:../../../libDaisy/src/hid/audio.h ****           postgain(1.f),
  48:../../../libDaisy/src/hid/audio.h ****           output_compensation(1.f)
  49:../../../libDaisy/src/hid/audio.h ****         {
  50:../../../libDaisy/src/hid/audio.h ****         }
  51:../../../libDaisy/src/hid/audio.h ****     };
  52:../../../libDaisy/src/hid/audio.h **** 
  53:../../../libDaisy/src/hid/audio.h ****     enum class Result
  54:../../../libDaisy/src/hid/audio.h ****     {
  55:../../../libDaisy/src/hid/audio.h ****         OK,
  56:../../../libDaisy/src/hid/audio.h ****         ERR,
  57:../../../libDaisy/src/hid/audio.h ****     };
  58:../../../libDaisy/src/hid/audio.h **** 
  59:../../../libDaisy/src/hid/audio.h ****     /** Non-Interleaving input buffer
  60:../../../libDaisy/src/hid/audio.h ****      * Buffer arranged by float[chn][sample] 
  61:../../../libDaisy/src/hid/audio.h ****      * const so that the user can't modify the input
  62:../../../libDaisy/src/hid/audio.h ****      */
  63:../../../libDaisy/src/hid/audio.h ****     typedef const float* const* InputBuffer;
  64:../../../libDaisy/src/hid/audio.h **** 
  65:../../../libDaisy/src/hid/audio.h ****     /** Non-Interleaving output buffer
  66:../../../libDaisy/src/hid/audio.h ****      * Arranged by float[chn][sample] 
  67:../../../libDaisy/src/hid/audio.h ****      */
  68:../../../libDaisy/src/hid/audio.h ****     typedef float** OutputBuffer;
  69:../../../libDaisy/src/hid/audio.h **** 
  70:../../../libDaisy/src/hid/audio.h ****     /** Type for a Non-Interleaving audio callback 
  71:../../../libDaisy/src/hid/audio.h ****      * Non-Interleaving audio callbacks in daisy will be of this type
  72:../../../libDaisy/src/hid/audio.h ****      */
  73:../../../libDaisy/src/hid/audio.h ****     typedef void (*AudioCallback)(InputBuffer  in,
  74:../../../libDaisy/src/hid/audio.h ****                                   OutputBuffer out,
  75:../../../libDaisy/src/hid/audio.h ****                                   size_t       size);
  76:../../../libDaisy/src/hid/audio.h **** 
  77:../../../libDaisy/src/hid/audio.h ****     /** Interleaving Input buffer
  78:../../../libDaisy/src/hid/audio.h ****      ** audio is prepared as { L0, R0, L1, R1, . . . LN, RN }]
  79:../../../libDaisy/src/hid/audio.h ****      ** this is const, as the user shouldn't modify it
  80:../../../libDaisy/src/hid/audio.h ****     */
  81:../../../libDaisy/src/hid/audio.h ****     typedef const float* InterleavingInputBuffer;
  82:../../../libDaisy/src/hid/audio.h **** 
  83:../../../libDaisy/src/hid/audio.h ****     /** Interleaving Output buffer 
  84:../../../libDaisy/src/hid/audio.h ****      ** audio is prepared as { L0, R0, L1, R1, . . . LN, RN }
  85:../../../libDaisy/src/hid/audio.h ****     */
  86:../../../libDaisy/src/hid/audio.h ****     typedef float* InterleavingOutputBuffer;
  87:../../../libDaisy/src/hid/audio.h **** 
  88:../../../libDaisy/src/hid/audio.h ****     /** Interleaving Audio Callback 
  89:../../../libDaisy/src/hid/audio.h ****      * Interleaving audio callbacks in daisy must be of this type
  90:../../../libDaisy/src/hid/audio.h ****      */
  91:../../../libDaisy/src/hid/audio.h ****     typedef void (*InterleavingAudioCallback)(InterleavingInputBuffer  in,
  92:../../../libDaisy/src/hid/audio.h ****                                               InterleavingOutputBuffer out,
  93:../../../libDaisy/src/hid/audio.h ****                                               size_t                   size);
  94:../../../libDaisy/src/hid/audio.h **** 
  95:../../../libDaisy/src/hid/audio.h ****     AudioHandle() : pimpl_(nullptr) {}
ARM GAS  C:\Users\Miguel\AppData\Local\Temp\ccIs1zJP.s 			page 10


  96:../../../libDaisy/src/hid/audio.h ****     ~AudioHandle() {}
 106              		.loc 7 96 5 is_stmt 1 view .LVU11
 107              		.loc 7 96 5 is_stmt 0 view .LVU12
 108              	.LBE119:
 109              		.loc 3 22 19 view .LVU13
 110 0000 7047     		bx	lr
 111              		.cfi_endproc
 112              	.LFE4841:
 114              		.weak	_ZN5daisy9DaisySeedD1Ev
 115              		.thumb_set _ZN5daisy9DaisySeedD1Ev,_ZN5daisy9DaisySeedD2Ev
 116 0002 00BF     		.section	.text._ZL13AudioCallbackPKfPfj,"ax",%progbits
 117              		.align	1
 118              		.p2align 2,,3
 119              		.syntax unified
 120              		.thumb
 121              		.thumb_func
 122              		.fpu fpv5-d16
 124              	_ZL13AudioCallbackPKfPfj:
 125              	.LVL3:
 126              	.LFB4846:
 127              		.file 8 "atone.cpp"
   1:atone.cpp     **** #include "daisysp.h"
   2:atone.cpp     **** #include "daisy_seed.h"
   3:atone.cpp     **** #include "daisysp-lgpl.h"
   4:atone.cpp     **** 
   5:atone.cpp     **** using namespace daisysp;
   6:atone.cpp     **** using namespace daisy;
   7:atone.cpp     **** 
   8:atone.cpp     **** static DaisySeed  hw;
   9:atone.cpp     **** static ATone      flt;
  10:atone.cpp     **** static Oscillator osc, lfo;
  11:atone.cpp     **** 
  12:atone.cpp     **** static void AudioCallback(AudioHandle::InterleavingInputBuffer  in,
  13:atone.cpp     ****                           AudioHandle::InterleavingOutputBuffer out,
  14:atone.cpp     ****                           size_t                                size)
  15:atone.cpp     **** {
 128              		.loc 8 15 1 is_stmt 1 view -0
 129              		.cfi_startproc
 130              		@ args = 0, pretend = 0, frame = 8
 131              		@ frame_needed = 0, uses_anonymous_args = 0
  16:atone.cpp     ****     float saw, freq, output;
 132              		.loc 8 16 5 view .LVU15
  17:atone.cpp     ****     for(size_t i = 0; i < size; i += 2)
 133              		.loc 8 17 5 view .LVU16
 134              	.LBB120:
 135              		.loc 8 17 25 view .LVU17
 136 0000 62B3     		cbz	r2, .L13
 137 0002 013A     		subs	r2, r2, #1
 138              	.LVL4:
 139              		.loc 8 17 25 is_stmt 0 view .LVU18
 140              	.LBE120:
  15:atone.cpp     ****     float saw, freq, output;
 141              		.loc 8 15 1 view .LVU19
 142 0004 F0B5     		push	{r4, r5, r6, r7, lr}
 143              		.cfi_def_cfa_offset 20
 144              		.cfi_offset 4, -20
 145              		.cfi_offset 5, -16
ARM GAS  C:\Users\Miguel\AppData\Local\Temp\ccIs1zJP.s 			page 11


 146              		.cfi_offset 6, -12
 147              		.cfi_offset 7, -8
 148              		.cfi_offset 14, -4
 149 0006 0C46     		mov	r4, r1
 150              	.LBB125:
 151              		.loc 8 17 25 view .LVU20
 152 0008 0025     		movs	r5, #0
 153 000a 154F     		ldr	r7, .L16
 154 000c 5608     		lsrs	r6, r2, #1
 155              	.LBE125:
  15:atone.cpp     ****     float saw, freq, output;
 156              		.loc 8 15 1 view .LVU21
 157 000e 2DED028B 		vpush.64	{d8}
 158              		.cfi_def_cfa_offset 28
 159              		.cfi_offset 80, -28
 160              		.cfi_offset 81, -24
 161 0012 83B0     		sub	sp, sp, #12
 162              		.cfi_def_cfa_offset 40
 163              	.LVL5:
 164              	.L7:
 165              	.LBB126:
  18:atone.cpp     ****     {
  19:atone.cpp     ****         freq = 2000 + (lfo.Process() * 2000);
 166              		.loc 8 19 9 is_stmt 1 discriminator 2 view .LVU22
 167              		.loc 8 19 35 is_stmt 0 discriminator 2 view .LVU23
 168 0014 1348     		ldr	r0, .L16+4
  17:atone.cpp     ****     {
 169              		.loc 8 17 25 discriminator 2 view .LVU24
 170 0016 0834     		adds	r4, r4, #8
 171              		.loc 8 19 35 discriminator 2 view .LVU25
 172 0018 FFF7FEFF 		bl	_ZN7daisysp10Oscillator7ProcessEv
 173              	.LVL6:
 174              		.loc 8 19 21 discriminator 2 view .LVU26
 175 001c DFED127A 		vldr.32	s15, .L16+8
  20:atone.cpp     ****         saw  = osc.Process();
 176              		.loc 8 20 27 discriminator 2 view .LVU27
 177 0020 1248     		ldr	r0, .L16+12
  19:atone.cpp     ****         saw  = osc.Process();
 178              		.loc 8 19 21 discriminator 2 view .LVU28
 179 0022 E0EE277A 		vfma.f32	s15, s0, s15
 180 0026 B0EE678A 		vmov.f32	s16, s15
 181              	.LVL7:
 182              		.loc 8 20 9 is_stmt 1 discriminator 2 view .LVU29
 183              		.loc 8 20 27 is_stmt 0 discriminator 2 view .LVU30
 184 002a FFF7FEFF 		bl	_ZN7daisysp10Oscillator7ProcessEv
 185              	.LVL8:
 186              	.LBB121:
 187              	.LBB122:
  24:../../../DaisySP/DaisySP-LGPL/Source/Filters/atone.h ****     /** Initializes the ATone module.
  25:../../../DaisySP/DaisySP-LGPL/Source/Filters/atone.h ****         \param sample_rate - The sample rate of the audio engine being run. 
  26:../../../DaisySP/DaisySP-LGPL/Source/Filters/atone.h ****     */
  27:../../../DaisySP/DaisySP-LGPL/Source/Filters/atone.h ****     void Init(float sample_rate);
  28:../../../DaisySP/DaisySP-LGPL/Source/Filters/atone.h **** 
  29:../../../DaisySP/DaisySP-LGPL/Source/Filters/atone.h **** 
  30:../../../DaisySP/DaisySP-LGPL/Source/Filters/atone.h ****     /** Processes one sample through the filter and returns one sample.
  31:../../../DaisySP/DaisySP-LGPL/Source/Filters/atone.h ****         \param in - input signal 
  32:../../../DaisySP/DaisySP-LGPL/Source/Filters/atone.h ****     */
ARM GAS  C:\Users\Miguel\AppData\Local\Temp\ccIs1zJP.s 			page 12


  33:../../../DaisySP/DaisySP-LGPL/Source/Filters/atone.h ****     float Process(float &in);
  34:../../../DaisySP/DaisySP-LGPL/Source/Filters/atone.h **** 
  35:../../../DaisySP/DaisySP-LGPL/Source/Filters/atone.h ****     /** Sets the cutoff frequency or half-way point of the filter.
  36:../../../DaisySP/DaisySP-LGPL/Source/Filters/atone.h ****         \param freq - frequency value in Hz. Range: Any positive value.
  37:../../../DaisySP/DaisySP-LGPL/Source/Filters/atone.h ****     */
  38:../../../DaisySP/DaisySP-LGPL/Source/Filters/atone.h ****     inline void SetFreq(float &freq)
  39:../../../DaisySP/DaisySP-LGPL/Source/Filters/atone.h ****     {
  40:../../../DaisySP/DaisySP-LGPL/Source/Filters/atone.h ****         freq_ = freq;
  41:../../../DaisySP/DaisySP-LGPL/Source/Filters/atone.h ****         CalculateCoefficients();
 188              		.loc 2 41 30 discriminator 2 view .LVU31
 189 002e 0C48     		ldr	r0, .L16
 190              	.LBE122:
 191              	.LBE121:
 192              		.loc 8 20 14 discriminator 2 view .LVU32
 193 0030 8DED010A 		vstr.32	s0, [sp, #4]
  21:atone.cpp     ****         // CUT OFF FREQUENCY
  22:atone.cpp     ****         flt.SetFreq(freq);
 194              		.loc 8 22 9 is_stmt 1 discriminator 2 view .LVU33
 195              	.LVL9:
 196              	.LBB124:
 197              	.LBI121:
  38:../../../DaisySP/DaisySP-LGPL/Source/Filters/atone.h ****     {
 198              		.loc 2 38 17 discriminator 2 view .LVU34
 199              	.LBB123:
  40:../../../DaisySP/DaisySP-LGPL/Source/Filters/atone.h ****         CalculateCoefficients();
 200              		.loc 2 40 9 discriminator 2 view .LVU35
  40:../../../DaisySP/DaisySP-LGPL/Source/Filters/atone.h ****         CalculateCoefficients();
 201              		.loc 2 40 15 is_stmt 0 discriminator 2 view .LVU36
 202 0034 87ED038A 		vstr.32	s16, [r7, #12]
 203              		.loc 2 41 9 is_stmt 1 discriminator 2 view .LVU37
 204              		.loc 2 41 30 is_stmt 0 discriminator 2 view .LVU38
 205 0038 FFF7FEFF 		bl	_ZN7daisysp5ATone21CalculateCoefficientsEv
 206              	.LVL10:
 207              		.loc 2 41 30 discriminator 2 view .LVU39
 208              	.LBE123:
 209              	.LBE124:
  23:atone.cpp     ****         output = flt.Process(saw);
 210              		.loc 8 23 9 is_stmt 1 discriminator 2 view .LVU40
 211              		.loc 8 23 29 is_stmt 0 discriminator 2 view .LVU41
 212 003c 01A9     		add	r1, sp, #4
 213 003e 0848     		ldr	r0, .L16
 214 0040 FFF7FEFF 		bl	_ZN7daisysp5ATone7ProcessERf
 215              	.LVL11:
  24:atone.cpp     **** 
  25:atone.cpp     ****         // left out
  26:atone.cpp     ****         out[i] = output;
 216              		.loc 8 26 9 is_stmt 1 discriminator 2 view .LVU42
  17:atone.cpp     ****     {
 217              		.loc 8 17 25 is_stmt 0 discriminator 2 view .LVU43
 218 0044 AE42     		cmp	r6, r5
 219              		.loc 8 26 16 discriminator 2 view .LVU44
 220 0046 04ED020A 		vstr.32	s0, [r4, #-8]
  27:atone.cpp     **** 
  28:atone.cpp     ****         // right out
  29:atone.cpp     ****         out[i + 1] = output;
 221              		.loc 8 29 9 is_stmt 1 discriminator 2 view .LVU45
  17:atone.cpp     ****     {
ARM GAS  C:\Users\Miguel\AppData\Local\Temp\ccIs1zJP.s 			page 13


 222              		.loc 8 17 25 is_stmt 0 discriminator 2 view .LVU46
 223 004a 05F10105 		add	r5, r5, #1
 224              	.LVL12:
 225              		.loc 8 29 20 discriminator 2 view .LVU47
 226 004e 04ED010A 		vstr.32	s0, [r4, #-4]
  17:atone.cpp     ****     {
 227              		.loc 8 17 5 is_stmt 1 discriminator 2 view .LVU48
 228              	.LVL13:
  17:atone.cpp     ****     {
 229              		.loc 8 17 25 discriminator 2 view .LVU49
 230 0052 DFD1     		bne	.L7
 231              	.LBE126:
  30:atone.cpp     ****     }
  31:atone.cpp     **** }
 232              		.loc 8 31 1 is_stmt 0 view .LVU50
 233 0054 03B0     		add	sp, sp, #12
 234              		.cfi_def_cfa_offset 28
 235              		@ sp needed
 236 0056 BDEC028B 		vldm	sp!, {d8}
 237              		.cfi_restore 80
 238              		.cfi_restore 81
 239              		.cfi_def_cfa_offset 20
 240              	.LVL14:
 241              		.loc 8 31 1 view .LVU51
 242 005a F0BD     		pop	{r4, r5, r6, r7, pc}
 243              	.LVL15:
 244              	.L13:
 245              		.cfi_def_cfa_offset 0
 246              		.cfi_restore 4
 247              		.cfi_restore 5
 248              		.cfi_restore 6
 249              		.cfi_restore 7
 250              		.cfi_restore 14
 251              		.loc 8 31 1 view .LVU52
 252 005c 7047     		bx	lr
 253              	.L17:
 254 005e 00BF     		.align	2
 255              	.L16:
 256 0060 00000000 		.word	.LANCHOR2
 257 0064 00000000 		.word	.LANCHOR0
 258 0068 0000FA44 		.word	1157234688
 259 006c 00000000 		.word	.LANCHOR1
 260              		.cfi_endproc
 261              	.LFE4846:
 263              		.section	.rodata.main.str1.4,"aMS",%progbits,1
 264              		.align	2
 265              	.LC0:
 266 0000 4D792046 		.ascii	"My Float: %c%d.%06d\000"
 266      6C6F6174 
 266      3A202563 
 266      25642E25 
 266      30366400 
 267              		.section	.text.startup.main,"ax",%progbits
 268              		.align	1
 269              		.p2align 2,,3
 270              		.global	main
 271              		.syntax unified
ARM GAS  C:\Users\Miguel\AppData\Local\Temp\ccIs1zJP.s 			page 14


 272              		.thumb
 273              		.thumb_func
 274              		.fpu fpv5-d16
 276              	main:
 277              	.LFB4847:
  32:atone.cpp     **** 
  33:atone.cpp     **** int main(void)
  34:atone.cpp     **** {
 278              		.loc 8 34 1 is_stmt 1 view -0
 279              		.cfi_startproc
 280              		@ args = 0, pretend = 0, frame = 0
 281              		@ frame_needed = 0, uses_anonymous_args = 0
  35:atone.cpp     ****     // initialize seed hardware and daisysp modules
  36:atone.cpp     ****     float sample_rate;
 282              		.loc 8 36 5 view .LVU54
  37:atone.cpp     ****     hw.Configure();
 283              		.loc 8 37 5 view .LVU55
  34:atone.cpp     ****     // initialize seed hardware and daisysp modules
 284              		.loc 8 34 1 is_stmt 0 view .LVU56
 285 0000 2DE9F041 		push	{r4, r5, r6, r7, r8, lr}
 286              		.cfi_def_cfa_offset 24
 287              		.cfi_offset 4, -24
 288              		.cfi_offset 5, -20
 289              		.cfi_offset 6, -16
 290              		.cfi_offset 7, -12
 291              		.cfi_offset 8, -8
 292              		.cfi_offset 14, -4
 293              		.loc 8 37 17 view .LVU57
 294 0004 4A48     		ldr	r0, .L23+8
 295              	.LBB151:
 296              	.LBB152:
  25:../../../DaisySP/Source/Synthesis/oscillator.h ****     /** Choices for output waveforms, POLYBLEP are appropriately labeled. Others are naive forms.
  26:../../../DaisySP/Source/Synthesis/oscillator.h ****     */
  27:../../../DaisySP/Source/Synthesis/oscillator.h ****     enum
  28:../../../DaisySP/Source/Synthesis/oscillator.h ****     {
  29:../../../DaisySP/Source/Synthesis/oscillator.h ****         WAVE_SIN,
  30:../../../DaisySP/Source/Synthesis/oscillator.h ****         WAVE_TRI,
  31:../../../DaisySP/Source/Synthesis/oscillator.h ****         WAVE_SAW,
  32:../../../DaisySP/Source/Synthesis/oscillator.h ****         WAVE_RAMP,
  33:../../../DaisySP/Source/Synthesis/oscillator.h ****         WAVE_SQUARE,
  34:../../../DaisySP/Source/Synthesis/oscillator.h ****         WAVE_POLYBLEP_TRI,
  35:../../../DaisySP/Source/Synthesis/oscillator.h ****         WAVE_POLYBLEP_SAW,
  36:../../../DaisySP/Source/Synthesis/oscillator.h ****         WAVE_POLYBLEP_SQUARE,
  37:../../../DaisySP/Source/Synthesis/oscillator.h ****         WAVE_LAST,
  38:../../../DaisySP/Source/Synthesis/oscillator.h ****     };
  39:../../../DaisySP/Source/Synthesis/oscillator.h **** 
  40:../../../DaisySP/Source/Synthesis/oscillator.h **** 
  41:../../../DaisySP/Source/Synthesis/oscillator.h ****     /** Initializes the Oscillator
  42:../../../DaisySP/Source/Synthesis/oscillator.h **** 
  43:../../../DaisySP/Source/Synthesis/oscillator.h ****         \param sample_rate - sample rate of the audio engine being run, and the frequency that the 
  44:../../../DaisySP/Source/Synthesis/oscillator.h **** 
  45:../../../DaisySP/Source/Synthesis/oscillator.h ****         Defaults:
  46:../../../DaisySP/Source/Synthesis/oscillator.h ****         - freq_ = 100 Hz
  47:../../../DaisySP/Source/Synthesis/oscillator.h ****         - amp_ = 0.5
  48:../../../DaisySP/Source/Synthesis/oscillator.h ****         - waveform_ = sine wave.
  49:../../../DaisySP/Source/Synthesis/oscillator.h ****     */
  50:../../../DaisySP/Source/Synthesis/oscillator.h ****     void Init(float sample_rate)
ARM GAS  C:\Users\Miguel\AppData\Local\Temp\ccIs1zJP.s 			page 15


  51:../../../DaisySP/Source/Synthesis/oscillator.h ****     {
  52:../../../DaisySP/Source/Synthesis/oscillator.h ****         sr_        = sample_rate;
  53:../../../DaisySP/Source/Synthesis/oscillator.h ****         sr_recip_  = 1.0f / sample_rate;
  54:../../../DaisySP/Source/Synthesis/oscillator.h ****         freq_      = 100.0f;
  55:../../../DaisySP/Source/Synthesis/oscillator.h ****         amp_       = 0.5f;
 297              		.loc 1 55 20 view .LVU58
 298 0006 4FF07C56 		mov	r6, #1056964608
  52:../../../DaisySP/Source/Synthesis/oscillator.h ****         sr_recip_  = 1.0f / sample_rate;
 299              		.loc 1 52 20 view .LVU59
 300 000a 4A4C     		ldr	r4, .L23+12
  56:../../../DaisySP/Source/Synthesis/oscillator.h ****         pw_        = 0.5f;
  57:../../../DaisySP/Source/Synthesis/oscillator.h ****         phase_     = 0.0f;
 301              		.loc 1 57 20 view .LVU60
 302 000c 4FF00008 		mov	r8, #0
  58:../../../DaisySP/Source/Synthesis/oscillator.h ****         phase_inc_ = CalcPhaseInc(freq_);
  59:../../../DaisySP/Source/Synthesis/oscillator.h ****         waveform_  = WAVE_SIN;
  60:../../../DaisySP/Source/Synthesis/oscillator.h ****         eoc_       = true;
  61:../../../DaisySP/Source/Synthesis/oscillator.h ****         eor_       = true;
 303              		.loc 1 61 20 view .LVU61
 304 0010 40F20117 		movw	r7, #257
 305              	.LBE152:
 306              	.LBE151:
 307              	.LBB157:
 308              	.LBB158:
  52:../../../DaisySP/Source/Synthesis/oscillator.h ****         sr_recip_  = 1.0f / sample_rate;
 309              		.loc 1 52 20 view .LVU62
 310 0014 484D     		ldr	r5, .L23+16
 311              	.LBE158:
 312              	.LBE157:
  34:atone.cpp     ****     // initialize seed hardware and daisysp modules
 313              		.loc 8 34 1 view .LVU63
 314 0016 2DED048B 		vpush.64	{d8, d9}
 315              		.cfi_def_cfa_offset 40
 316              		.cfi_offset 80, -40
 317              		.cfi_offset 81, -36
 318              		.cfi_offset 82, -32
 319              		.cfi_offset 83, -28
 320              		.loc 8 37 17 view .LVU64
 321 001a FFF7FEFF 		bl	_ZN5daisy9DaisySeed9ConfigureEv
 322              	.LVL16:
  38:atone.cpp     ****     hw.Init();
 323              		.loc 8 38 5 is_stmt 1 view .LVU65
 324              		.loc 8 38 12 is_stmt 0 view .LVU66
 325 001e 0021     		movs	r1, #0
 326 0020 4348     		ldr	r0, .L23+8
 327              	.LBB162:
 328              	.LBB153:
  53:../../../DaisySP/Source/Synthesis/oscillator.h ****         freq_      = 100.0f;
 329              		.loc 1 53 27 view .LVU67
 330 0022 F7EE009A 		vmov.f32	s19, #1.0e+0
 331              	.LBE153:
 332              	.LBE162:
 333              		.loc 8 38 12 view .LVU68
 334 0026 FFF7FEFF 		bl	_ZN5daisy9DaisySeed4InitEb
 335              	.LVL17:
  39:atone.cpp     ****     hw.StartLog();
 336              		.loc 8 39 5 is_stmt 1 view .LVU69
ARM GAS  C:\Users\Miguel\AppData\Local\Temp\ccIs1zJP.s 			page 16


 337              	.LBB163:
 338              	.LBI163:
  23:../../../libDaisy/src/daisy_seed.h **** 
  24:../../../libDaisy/src/daisy_seed.h ****     /** This function used to provide a pre-initialization configuraiton 
  25:../../../libDaisy/src/daisy_seed.h ****      *  it has since been deprecated, and does nothing.
  26:../../../libDaisy/src/daisy_seed.h ****      */
  27:../../../libDaisy/src/daisy_seed.h ****     void Configure();
  28:../../../libDaisy/src/daisy_seed.h **** 
  29:../../../libDaisy/src/daisy_seed.h ****     /** 
  30:../../../libDaisy/src/daisy_seed.h ****     Initializes the Daisy Seed and the following peripherals:
  31:../../../libDaisy/src/daisy_seed.h ****     SDRAM, QSPI, 24-bit 48kHz Audio via AK4556, Internal USB,
  32:../../../libDaisy/src/daisy_seed.h ****     as well as the built-in LED and Testpoint.
  33:../../../libDaisy/src/daisy_seed.h **** 
  34:../../../libDaisy/src/daisy_seed.h ****     ADCs, DACs, and other special peripherals (such as I2C, SPI, etc.)
  35:../../../libDaisy/src/daisy_seed.h ****     can be initialized using their specific initializers within libdaisy
  36:../../../libDaisy/src/daisy_seed.h ****     for a specific application.
  37:../../../libDaisy/src/daisy_seed.h ****     */
  38:../../../libDaisy/src/daisy_seed.h ****     void Init(bool boost = false);
  39:../../../libDaisy/src/daisy_seed.h **** 
  40:../../../libDaisy/src/daisy_seed.h ****     /** 
  41:../../../libDaisy/src/daisy_seed.h ****     Deinitializes all peripherals automatically handled by `Init`.
  42:../../../libDaisy/src/daisy_seed.h ****     */
  43:../../../libDaisy/src/daisy_seed.h ****     void DeInit();
  44:../../../libDaisy/src/daisy_seed.h **** 
  45:../../../libDaisy/src/daisy_seed.h ****     /** 
  46:../../../libDaisy/src/daisy_seed.h ****     Wait some ms before going on.
  47:../../../libDaisy/src/daisy_seed.h ****     \param del Delay time in ms.
  48:../../../libDaisy/src/daisy_seed.h ****     */
  49:../../../libDaisy/src/daisy_seed.h ****     void DelayMs(size_t del);
  50:../../../libDaisy/src/daisy_seed.h **** 
  51:../../../libDaisy/src/daisy_seed.h ****     /** 
  52:../../../libDaisy/src/daisy_seed.h ****     Returns the gpio_pin corresponding to the index 0-31.
  53:../../../libDaisy/src/daisy_seed.h ****     For the given GPIO on the Daisy Seed (labeled 1-32 in docs).
  54:../../../libDaisy/src/daisy_seed.h ****     */
  55:../../../libDaisy/src/daisy_seed.h ****     static dsy_gpio_pin GetPin(uint8_t pin_idx);
  56:../../../libDaisy/src/daisy_seed.h **** 
  57:../../../libDaisy/src/daisy_seed.h ****     /** Begins the audio for the seeds builtin audio.
  58:../../../libDaisy/src/daisy_seed.h ****     the specified callback will get called whenever
  59:../../../libDaisy/src/daisy_seed.h ****     new data is ready to be prepared.
  60:../../../libDaisy/src/daisy_seed.h ****     */
  61:../../../libDaisy/src/daisy_seed.h ****     void StartAudio(AudioHandle::InterleavingAudioCallback cb);
  62:../../../libDaisy/src/daisy_seed.h **** 
  63:../../../libDaisy/src/daisy_seed.h ****     /** Begins the audio for the seeds builtin audio.
  64:../../../libDaisy/src/daisy_seed.h ****     the specified callback will get called whenever
  65:../../../libDaisy/src/daisy_seed.h ****     new data is ready to be prepared.
  66:../../../libDaisy/src/daisy_seed.h ****     This will use the newer non-interleaved callback.
  67:../../../libDaisy/src/daisy_seed.h ****     */
  68:../../../libDaisy/src/daisy_seed.h ****     void StartAudio(AudioHandle::AudioCallback cb);
  69:../../../libDaisy/src/daisy_seed.h **** 
  70:../../../libDaisy/src/daisy_seed.h ****     /** Changes to a new interleaved callback
  71:../../../libDaisy/src/daisy_seed.h ****      */
  72:../../../libDaisy/src/daisy_seed.h ****     void ChangeAudioCallback(AudioHandle::InterleavingAudioCallback cb);
  73:../../../libDaisy/src/daisy_seed.h **** 
  74:../../../libDaisy/src/daisy_seed.h ****     /** Changes to a new multichannel callback
  75:../../../libDaisy/src/daisy_seed.h ****      */
  76:../../../libDaisy/src/daisy_seed.h ****     void ChangeAudioCallback(AudioHandle::AudioCallback cb);
  77:../../../libDaisy/src/daisy_seed.h **** 
ARM GAS  C:\Users\Miguel\AppData\Local\Temp\ccIs1zJP.s 			page 17


  78:../../../libDaisy/src/daisy_seed.h ****     /** Stops the audio if it is running. */
  79:../../../libDaisy/src/daisy_seed.h ****     void StopAudio();
  80:../../../libDaisy/src/daisy_seed.h **** 
  81:../../../libDaisy/src/daisy_seed.h ****     /** Updates the Audio Sample Rate, and reinitializes.
  82:../../../libDaisy/src/daisy_seed.h ****      ** Audio must be stopped for this to work.
  83:../../../libDaisy/src/daisy_seed.h ****      */
  84:../../../libDaisy/src/daisy_seed.h ****     void SetAudioSampleRate(SaiHandle::Config::SampleRate samplerate);
  85:../../../libDaisy/src/daisy_seed.h **** 
  86:../../../libDaisy/src/daisy_seed.h ****     /** Returns the audio sample rate in Hz as a floating point number.
  87:../../../libDaisy/src/daisy_seed.h ****      */
  88:../../../libDaisy/src/daisy_seed.h ****     float AudioSampleRate();
  89:../../../libDaisy/src/daisy_seed.h **** 
  90:../../../libDaisy/src/daisy_seed.h ****     /** Sets the number of samples processed per channel by the audio callback.
  91:../../../libDaisy/src/daisy_seed.h ****      */
  92:../../../libDaisy/src/daisy_seed.h ****     void SetAudioBlockSize(size_t blocksize);
  93:../../../libDaisy/src/daisy_seed.h **** 
  94:../../../libDaisy/src/daisy_seed.h ****     /** Returns the number of samples per channel in a block of audio. */
  95:../../../libDaisy/src/daisy_seed.h ****     size_t AudioBlockSize();
  96:../../../libDaisy/src/daisy_seed.h **** 
  97:../../../libDaisy/src/daisy_seed.h ****     /** Returns the rate in Hz that the Audio callback is called */
  98:../../../libDaisy/src/daisy_seed.h ****     float AudioCallbackRate() const;
  99:../../../libDaisy/src/daisy_seed.h **** 
 100:../../../libDaisy/src/daisy_seed.h ****     /** Returns the SAI Handle for the Daisy Seed 
 101:../../../libDaisy/src/daisy_seed.h ****      *  This can be useful when adding a secondary codec,
 102:../../../libDaisy/src/daisy_seed.h ****      *  the result of this function can be passed to the audio reinit 
 103:../../../libDaisy/src/daisy_seed.h ****      *  with an SAI2 configuration
 104:../../../libDaisy/src/daisy_seed.h ****      */
 105:../../../libDaisy/src/daisy_seed.h ****     const SaiHandle& AudioSaiHandle() const;
 106:../../../libDaisy/src/daisy_seed.h **** 
 107:../../../libDaisy/src/daisy_seed.h ****     /** Sets the state of the built in LED
 108:../../../libDaisy/src/daisy_seed.h ****      */
 109:../../../libDaisy/src/daisy_seed.h ****     void SetLed(bool state);
 110:../../../libDaisy/src/daisy_seed.h **** 
 111:../../../libDaisy/src/daisy_seed.h ****     /** Sets the state of the test point near pin 10
 112:../../../libDaisy/src/daisy_seed.h ****      */
 113:../../../libDaisy/src/daisy_seed.h ****     void SetTestPoint(bool state);
 114:../../../libDaisy/src/daisy_seed.h **** 
 115:../../../libDaisy/src/daisy_seed.h ****     /** Print formatted debug log message
 116:../../../libDaisy/src/daisy_seed.h ****      */
 117:../../../libDaisy/src/daisy_seed.h ****     template <typename... VA>
 118:../../../libDaisy/src/daisy_seed.h ****     static void Print(const char* format, VA... va)
 119:../../../libDaisy/src/daisy_seed.h ****     {
 120:../../../libDaisy/src/daisy_seed.h ****         Log::Print(format, va...);
 121:../../../libDaisy/src/daisy_seed.h ****     }
 122:../../../libDaisy/src/daisy_seed.h **** 
 123:../../../libDaisy/src/daisy_seed.h ****     /** Print formatted debug log message with automatic line termination
 124:../../../libDaisy/src/daisy_seed.h ****     */
 125:../../../libDaisy/src/daisy_seed.h ****     template <typename... VA>
 126:../../../libDaisy/src/daisy_seed.h ****     static void PrintLine(const char* format, VA... va)
 127:../../../libDaisy/src/daisy_seed.h ****     {
 128:../../../libDaisy/src/daisy_seed.h ****         Log::PrintLine(format, va...);
 129:../../../libDaisy/src/daisy_seed.h ****     }
 130:../../../libDaisy/src/daisy_seed.h **** 
 131:../../../libDaisy/src/daisy_seed.h ****     /** Start the logging session. Optionally wait for terminal connection before proceeding.
 132:../../../libDaisy/src/daisy_seed.h ****     */
 133:../../../libDaisy/src/daisy_seed.h ****     static void StartLog(bool wait_for_pc = false)
 339              		.loc 3 133 17 view .LVU70
ARM GAS  C:\Users\Miguel\AppData\Local\Temp\ccIs1zJP.s 			page 18


 340              	.LBB164:
 134:../../../libDaisy/src/daisy_seed.h ****     {
 135:../../../libDaisy/src/daisy_seed.h ****         Log::StartLog(wait_for_pc);
 341              		.loc 3 135 9 view .LVU71
 342              		.loc 3 135 22 is_stmt 0 view .LVU72
 343 002a 0020     		movs	r0, #0
 344 002c FFF7FEFF 		bl	_ZN5daisy6LoggerILNS_17LoggerDestinationE1EE8StartLogEb
 345              	.LVL18:
 346              		.loc 3 135 22 view .LVU73
 347              	.LBE164:
 348              	.LBE163:
  40:atone.cpp     ****     hw.SetAudioBlockSize(4);
 349              		.loc 8 40 5 is_stmt 1 view .LVU74
 350              		.loc 8 40 25 is_stmt 0 view .LVU75
 351 0030 0421     		movs	r1, #4
 352 0032 3F48     		ldr	r0, .L23+8
 353 0034 FFF7FEFF 		bl	_ZN5daisy9DaisySeed17SetAudioBlockSizeEj
 354              	.LVL19:
  41:atone.cpp     ****     sample_rate = hw.AudioSampleRate();
 355              		.loc 8 41 5 is_stmt 1 view .LVU76
 356              		.loc 8 41 37 is_stmt 0 view .LVU77
 357 0038 3D48     		ldr	r0, .L23+8
 358 003a FFF7FEFF 		bl	_ZN5daisy9DaisySeed15AudioSampleRateEv
 359              	.LVL20:
 360 003e F0EE408A 		vmov.f32	s17, s0
 361              	.LVL21:
  42:atone.cpp     **** 
  43:atone.cpp     ****     // initialize Tone object
  44:atone.cpp     ****     flt.Init(sample_rate);
 362              		.loc 8 44 5 is_stmt 1 view .LVU78
 363              		.loc 8 44 13 is_stmt 0 view .LVU79
 364 0042 3E48     		ldr	r0, .L23+20
 365 0044 FFF7FEFF 		bl	_ZN7daisysp5ATone4InitEf
 366              	.LVL22:
  45:atone.cpp     **** 
  46:atone.cpp     ****     // set parameters for sine oscillator object
  47:atone.cpp     ****     lfo.Init(sample_rate);
 367              		.loc 8 47 5 is_stmt 1 view .LVU80
 368              	.LBB165:
 369              	.LBI151:
  50:../../../DaisySP/Source/Synthesis/oscillator.h ****     {
 370              		.loc 1 50 10 view .LVU81
 371              	.LBB154:
  52:../../../DaisySP/Source/Synthesis/oscillator.h ****         sr_recip_  = 1.0f / sample_rate;
 372              		.loc 1 52 9 view .LVU82
  54:../../../DaisySP/Source/Synthesis/oscillator.h ****         amp_       = 0.5f;
 373              		.loc 1 54 20 is_stmt 0 view .LVU83
 374 0048 9FED3D8A 		vldr.32	s16, .L23+24
  53:../../../DaisySP/Source/Synthesis/oscillator.h ****         freq_      = 100.0f;
 375              		.loc 1 53 27 view .LVU84
 376 004c 89EEA89A 		vdiv.f32	s18, s19, s17
  58:../../../DaisySP/Source/Synthesis/oscillator.h ****         waveform_  = WAVE_SIN;
 377              		.loc 1 58 34 view .LVU85
 378 0050 2046     		mov	r0, r4
  52:../../../DaisySP/Source/Synthesis/oscillator.h ****         sr_recip_  = 1.0f / sample_rate;
 379              		.loc 1 52 20 view .LVU86
 380 0052 C4ED048A 		vstr.32	s17, [r4, #16]
ARM GAS  C:\Users\Miguel\AppData\Local\Temp\ccIs1zJP.s 			page 19


  53:../../../DaisySP/Source/Synthesis/oscillator.h ****         freq_      = 100.0f;
 381              		.loc 1 53 9 is_stmt 1 view .LVU87
  54:../../../DaisySP/Source/Synthesis/oscillator.h ****         amp_       = 0.5f;
 382              		.loc 1 54 20 is_stmt 0 view .LVU88
 383 0056 84ED028A 		vstr.32	s16, [r4, #8]
  55:../../../DaisySP/Source/Synthesis/oscillator.h ****         pw_        = 0.5f;
 384              		.loc 1 55 20 view .LVU89
 385 005a 6660     		str	r6, [r4, #4]	@ float
  56:../../../DaisySP/Source/Synthesis/oscillator.h ****         phase_     = 0.0f;
 386              		.loc 1 56 20 view .LVU90
 387 005c E660     		str	r6, [r4, #12]	@ float
  58:../../../DaisySP/Source/Synthesis/oscillator.h ****         waveform_  = WAVE_SIN;
 388              		.loc 1 58 34 view .LVU91
 389 005e B0EE480A 		vmov.f32	s0, s16
  57:../../../DaisySP/Source/Synthesis/oscillator.h ****         phase_inc_ = CalcPhaseInc(freq_);
 390              		.loc 1 57 20 view .LVU92
 391 0062 C4F81880 		str	r8, [r4, #24]	@ float
  53:../../../DaisySP/Source/Synthesis/oscillator.h ****         freq_      = 100.0f;
 392              		.loc 1 53 20 view .LVU93
 393 0066 84ED059A 		vstr.32	s18, [r4, #20]
  54:../../../DaisySP/Source/Synthesis/oscillator.h ****         amp_       = 0.5f;
 394              		.loc 1 54 9 is_stmt 1 view .LVU94
  55:../../../DaisySP/Source/Synthesis/oscillator.h ****         pw_        = 0.5f;
 395              		.loc 1 55 9 view .LVU95
  56:../../../DaisySP/Source/Synthesis/oscillator.h ****         phase_     = 0.0f;
 396              		.loc 1 56 9 view .LVU96
  57:../../../DaisySP/Source/Synthesis/oscillator.h ****         phase_inc_ = CalcPhaseInc(freq_);
 397              		.loc 1 57 9 view .LVU97
  58:../../../DaisySP/Source/Synthesis/oscillator.h ****         waveform_  = WAVE_SIN;
 398              		.loc 1 58 9 view .LVU98
  58:../../../DaisySP/Source/Synthesis/oscillator.h ****         waveform_  = WAVE_SIN;
 399              		.loc 1 58 34 is_stmt 0 view .LVU99
 400 006a FFF7FEFF 		bl	_ZN7daisysp10Oscillator12CalcPhaseIncEf
 401              	.LVL23:
 402 006e F0EE407A 		vmov.f32	s15, s0
 403              	.LBE154:
 404              	.LBE165:
 405              	.LBB166:
 406              	.LBB167:
  62:../../../DaisySP/Source/Synthesis/oscillator.h ****     }
  63:../../../DaisySP/Source/Synthesis/oscillator.h **** 
  64:../../../DaisySP/Source/Synthesis/oscillator.h **** 
  65:../../../DaisySP/Source/Synthesis/oscillator.h ****     /** Changes the frequency of the Oscillator, and recalculates phase increment.
  66:../../../DaisySP/Source/Synthesis/oscillator.h ****     */
  67:../../../DaisySP/Source/Synthesis/oscillator.h ****     inline void SetFreq(const float f)
  68:../../../DaisySP/Source/Synthesis/oscillator.h ****     {
  69:../../../DaisySP/Source/Synthesis/oscillator.h ****         freq_      = f;
  70:../../../DaisySP/Source/Synthesis/oscillator.h ****         phase_inc_ = CalcPhaseInc(f);
  71:../../../DaisySP/Source/Synthesis/oscillator.h ****     }
  72:../../../DaisySP/Source/Synthesis/oscillator.h **** 
  73:../../../DaisySP/Source/Synthesis/oscillator.h **** 
  74:../../../DaisySP/Source/Synthesis/oscillator.h ****     /** Sets the amplitude of the waveform.
  75:../../../DaisySP/Source/Synthesis/oscillator.h ****     */
  76:../../../DaisySP/Source/Synthesis/oscillator.h ****     inline void SetAmp(const float a) { amp_ = a; }
  77:../../../DaisySP/Source/Synthesis/oscillator.h ****     /** Sets the waveform to be synthesized by the Process() function.
  78:../../../DaisySP/Source/Synthesis/oscillator.h ****     */
  79:../../../DaisySP/Source/Synthesis/oscillator.h ****     inline void SetWaveform(const uint8_t wf)
ARM GAS  C:\Users\Miguel\AppData\Local\Temp\ccIs1zJP.s 			page 20


  80:../../../DaisySP/Source/Synthesis/oscillator.h ****     {
  81:../../../DaisySP/Source/Synthesis/oscillator.h ****         waveform_ = wf < WAVE_LAST ? wf : WAVE_SIN;
 407              		.loc 1 81 19 view .LVU100
 408 0072 0123     		movs	r3, #1
 409              	.LBE167:
 410              	.LBE166:
 411              	.LBB170:
 412              	.LBB171:
  69:../../../DaisySP/Source/Synthesis/oscillator.h ****         phase_inc_ = CalcPhaseInc(f);
 413              		.loc 1 69 20 view .LVU101
 414 0074 9FED330A 		vldr.32	s0, .L23+28
  70:../../../DaisySP/Source/Synthesis/oscillator.h ****     }
 415              		.loc 1 70 34 view .LVU102
 416 0078 2046     		mov	r0, r4
 417              	.LBE171:
 418              	.LBE170:
 419              	.LBB175:
 420              	.LBB155:
  61:../../../DaisySP/Source/Synthesis/oscillator.h ****     }
 421              		.loc 1 61 20 view .LVU103
 422 007a 2785     		strh	r7, [r4, #40]	@ movhi
 423              	.LBE155:
 424              	.LBE175:
 425              	.LBB176:
 426              	.LBB168:
 427              		.loc 1 81 19 view .LVU104
 428 007c 2370     		strb	r3, [r4]
 429              	.LBE168:
 430              	.LBE176:
 431              	.LBB177:
 432              	.LBB156:
  58:../../../DaisySP/Source/Synthesis/oscillator.h ****         waveform_  = WAVE_SIN;
 433              		.loc 1 58 20 view .LVU105
 434 007e C4ED077A 		vstr.32	s15, [r4, #28]
  59:../../../DaisySP/Source/Synthesis/oscillator.h ****         eoc_       = true;
 435              		.loc 1 59 9 is_stmt 1 view .LVU106
  60:../../../DaisySP/Source/Synthesis/oscillator.h ****         eor_       = true;
 436              		.loc 1 60 9 view .LVU107
  61:../../../DaisySP/Source/Synthesis/oscillator.h ****     }
 437              		.loc 1 61 9 view .LVU108
 438              	.LVL24:
  61:../../../DaisySP/Source/Synthesis/oscillator.h ****     }
 439              		.loc 1 61 9 is_stmt 0 view .LVU109
 440              	.LBE156:
 441              	.LBE177:
  48:atone.cpp     ****     lfo.SetWaveform(Oscillator::WAVE_TRI);
 442              		.loc 8 48 5 is_stmt 1 view .LVU110
 443              	.LBB178:
 444              	.LBI166:
  79:../../../DaisySP/Source/Synthesis/oscillator.h ****     {
 445              		.loc 1 79 17 view .LVU111
 446              	.LBB169:
 447              		.loc 1 81 9 view .LVU112
 448              		.loc 1 81 9 is_stmt 0 view .LVU113
 449              	.LBE169:
 450              	.LBE178:
  49:atone.cpp     ****     lfo.SetAmp(1);
ARM GAS  C:\Users\Miguel\AppData\Local\Temp\ccIs1zJP.s 			page 21


 451              		.loc 8 49 5 is_stmt 1 view .LVU114
 452              	.LBB179:
 453              	.LBI179:
  76:../../../DaisySP/Source/Synthesis/oscillator.h ****     /** Sets the waveform to be synthesized by the Process() function.
 454              		.loc 1 76 17 view .LVU115
 455              	.LBB180:
  76:../../../DaisySP/Source/Synthesis/oscillator.h ****     /** Sets the waveform to be synthesized by the Process() function.
 456              		.loc 1 76 41 view .LVU116
  76:../../../DaisySP/Source/Synthesis/oscillator.h ****     /** Sets the waveform to be synthesized by the Process() function.
 457              		.loc 1 76 41 is_stmt 0 view .LVU117
 458              	.LBE180:
 459              	.LBE179:
  50:atone.cpp     ****     lfo.SetFreq(.4);
 460              		.loc 8 50 5 is_stmt 1 view .LVU118
 461              	.LBB182:
 462              	.LBI170:
  67:../../../DaisySP/Source/Synthesis/oscillator.h ****     {
 463              		.loc 1 67 17 view .LVU119
 464              	.LBB172:
  69:../../../DaisySP/Source/Synthesis/oscillator.h ****         phase_inc_ = CalcPhaseInc(f);
 465              		.loc 1 69 9 view .LVU120
  70:../../../DaisySP/Source/Synthesis/oscillator.h ****     }
 466              		.loc 1 70 9 view .LVU121
 467              	.LBE172:
 468              	.LBE182:
 469              	.LBB183:
 470              	.LBB181:
  76:../../../DaisySP/Source/Synthesis/oscillator.h ****     /** Sets the waveform to be synthesized by the Process() function.
 471              		.loc 1 76 46 is_stmt 0 view .LVU122
 472 0082 C4ED019A 		vstr.32	s19, [r4, #4]
 473              	.LBE181:
 474              	.LBE183:
 475              	.LBB184:
 476              	.LBB173:
  69:../../../DaisySP/Source/Synthesis/oscillator.h ****         phase_inc_ = CalcPhaseInc(f);
 477              		.loc 1 69 20 view .LVU123
 478 0086 84ED020A 		vstr.32	s0, [r4, #8]
  70:../../../DaisySP/Source/Synthesis/oscillator.h ****     }
 479              		.loc 1 70 34 view .LVU124
 480 008a FFF7FEFF 		bl	_ZN7daisysp10Oscillator12CalcPhaseIncEf
 481              	.LVL25:
 482 008e F0EE407A 		vmov.f32	s15, s0
 483              	.LBE173:
 484              	.LBE184:
 485              	.LBB185:
 486              	.LBB159:
  58:../../../DaisySP/Source/Synthesis/oscillator.h ****         waveform_  = WAVE_SIN;
 487              		.loc 1 58 34 view .LVU125
 488 0092 2846     		mov	r0, r5
 489 0094 B0EE480A 		vmov.f32	s0, s16
  52:../../../DaisySP/Source/Synthesis/oscillator.h ****         sr_recip_  = 1.0f / sample_rate;
 490              		.loc 1 52 20 view .LVU126
 491 0098 C5ED048A 		vstr.32	s17, [r5, #16]
  57:../../../DaisySP/Source/Synthesis/oscillator.h ****         phase_inc_ = CalcPhaseInc(freq_);
 492              		.loc 1 57 20 view .LVU127
 493 009c C5F81880 		str	r8, [r5, #24]	@ float
 494              	.LBE159:
ARM GAS  C:\Users\Miguel\AppData\Local\Temp\ccIs1zJP.s 			page 22


 495              	.LBE185:
 496              	.LBB186:
 497              	.LBB174:
  70:../../../DaisySP/Source/Synthesis/oscillator.h ****     }
 498              		.loc 1 70 20 view .LVU128
 499 00a0 C4ED077A 		vstr.32	s15, [r4, #28]
 500              	.LVL26:
  70:../../../DaisySP/Source/Synthesis/oscillator.h ****     }
 501              		.loc 1 70 20 view .LVU129
 502              	.LBE174:
 503              	.LBE186:
  51:atone.cpp     **** 
  52:atone.cpp     ****     // set parameters for sine oscillator object
  53:atone.cpp     ****     osc.Init(sample_rate);
 504              		.loc 8 53 5 is_stmt 1 view .LVU130
 505              	.LBB187:
 506              	.LBI157:
  50:../../../DaisySP/Source/Synthesis/oscillator.h ****     {
 507              		.loc 1 50 10 view .LVU131
 508              	.LBB160:
  52:../../../DaisySP/Source/Synthesis/oscillator.h ****         sr_recip_  = 1.0f / sample_rate;
 509              		.loc 1 52 9 view .LVU132
  53:../../../DaisySP/Source/Synthesis/oscillator.h ****         freq_      = 100.0f;
 510              		.loc 1 53 9 view .LVU133
  53:../../../DaisySP/Source/Synthesis/oscillator.h ****         freq_      = 100.0f;
 511              		.loc 1 53 20 is_stmt 0 view .LVU134
 512 00a4 85ED059A 		vstr.32	s18, [r5, #20]
  54:../../../DaisySP/Source/Synthesis/oscillator.h ****         amp_       = 0.5f;
 513              		.loc 1 54 9 is_stmt 1 view .LVU135
  54:../../../DaisySP/Source/Synthesis/oscillator.h ****         amp_       = 0.5f;
 514              		.loc 1 54 20 is_stmt 0 view .LVU136
 515 00a8 85ED028A 		vstr.32	s16, [r5, #8]
  55:../../../DaisySP/Source/Synthesis/oscillator.h ****         pw_        = 0.5f;
 516              		.loc 1 55 9 is_stmt 1 view .LVU137
  55:../../../DaisySP/Source/Synthesis/oscillator.h ****         pw_        = 0.5f;
 517              		.loc 1 55 20 is_stmt 0 view .LVU138
 518 00ac 6E60     		str	r6, [r5, #4]	@ float
  56:../../../DaisySP/Source/Synthesis/oscillator.h ****         phase_     = 0.0f;
 519              		.loc 1 56 9 is_stmt 1 view .LVU139
  56:../../../DaisySP/Source/Synthesis/oscillator.h ****         phase_     = 0.0f;
 520              		.loc 1 56 20 is_stmt 0 view .LVU140
 521 00ae EE60     		str	r6, [r5, #12]	@ float
  57:../../../DaisySP/Source/Synthesis/oscillator.h ****         phase_inc_ = CalcPhaseInc(freq_);
 522              		.loc 1 57 9 is_stmt 1 view .LVU141
  58:../../../DaisySP/Source/Synthesis/oscillator.h ****         waveform_  = WAVE_SIN;
 523              		.loc 1 58 9 view .LVU142
  58:../../../DaisySP/Source/Synthesis/oscillator.h ****         waveform_  = WAVE_SIN;
 524              		.loc 1 58 34 is_stmt 0 view .LVU143
 525 00b0 FFF7FEFF 		bl	_ZN7daisysp10Oscillator12CalcPhaseIncEf
 526              	.LVL27:
 527 00b4 F0EE407A 		vmov.f32	s15, s0
 528              	.LBE160:
 529              	.LBE187:
 530              	.LBB188:
 531              	.LBB189:
 532              		.loc 1 81 19 view .LVU144
 533 00b8 0623     		movs	r3, #6
ARM GAS  C:\Users\Miguel\AppData\Local\Temp\ccIs1zJP.s 			page 23


 534              	.LBE189:
 535              	.LBE188:
 536              	.LBB192:
 537              	.LBB193:
  70:../../../DaisySP/Source/Synthesis/oscillator.h ****     }
 538              		.loc 1 70 34 view .LVU145
 539 00ba 2846     		mov	r0, r5
 540 00bc B0EE480A 		vmov.f32	s0, s16
 541              	.LBE193:
 542              	.LBE192:
 543              	.LBB196:
 544              	.LBB190:
 545              		.loc 1 81 19 view .LVU146
 546 00c0 2B70     		strb	r3, [r5]
 547              	.LBE190:
 548              	.LBE196:
 549              	.LBB197:
 550              	.LBB161:
  61:../../../DaisySP/Source/Synthesis/oscillator.h ****     }
 551              		.loc 1 61 20 view .LVU147
 552 00c2 2F85     		strh	r7, [r5, #40]	@ movhi
  58:../../../DaisySP/Source/Synthesis/oscillator.h ****         waveform_  = WAVE_SIN;
 553              		.loc 1 58 20 view .LVU148
 554 00c4 C5ED077A 		vstr.32	s15, [r5, #28]
  59:../../../DaisySP/Source/Synthesis/oscillator.h ****         eoc_       = true;
 555              		.loc 1 59 9 is_stmt 1 view .LVU149
  60:../../../DaisySP/Source/Synthesis/oscillator.h ****         eor_       = true;
 556              		.loc 1 60 9 view .LVU150
  61:../../../DaisySP/Source/Synthesis/oscillator.h ****     }
 557              		.loc 1 61 9 view .LVU151
 558              	.LVL28:
  61:../../../DaisySP/Source/Synthesis/oscillator.h ****     }
 559              		.loc 1 61 9 is_stmt 0 view .LVU152
 560              	.LBE161:
 561              	.LBE197:
  54:atone.cpp     ****     osc.SetWaveform(Oscillator::WAVE_POLYBLEP_SAW);
 562              		.loc 8 54 5 is_stmt 1 view .LVU153
 563              	.LBB198:
 564              	.LBI188:
  79:../../../DaisySP/Source/Synthesis/oscillator.h ****     {
 565              		.loc 1 79 17 view .LVU154
 566              	.LBB191:
 567              		.loc 1 81 9 view .LVU155
 568              		.loc 1 81 9 is_stmt 0 view .LVU156
 569              	.LBE191:
 570              	.LBE198:
  55:atone.cpp     ****     osc.SetFreq(100);
 571              		.loc 8 55 5 is_stmt 1 view .LVU157
 572              	.LBB199:
 573              	.LBI192:
  67:../../../DaisySP/Source/Synthesis/oscillator.h ****     {
 574              		.loc 1 67 17 view .LVU158
 575              	.LBB194:
  69:../../../DaisySP/Source/Synthesis/oscillator.h ****         phase_inc_ = CalcPhaseInc(f);
 576              		.loc 1 69 9 view .LVU159
  69:../../../DaisySP/Source/Synthesis/oscillator.h ****         phase_inc_ = CalcPhaseInc(f);
 577              		.loc 1 69 20 is_stmt 0 view .LVU160
ARM GAS  C:\Users\Miguel\AppData\Local\Temp\ccIs1zJP.s 			page 24


 578 00c8 85ED028A 		vstr.32	s16, [r5, #8]
  70:../../../DaisySP/Source/Synthesis/oscillator.h ****     }
 579              		.loc 1 70 9 is_stmt 1 view .LVU161
  70:../../../DaisySP/Source/Synthesis/oscillator.h ****     }
 580              		.loc 1 70 34 is_stmt 0 view .LVU162
 581 00cc FFF7FEFF 		bl	_ZN7daisysp10Oscillator12CalcPhaseIncEf
 582              	.LVL29:
 583              	.LBE194:
 584              	.LBE199:
 585              	.LBB200:
 586              	.LBB201:
  76:../../../DaisySP/Source/Synthesis/oscillator.h ****     /** Sets the waveform to be synthesized by the Process() function.
 587              		.loc 1 76 46 view .LVU163
 588 00d0 4FF07A53 		mov	r3, #1048576000
 589              	.LBE201:
 590              	.LBE200:
  56:atone.cpp     ****     osc.SetAmp(0.25);
  57:atone.cpp     **** 
  58:atone.cpp     **** 
  59:atone.cpp     ****     // start callback
  60:atone.cpp     ****     hw.StartAudio(AudioCallback);
 591              		.loc 8 60 18 view .LVU164
 592 00d4 1C49     		ldr	r1, .L23+32
 593 00d6 1648     		ldr	r0, .L23+8
 594 00d8 184C     		ldr	r4, .L23+20
 595              	.LBB203:
 596              	.LBB195:
  70:../../../DaisySP/Source/Synthesis/oscillator.h ****     }
 597              		.loc 1 70 20 view .LVU165
 598 00da 85ED070A 		vstr.32	s0, [r5, #28]
 599              	.LVL30:
  70:../../../DaisySP/Source/Synthesis/oscillator.h ****     }
 600              		.loc 1 70 20 view .LVU166
 601              	.LBE195:
 602              	.LBE203:
  56:atone.cpp     ****     osc.SetAmp(0.25);
 603              		.loc 8 56 5 is_stmt 1 view .LVU167
 604              	.LBB204:
 605              	.LBI200:
  76:../../../DaisySP/Source/Synthesis/oscillator.h ****     /** Sets the waveform to be synthesized by the Process() function.
 606              		.loc 1 76 17 view .LVU168
 607              	.LBB202:
  76:../../../DaisySP/Source/Synthesis/oscillator.h ****     /** Sets the waveform to be synthesized by the Process() function.
 608              		.loc 1 76 41 view .LVU169
  76:../../../DaisySP/Source/Synthesis/oscillator.h ****     /** Sets the waveform to be synthesized by the Process() function.
 609              		.loc 1 76 46 is_stmt 0 view .LVU170
 610 00de 6B60     		str	r3, [r5, #4]	@ float
 611              	.LVL31:
  76:../../../DaisySP/Source/Synthesis/oscillator.h ****     /** Sets the waveform to be synthesized by the Process() function.
 612              		.loc 1 76 46 view .LVU171
 613              	.LBE202:
 614              	.LBE204:
 615              		.loc 8 60 5 is_stmt 1 view .LVU172
 616              		.loc 8 60 18 is_stmt 0 view .LVU173
 617 00e0 FFF7FEFF 		bl	_ZN5daisy9DaisySeed10StartAudioEPFvPKfPfjE
 618              	.LVL32:
 619              	.L20:
ARM GAS  C:\Users\Miguel\AppData\Local\Temp\ccIs1zJP.s 			page 25


  61:atone.cpp     **** 
  62:atone.cpp     **** 
  63:atone.cpp     ****     while(1) 
 620              		.loc 8 63 5 is_stmt 1 discriminator 5 view .LVU174
  64:atone.cpp     ****     {
  65:atone.cpp     ****         hw.PrintLine("My Float: " FLT_FMT(6), FLT_VAR(6, flt.GetFreq()));
 621              		.loc 8 65 9 discriminator 5 view .LVU175
 622              	.LBB205:
 623              	.LBI205:
  42:../../../DaisySP/DaisySP-LGPL/Source/Filters/atone.h ****     }
  43:../../../DaisySP/DaisySP-LGPL/Source/Filters/atone.h **** 
  44:../../../DaisySP/DaisySP-LGPL/Source/Filters/atone.h ****     /** get current frequency
  45:../../../DaisySP/DaisySP-LGPL/Source/Filters/atone.h ****         \return the current value for the cutoff frequency or half-way point of the filter.
  46:../../../DaisySP/DaisySP-LGPL/Source/Filters/atone.h ****     */
  47:../../../DaisySP/DaisySP-LGPL/Source/Filters/atone.h ****     inline float GetFreq() { return freq_; }
 624              		.loc 2 47 18 discriminator 5 view .LVU176
 625              	.LBB206:
 626              		.loc 2 47 30 discriminator 5 view .LVU177
 627              		.loc 2 47 37 is_stmt 0 discriminator 5 view .LVU178
 628 00e4 D4ED037A 		vldr.32	s15, [r4, #12]
 629              	.LVL33:
 630              		.loc 2 47 37 discriminator 5 view .LVU179
 631              	.LBE206:
 632              	.LBE205:
 633              		.loc 2 47 30 is_stmt 1 discriminator 5 view .LVU180
 634              	.LBB207:
 635              	.LBI207:
 636              		.file 9 "c:\\program files\\daisytoolchain\\arm-none-eabi\\include\\c++\\10.2.1\\bits\\std_abs.h"
   1:c:\program files\daisytoolchain\arm-none-eabi\include\c++\10.2.1\bits\std_abs.h **** // -*- C++ -*- C library enhancements header.
   2:c:\program files\daisytoolchain\arm-none-eabi\include\c++\10.2.1\bits\std_abs.h **** 
   3:c:\program files\daisytoolchain\arm-none-eabi\include\c++\10.2.1\bits\std_abs.h **** // Copyright (C) 2016-2020 Free Software Foundation, Inc.
   4:c:\program files\daisytoolchain\arm-none-eabi\include\c++\10.2.1\bits\std_abs.h **** //
   5:c:\program files\daisytoolchain\arm-none-eabi\include\c++\10.2.1\bits\std_abs.h **** // This file is part of the GNU ISO C++ Library.  This library is free
   6:c:\program files\daisytoolchain\arm-none-eabi\include\c++\10.2.1\bits\std_abs.h **** // software; you can redistribute it and/or modify it under the
   7:c:\program files\daisytoolchain\arm-none-eabi\include\c++\10.2.1\bits\std_abs.h **** // terms of the GNU General Public License as published by the
   8:c:\program files\daisytoolchain\arm-none-eabi\include\c++\10.2.1\bits\std_abs.h **** // Free Software Foundation; either version 3, or (at your option)
   9:c:\program files\daisytoolchain\arm-none-eabi\include\c++\10.2.1\bits\std_abs.h **** // any later version.
  10:c:\program files\daisytoolchain\arm-none-eabi\include\c++\10.2.1\bits\std_abs.h **** 
  11:c:\program files\daisytoolchain\arm-none-eabi\include\c++\10.2.1\bits\std_abs.h **** // This library is distributed in the hope that it will be useful,
  12:c:\program files\daisytoolchain\arm-none-eabi\include\c++\10.2.1\bits\std_abs.h **** // but WITHOUT ANY WARRANTY; without even the implied warranty of
  13:c:\program files\daisytoolchain\arm-none-eabi\include\c++\10.2.1\bits\std_abs.h **** // MERCHANTABILITY or FITNESS FOR A PARTICULAR PURPOSE.  See the
  14:c:\program files\daisytoolchain\arm-none-eabi\include\c++\10.2.1\bits\std_abs.h **** // GNU General Public License for more details.
  15:c:\program files\daisytoolchain\arm-none-eabi\include\c++\10.2.1\bits\std_abs.h **** 
  16:c:\program files\daisytoolchain\arm-none-eabi\include\c++\10.2.1\bits\std_abs.h **** // Under Section 7 of GPL version 3, you are granted additional
  17:c:\program files\daisytoolchain\arm-none-eabi\include\c++\10.2.1\bits\std_abs.h **** // permissions described in the GCC Runtime Library Exception, version
  18:c:\program files\daisytoolchain\arm-none-eabi\include\c++\10.2.1\bits\std_abs.h **** // 3.1, as published by the Free Software Foundation.
  19:c:\program files\daisytoolchain\arm-none-eabi\include\c++\10.2.1\bits\std_abs.h **** 
  20:c:\program files\daisytoolchain\arm-none-eabi\include\c++\10.2.1\bits\std_abs.h **** // You should have received a copy of the GNU General Public License and
  21:c:\program files\daisytoolchain\arm-none-eabi\include\c++\10.2.1\bits\std_abs.h **** // a copy of the GCC Runtime Library Exception along with this program;
  22:c:\program files\daisytoolchain\arm-none-eabi\include\c++\10.2.1\bits\std_abs.h **** // see the files COPYING3 and COPYING.RUNTIME respectively.  If not, see
  23:c:\program files\daisytoolchain\arm-none-eabi\include\c++\10.2.1\bits\std_abs.h **** // <http://www.gnu.org/licenses/>.
  24:c:\program files\daisytoolchain\arm-none-eabi\include\c++\10.2.1\bits\std_abs.h **** 
  25:c:\program files\daisytoolchain\arm-none-eabi\include\c++\10.2.1\bits\std_abs.h **** /** @file include/bits/std_abs.h
  26:c:\program files\daisytoolchain\arm-none-eabi\include\c++\10.2.1\bits\std_abs.h ****  *  This is an internal header file, included by other library headers.
  27:c:\program files\daisytoolchain\arm-none-eabi\include\c++\10.2.1\bits\std_abs.h ****  *  Do not attempt to use it directly. @headername{cmath, cstdlib}
  28:c:\program files\daisytoolchain\arm-none-eabi\include\c++\10.2.1\bits\std_abs.h ****  */
  29:c:\program files\daisytoolchain\arm-none-eabi\include\c++\10.2.1\bits\std_abs.h **** 
ARM GAS  C:\Users\Miguel\AppData\Local\Temp\ccIs1zJP.s 			page 26


  30:c:\program files\daisytoolchain\arm-none-eabi\include\c++\10.2.1\bits\std_abs.h **** #ifndef _GLIBCXX_BITS_STD_ABS_H
  31:c:\program files\daisytoolchain\arm-none-eabi\include\c++\10.2.1\bits\std_abs.h **** #define _GLIBCXX_BITS_STD_ABS_H
  32:c:\program files\daisytoolchain\arm-none-eabi\include\c++\10.2.1\bits\std_abs.h **** 
  33:c:\program files\daisytoolchain\arm-none-eabi\include\c++\10.2.1\bits\std_abs.h **** #pragma GCC system_header
  34:c:\program files\daisytoolchain\arm-none-eabi\include\c++\10.2.1\bits\std_abs.h **** 
  35:c:\program files\daisytoolchain\arm-none-eabi\include\c++\10.2.1\bits\std_abs.h **** #include <bits/c++config.h>
  36:c:\program files\daisytoolchain\arm-none-eabi\include\c++\10.2.1\bits\std_abs.h **** 
  37:c:\program files\daisytoolchain\arm-none-eabi\include\c++\10.2.1\bits\std_abs.h **** #define _GLIBCXX_INCLUDE_NEXT_C_HEADERS
  38:c:\program files\daisytoolchain\arm-none-eabi\include\c++\10.2.1\bits\std_abs.h **** #include_next <stdlib.h>
  39:c:\program files\daisytoolchain\arm-none-eabi\include\c++\10.2.1\bits\std_abs.h **** #ifdef __CORRECT_ISO_CPP_MATH_H_PROTO
  40:c:\program files\daisytoolchain\arm-none-eabi\include\c++\10.2.1\bits\std_abs.h **** # include_next <math.h>
  41:c:\program files\daisytoolchain\arm-none-eabi\include\c++\10.2.1\bits\std_abs.h **** #endif
  42:c:\program files\daisytoolchain\arm-none-eabi\include\c++\10.2.1\bits\std_abs.h **** #undef _GLIBCXX_INCLUDE_NEXT_C_HEADERS
  43:c:\program files\daisytoolchain\arm-none-eabi\include\c++\10.2.1\bits\std_abs.h **** 
  44:c:\program files\daisytoolchain\arm-none-eabi\include\c++\10.2.1\bits\std_abs.h **** #undef abs
  45:c:\program files\daisytoolchain\arm-none-eabi\include\c++\10.2.1\bits\std_abs.h **** 
  46:c:\program files\daisytoolchain\arm-none-eabi\include\c++\10.2.1\bits\std_abs.h **** extern "C++"
  47:c:\program files\daisytoolchain\arm-none-eabi\include\c++\10.2.1\bits\std_abs.h **** {
  48:c:\program files\daisytoolchain\arm-none-eabi\include\c++\10.2.1\bits\std_abs.h **** namespace std _GLIBCXX_VISIBILITY(default)
  49:c:\program files\daisytoolchain\arm-none-eabi\include\c++\10.2.1\bits\std_abs.h **** {
  50:c:\program files\daisytoolchain\arm-none-eabi\include\c++\10.2.1\bits\std_abs.h **** _GLIBCXX_BEGIN_NAMESPACE_VERSION
  51:c:\program files\daisytoolchain\arm-none-eabi\include\c++\10.2.1\bits\std_abs.h **** 
  52:c:\program files\daisytoolchain\arm-none-eabi\include\c++\10.2.1\bits\std_abs.h ****   using ::abs;
  53:c:\program files\daisytoolchain\arm-none-eabi\include\c++\10.2.1\bits\std_abs.h **** 
  54:c:\program files\daisytoolchain\arm-none-eabi\include\c++\10.2.1\bits\std_abs.h **** #ifndef __CORRECT_ISO_CPP_STDLIB_H_PROTO
  55:c:\program files\daisytoolchain\arm-none-eabi\include\c++\10.2.1\bits\std_abs.h ****   inline long
  56:c:\program files\daisytoolchain\arm-none-eabi\include\c++\10.2.1\bits\std_abs.h ****   abs(long __i) { return __builtin_labs(__i); }
  57:c:\program files\daisytoolchain\arm-none-eabi\include\c++\10.2.1\bits\std_abs.h **** #endif
  58:c:\program files\daisytoolchain\arm-none-eabi\include\c++\10.2.1\bits\std_abs.h **** 
  59:c:\program files\daisytoolchain\arm-none-eabi\include\c++\10.2.1\bits\std_abs.h **** #ifdef _GLIBCXX_USE_LONG_LONG
  60:c:\program files\daisytoolchain\arm-none-eabi\include\c++\10.2.1\bits\std_abs.h ****   inline long long
  61:c:\program files\daisytoolchain\arm-none-eabi\include\c++\10.2.1\bits\std_abs.h ****   abs(long long __x) { return __builtin_llabs (__x); }
  62:c:\program files\daisytoolchain\arm-none-eabi\include\c++\10.2.1\bits\std_abs.h **** #endif
  63:c:\program files\daisytoolchain\arm-none-eabi\include\c++\10.2.1\bits\std_abs.h **** 
  64:c:\program files\daisytoolchain\arm-none-eabi\include\c++\10.2.1\bits\std_abs.h **** // _GLIBCXX_RESOLVE_LIB_DEFECTS
  65:c:\program files\daisytoolchain\arm-none-eabi\include\c++\10.2.1\bits\std_abs.h **** // 2192. Validity and return type of std::abs(0u) is unclear
  66:c:\program files\daisytoolchain\arm-none-eabi\include\c++\10.2.1\bits\std_abs.h **** // 2294. <cstdlib> should declare abs(double)
  67:c:\program files\daisytoolchain\arm-none-eabi\include\c++\10.2.1\bits\std_abs.h **** // 2735. std::abs(short), std::abs(signed char) and others should return int
  68:c:\program files\daisytoolchain\arm-none-eabi\include\c++\10.2.1\bits\std_abs.h **** 
  69:c:\program files\daisytoolchain\arm-none-eabi\include\c++\10.2.1\bits\std_abs.h **** #ifndef __CORRECT_ISO_CPP_MATH_H_PROTO
  70:c:\program files\daisytoolchain\arm-none-eabi\include\c++\10.2.1\bits\std_abs.h ****   inline _GLIBCXX_CONSTEXPR double
  71:c:\program files\daisytoolchain\arm-none-eabi\include\c++\10.2.1\bits\std_abs.h ****   abs(double __x)
  72:c:\program files\daisytoolchain\arm-none-eabi\include\c++\10.2.1\bits\std_abs.h ****   { return __builtin_fabs(__x); }
  73:c:\program files\daisytoolchain\arm-none-eabi\include\c++\10.2.1\bits\std_abs.h **** 
  74:c:\program files\daisytoolchain\arm-none-eabi\include\c++\10.2.1\bits\std_abs.h ****   inline _GLIBCXX_CONSTEXPR float
  75:c:\program files\daisytoolchain\arm-none-eabi\include\c++\10.2.1\bits\std_abs.h ****   abs(float __x)
 637              		.loc 9 75 3 discriminator 5 view .LVU181
 638              	.LBB208:
  76:c:\program files\daisytoolchain\arm-none-eabi\include\c++\10.2.1\bits\std_abs.h ****   { return __builtin_fabsf(__x); }
 639              		.loc 9 76 5 discriminator 5 view .LVU182
 640              	.LBE208:
 641              	.LBE207:
 642              	.LBB210:
 643              	.LBB211:
 128:../../../libDaisy/src/daisy_seed.h ****     }
 644              		.loc 3 128 23 is_stmt 0 discriminator 5 view .LVU183
 645 00e8 1848     		ldr	r0, .L23+36
ARM GAS  C:\Users\Miguel\AppData\Local\Temp\ccIs1zJP.s 			page 27


 646              	.LBE211:
 647              	.LBE210:
 648              	.LBB214:
 649              	.LBB209:
 650              		.loc 9 76 31 discriminator 5 view .LVU184
 651 00ea B0EEE77A 		vabs.f32	s14, s15
 652              	.LVL34:
 653              		.loc 9 76 31 discriminator 5 view .LVU185
 654              	.LBE209:
 655              	.LBE214:
 656              		.loc 8 65 21 discriminator 5 view .LVU186
 657 00ee F5EEC07A 		vcmpe.f32	s15, #0
 658 00f2 FDEEC77A 		vcvt.s32.f32	s15, s14
 659              	.LVL35:
 660              		.loc 2 47 30 is_stmt 1 discriminator 5 view .LVU187
 661              		.loc 9 76 5 discriminator 5 view .LVU188
 662              		.loc 2 47 30 discriminator 5 view .LVU189
 663              		.loc 9 76 5 discriminator 5 view .LVU190
 664              	.LBB215:
 665              	.LBI210:
 126:../../../libDaisy/src/daisy_seed.h ****     {
 666              		.loc 3 126 17 discriminator 5 view .LVU191
 667              	.LBE215:
 668              		.loc 8 65 21 is_stmt 0 discriminator 5 view .LVU192
 669 00f6 F1EE10FA 		vmrs	APSR_nzcv, FPSCR
 670              		.loc 8 65 47 discriminator 5 view .LVU193
 671 00fa F8EEE75A 		vcvt.f32.s32	s11, s15
 672              	.LVL36:
 673              	.LBB216:
 674              	.LBB212:
 128:../../../libDaisy/src/daisy_seed.h ****     }
 675              		.loc 3 128 23 discriminator 5 view .LVU194
 676 00fe 17EE902A 		vmov	r2, s15	@ int
 677 0102 4CBF     		ite	mi
 678 0104 2D21     		movmi	r1, #45
 679 0106 2021     		movpl	r1, #32
 680              	.LBE212:
 681              	.LBE216:
 682              		.loc 8 65 47 discriminator 5 view .LVU195
 683 0108 37EE657A 		vsub.f32	s14, s14, s11
 684              	.LVL37:
 685              		.loc 8 65 47 discriminator 5 view .LVU196
 686 010c 9FED066B 		vldr.64	d6, .L23
 687 0110 B7EEC77A 		vcvt.f64.f32	d7, s14
 688 0114 27EE067B 		vmul.f64	d7, d7, d6
 689              	.LBB217:
 690              	.LBB213:
 128:../../../libDaisy/src/daisy_seed.h ****     }
 691              		.loc 3 128 23 discriminator 5 view .LVU197
 692 0118 FDEEC77B 		vcvt.s32.f64	s15, d7
 693              	.LVL38:
 128:../../../libDaisy/src/daisy_seed.h ****     }
 694              		.loc 3 128 23 discriminator 5 view .LVU198
 695 011c 17EE903A 		vmov	r3, s15	@ int
 696 0120 FFF7FEFF 		bl	_ZN5daisy6LoggerILNS_17LoggerDestinationE1EE9PrintLineEPKcz
 697              	.LVL39:
 129:../../../libDaisy/src/daisy_seed.h **** 
ARM GAS  C:\Users\Miguel\AppData\Local\Temp\ccIs1zJP.s 			page 28


 698              		.loc 3 129 5 discriminator 5 view .LVU199
 699 0124 DEE7     		b	.L20
 700              	.L24:
 701 0126 00BF     		.align	3
 702              	.L23:
 703 0128 00000000 		.word	0
 704 012c 80842E41 		.word	1093567616
 705 0130 00000000 		.word	.LANCHOR3
 706 0134 00000000 		.word	.LANCHOR0
 707 0138 00000000 		.word	.LANCHOR1
 708 013c 00000000 		.word	.LANCHOR2
 709 0140 0000C842 		.word	1120403456
 710 0144 CDCCCC3E 		.word	1053609165
 711 0148 00000000 		.word	_ZL13AudioCallbackPKfPfj
 712 014c 00000000 		.word	.LC0
 713              	.LBE213:
 714              	.LBE217:
 715              		.cfi_endproc
 716              	.LFE4847:
 718              		.section	.text.startup._GLOBAL__sub_I_main,"ax",%progbits
 719              		.align	1
 720              		.p2align 2,,3
 721              		.syntax unified
 722              		.thumb
 723              		.thumb_func
 724              		.fpu fpv5-d16
 726              	_GLOBAL__sub_I_main:
 727              	.LFB5412:
  66:atone.cpp     ****     }
  67:atone.cpp     **** }
 728              		.loc 8 67 1 is_stmt 1 view -0
 729              		.cfi_startproc
 730              		@ args = 0, pretend = 0, frame = 0
 731              		@ frame_needed = 0, uses_anonymous_args = 0
 732              	.LBB245:
 733              	.LBI245:
 734              		.loc 8 67 1 view .LVU201
 735              	.LVL40:
 736              	.LBB246:
 737              	.LBB247:
 738              	.LBI247:
  21:../../../libDaisy/src/daisy_seed.h ****     ~DaisySeed() {}
 739              		.loc 3 21 5 view .LVU202
 740              	.LBB248:
 741              	.LBB249:
 742              	.LBI249:
 743              		.file 10 "../../../libDaisy/src/per/qspi.h"
   1:../../../libDaisy/src/per/qspi.h **** #ifndef DSY_QSPI
   2:../../../libDaisy/src/per/qspi.h **** #define DSY_QSPI /**< Macro */
   3:../../../libDaisy/src/per/qspi.h **** 
   4:../../../libDaisy/src/per/qspi.h **** #ifndef UNIT_TEST // for unit tests, a dummy implementation
   5:../../../libDaisy/src/per/qspi.h **** 
   6:../../../libDaisy/src/per/qspi.h **** #include <cstdint>
   7:../../../libDaisy/src/per/qspi.h **** #include "daisy_core.h" // Added for dsy_gpio_pin typedef
   8:../../../libDaisy/src/per/qspi.h **** 
   9:../../../libDaisy/src/per/qspi.h **** #define DSY_QSPI_TEXT       \
  10:../../../libDaisy/src/per/qspi.h ****     __attribute__((section( \
ARM GAS  C:\Users\Miguel\AppData\Local\Temp\ccIs1zJP.s 			page 29


  11:../../../libDaisy/src/per/qspi.h ****         ".qspiflash_text"))) /**< used for reading memory in memory_mapped mode. */
  12:../../../libDaisy/src/per/qspi.h **** #define DSY_QSPI_DATA       \
  13:../../../libDaisy/src/per/qspi.h ****     __attribute__((section( \
  14:../../../libDaisy/src/per/qspi.h ****         ".qspiflash_data"))) /**< used for reading memory in memory_mapped mode. */
  15:../../../libDaisy/src/per/qspi.h **** #define DSY_QSPI_BSS        \
  16:../../../libDaisy/src/per/qspi.h ****     __attribute__((section( \
  17:../../../libDaisy/src/per/qspi.h ****         ".qspiflash_bss"))) /**< used for reading memory in memory_mapped mode. */
  18:../../../libDaisy/src/per/qspi.h **** 
  19:../../../libDaisy/src/per/qspi.h **** namespace daisy
  20:../../../libDaisy/src/per/qspi.h **** {
  21:../../../libDaisy/src/per/qspi.h **** /** @addtogroup serial
  22:../../../libDaisy/src/per/qspi.h **** @{
  23:../../../libDaisy/src/per/qspi.h **** */
  24:../../../libDaisy/src/per/qspi.h **** 
  25:../../../libDaisy/src/per/qspi.h **** /** 
  26:../../../libDaisy/src/per/qspi.h ****  Driver for QSPI peripheral to interface with external flash memory. \n 
  27:../../../libDaisy/src/per/qspi.h ****     Currently supported QSPI Devices: \n 
  28:../../../libDaisy/src/per/qspi.h ****     * IS25LP080D
  29:../../../libDaisy/src/per/qspi.h **** */
  30:../../../libDaisy/src/per/qspi.h **** class QSPIHandle
  31:../../../libDaisy/src/per/qspi.h **** {
  32:../../../libDaisy/src/per/qspi.h ****   public:
  33:../../../libDaisy/src/per/qspi.h ****     enum Result
  34:../../../libDaisy/src/per/qspi.h ****     {
  35:../../../libDaisy/src/per/qspi.h ****         OK = 0,
  36:../../../libDaisy/src/per/qspi.h ****         ERR
  37:../../../libDaisy/src/per/qspi.h ****     };
  38:../../../libDaisy/src/per/qspi.h **** 
  39:../../../libDaisy/src/per/qspi.h ****     /** Indicates the current status of the module. 
  40:../../../libDaisy/src/per/qspi.h ****          *  Warnings are indicated by a leading W.
  41:../../../libDaisy/src/per/qspi.h ****          *  Errors are indicated by a leading E and cause an immediate exit.
  42:../../../libDaisy/src/per/qspi.h ****          * 
  43:../../../libDaisy/src/per/qspi.h ****          *  \param GOOD - No errors have been reported.
  44:../../../libDaisy/src/per/qspi.h ****          *  \param E_HAL_ERROR - HAL code did not return HAL_OK.
  45:../../../libDaisy/src/per/qspi.h ****          *  \param E_SWITCHING_MODES - An error was encountered while switching QSPI peripheral mod
  46:../../../libDaisy/src/per/qspi.h ****          *  \param E_INVALID_MODE - QSPI should not be written to while the program is executing fr
  47:../../../libDaisy/src/per/qspi.h ****          */
  48:../../../libDaisy/src/per/qspi.h ****     enum Status
  49:../../../libDaisy/src/per/qspi.h ****     {
  50:../../../libDaisy/src/per/qspi.h ****         GOOD = 0,
  51:../../../libDaisy/src/per/qspi.h ****         E_HAL_ERROR,
  52:../../../libDaisy/src/per/qspi.h ****         E_SWITCHING_MODES,
  53:../../../libDaisy/src/per/qspi.h ****         E_INVALID_MODE,
  54:../../../libDaisy/src/per/qspi.h ****     };
  55:../../../libDaisy/src/per/qspi.h **** 
  56:../../../libDaisy/src/per/qspi.h ****     /** Configuration structure for interfacing with QSPI Driver */
  57:../../../libDaisy/src/per/qspi.h ****     struct Config
  58:../../../libDaisy/src/per/qspi.h ****     {
  59:../../../libDaisy/src/per/qspi.h ****         /** Flash Devices supported. (Both of these are more-or-less the same, just different sizes
  60:../../../libDaisy/src/per/qspi.h ****         enum Device
  61:../../../libDaisy/src/per/qspi.h ****         {
  62:../../../libDaisy/src/per/qspi.h ****             IS25LP080D,  /**< & */
  63:../../../libDaisy/src/per/qspi.h ****             IS25LP064A,  /**< & */
  64:../../../libDaisy/src/per/qspi.h ****             DEVICE_LAST, /**< & */
  65:../../../libDaisy/src/per/qspi.h ****         };
  66:../../../libDaisy/src/per/qspi.h **** 
  67:../../../libDaisy/src/per/qspi.h ****         /** 
ARM GAS  C:\Users\Miguel\AppData\Local\Temp\ccIs1zJP.s 			page 30


  68:../../../libDaisy/src/per/qspi.h ****         Modes of operation.
  69:../../../libDaisy/src/per/qspi.h ****         Memory Mapped mode: QSPI configured so that the QSPI can be
  70:../../../libDaisy/src/per/qspi.h ****         read from starting address 0x90000000. Writing is not
  71:../../../libDaisy/src/per/qspi.h ****         possible in this mode. \n 
  72:../../../libDaisy/src/per/qspi.h ****         Indirect Polling mode: Device driver enabled. 
  73:../../../libDaisy/src/per/qspi.h ****         */
  74:../../../libDaisy/src/per/qspi.h ****         enum Mode
  75:../../../libDaisy/src/per/qspi.h ****         {
  76:../../../libDaisy/src/per/qspi.h ****             MEMORY_MAPPED,    /**< & */
  77:../../../libDaisy/src/per/qspi.h ****             INDIRECT_POLLING, /**< & */
  78:../../../libDaisy/src/per/qspi.h ****             MODE_LAST,
  79:../../../libDaisy/src/per/qspi.h ****         };
  80:../../../libDaisy/src/per/qspi.h **** 
  81:../../../libDaisy/src/per/qspi.h ****         //SCK,  CE# (active low)
  82:../../../libDaisy/src/per/qspi.h ****         struct
  83:../../../libDaisy/src/per/qspi.h ****         {
  84:../../../libDaisy/src/per/qspi.h ****             dsy_gpio_pin io0; /**< & */
  85:../../../libDaisy/src/per/qspi.h ****             dsy_gpio_pin io1; /**< & */
  86:../../../libDaisy/src/per/qspi.h ****             dsy_gpio_pin io2; /**< & */
  87:../../../libDaisy/src/per/qspi.h ****             dsy_gpio_pin io3; /**< & */
  88:../../../libDaisy/src/per/qspi.h ****             dsy_gpio_pin clk; /**< & */
  89:../../../libDaisy/src/per/qspi.h ****             dsy_gpio_pin ncs; /**< & */
  90:../../../libDaisy/src/per/qspi.h ****         } pin_config;
  91:../../../libDaisy/src/per/qspi.h **** 
  92:../../../libDaisy/src/per/qspi.h ****         Device device;
  93:../../../libDaisy/src/per/qspi.h ****         Mode   mode;
  94:../../../libDaisy/src/per/qspi.h ****     };
  95:../../../libDaisy/src/per/qspi.h **** 
  96:../../../libDaisy/src/per/qspi.h ****     /** 
  97:../../../libDaisy/src/per/qspi.h ****         Initializes QSPI peripheral, and Resets, and prepares memory for access.
  98:../../../libDaisy/src/per/qspi.h ****         \param config should be populated with the mode, device and pin_config before calling this 
  99:../../../libDaisy/src/per/qspi.h ****         \return Result::OK or Result::ERR
 100:../../../libDaisy/src/per/qspi.h ****         */
 101:../../../libDaisy/src/per/qspi.h ****     Result Init(const Config& config);
 102:../../../libDaisy/src/per/qspi.h **** 
 103:../../../libDaisy/src/per/qspi.h ****     /** Returns the current config. */
 104:../../../libDaisy/src/per/qspi.h ****     const Config& GetConfig() const;
 105:../../../libDaisy/src/per/qspi.h **** 
 106:../../../libDaisy/src/per/qspi.h ****     // Couldn't this just be called before anything else in init? That
 107:../../../libDaisy/src/per/qspi.h ****     // would make manually calling it unnecessary.
 108:../../../libDaisy/src/per/qspi.h ****     /** 
 109:../../../libDaisy/src/per/qspi.h ****         Deinitializes the peripheral
 110:../../../libDaisy/src/per/qspi.h ****         This should be called before reinitializing QSPI in a different mode.
 111:../../../libDaisy/src/per/qspi.h ****         \return Result::OK or Result::ERR
 112:../../../libDaisy/src/per/qspi.h ****         */
 113:../../../libDaisy/src/per/qspi.h ****     Result DeInit();
 114:../../../libDaisy/src/per/qspi.h **** 
 115:../../../libDaisy/src/per/qspi.h ****     /** 
 116:../../../libDaisy/src/per/qspi.h ****         Writes a single page to to the specified address on the QSPI chip.
 117:../../../libDaisy/src/per/qspi.h ****         For IS25LP*, page size is 256 bytes.
 118:../../../libDaisy/src/per/qspi.h ****         \param address Address to write to
 119:../../../libDaisy/src/per/qspi.h ****         \param size Buffer size
 120:../../../libDaisy/src/per/qspi.h ****         \param buffer Buffer to write
 121:../../../libDaisy/src/per/qspi.h ****         \return Result::OK or Result::ERR
 122:../../../libDaisy/src/per/qspi.h ****         */
 123:../../../libDaisy/src/per/qspi.h ****     Result WritePage(uint32_t address, uint32_t size, uint8_t* buffer);
 124:../../../libDaisy/src/per/qspi.h **** 
ARM GAS  C:\Users\Miguel\AppData\Local\Temp\ccIs1zJP.s 			page 31


 125:../../../libDaisy/src/per/qspi.h ****     /** 
 126:../../../libDaisy/src/per/qspi.h ****         Writes data in buffer to to the QSPI. Starting at address to address+size 
 127:../../../libDaisy/src/per/qspi.h ****         \param address Address to write to
 128:../../../libDaisy/src/per/qspi.h ****         \param size Buffer size
 129:../../../libDaisy/src/per/qspi.h ****         \param buffer Buffer to write
 130:../../../libDaisy/src/per/qspi.h ****         \return Result::OK or Result::ERR
 131:../../../libDaisy/src/per/qspi.h ****         */
 132:../../../libDaisy/src/per/qspi.h ****     Result Write(uint32_t address, uint32_t size, uint8_t* buffer);
 133:../../../libDaisy/src/per/qspi.h **** 
 134:../../../libDaisy/src/per/qspi.h ****     /** 
 135:../../../libDaisy/src/per/qspi.h ****         Erases the area specified on the chip.
 136:../../../libDaisy/src/per/qspi.h ****         Erasures will happen by 4K, 32K or 64K increments.
 137:../../../libDaisy/src/per/qspi.h ****         Smallest erase possible is 4kB at a time. (on IS25LP*)
 138:../../../libDaisy/src/per/qspi.h ****         \param start_addr Address to begin erasing from
 139:../../../libDaisy/src/per/qspi.h ****         \param end_addr  Address to stop erasing at
 140:../../../libDaisy/src/per/qspi.h ****         \return Result::OK or Result::ERR
 141:../../../libDaisy/src/per/qspi.h ****         */
 142:../../../libDaisy/src/per/qspi.h ****     Result Erase(uint32_t start_addr, uint32_t end_addr);
 143:../../../libDaisy/src/per/qspi.h **** 
 144:../../../libDaisy/src/per/qspi.h ****     /**  
 145:../../../libDaisy/src/per/qspi.h ****          Erases a single sector of the chip.  
 146:../../../libDaisy/src/per/qspi.h ****         TODO: Document the size of this function. 
 147:../../../libDaisy/src/per/qspi.h ****         \param address Address of sector to erase
 148:../../../libDaisy/src/per/qspi.h ****         \return Result::OK or Result::ERR
 149:../../../libDaisy/src/per/qspi.h ****         */
 150:../../../libDaisy/src/per/qspi.h ****     Result EraseSector(uint32_t address);
 151:../../../libDaisy/src/per/qspi.h **** 
 152:../../../libDaisy/src/per/qspi.h ****     /** Returns the current class status. Useful for debugging.
 153:../../../libDaisy/src/per/qspi.h ****      *  \returns Status
 154:../../../libDaisy/src/per/qspi.h ****      */
 155:../../../libDaisy/src/per/qspi.h ****     Status GetStatus();
 156:../../../libDaisy/src/per/qspi.h **** 
 157:../../../libDaisy/src/per/qspi.h ****     /** Returns a pointer to the actual memory used 
 158:../../../libDaisy/src/per/qspi.h ****      *  The memory at this address is read-only
 159:../../../libDaisy/src/per/qspi.h ****      *  to write to it use the Write function.
 160:../../../libDaisy/src/per/qspi.h ****      * 
 161:../../../libDaisy/src/per/qspi.h ****      *  \param offset returns the pointer starting this 
 162:../../../libDaisy/src/per/qspi.h ****      *                many bytes into the memory
 163:../../../libDaisy/src/per/qspi.h ****     */
 164:../../../libDaisy/src/per/qspi.h ****     void* GetData(uint32_t offset = 0);
 165:../../../libDaisy/src/per/qspi.h **** 
 166:../../../libDaisy/src/per/qspi.h ****     QSPIHandle() : pimpl_(nullptr) {}
 744              		.loc 10 166 5 view .LVU203
 745              	.LBB250:
 746              	.LBB251:
 747              		.loc 10 166 34 is_stmt 0 view .LVU204
 748 0000 0023     		movs	r3, #0
 749 0002 0E48     		ldr	r0, .L27
 750              	.LBE251:
 751              	.LBE250:
 752              	.LBE249:
 753              	.LBE248:
 754              	.LBE247:
   8:atone.cpp     **** static ATone      flt;
 755              		.loc 8 8 19 view .LVU205
 756 0004 0E4A     		ldr	r2, .L27+4
 757 0006 0F49     		ldr	r1, .L27+8
ARM GAS  C:\Users\Miguel\AppData\Local\Temp\ccIs1zJP.s 			page 32


 758              	.LBE246:
 759              	.LBE245:
 760              		.loc 8 67 1 view .LVU206
 761 0008 10B5     		push	{r4, lr}
 762              		.cfi_def_cfa_offset 8
 763              		.cfi_offset 4, -8
 764              		.cfi_offset 14, -4
 765              	.LBB274:
 766              	.LBB272:
  10:atone.cpp     **** 
 767              		.loc 8 10 19 view .LVU207
 768 000a 0F4C     		ldr	r4, .L27+12
 769              	.LBB268:
 770              	.LBB267:
 771              	.LBB254:
 772              	.LBB253:
 773              	.LBB252:
 774              		.loc 10 166 34 view .LVU208
 775 000c 0360     		str	r3, [r0]
 776              	.LVL41:
 777              		.loc 10 166 34 view .LVU209
 778              	.LBE252:
 779              	.LBE253:
 780              	.LBE254:
 781              	.LBB255:
 782              	.LBI255:
  95:../../../libDaisy/src/hid/audio.h ****     ~AudioHandle() {}
 783              		.loc 7 95 5 is_stmt 1 view .LVU210
 784              	.LBB256:
 785              	.LBB257:
  95:../../../libDaisy/src/hid/audio.h ****     ~AudioHandle() {}
 786              		.loc 7 95 35 is_stmt 0 view .LVU211
 787 000e 4361     		str	r3, [r0, #20]
 788              	.LVL42:
  95:../../../libDaisy/src/hid/audio.h ****     ~AudioHandle() {}
 789              		.loc 7 95 35 view .LVU212
 790              	.LBE257:
 791              	.LBE256:
 792              	.LBE255:
 793              	.LBB258:
 794              	.LBI258:
 109:../../../libDaisy/src/per/adc.h ****     ~AdcHandle() {}
 795              		.loc 6 109 5 is_stmt 1 view .LVU213
 109:../../../libDaisy/src/per/adc.h ****     ~AdcHandle() {}
 796              		.loc 6 109 5 is_stmt 0 view .LVU214
 797              	.LBE258:
 798              	.LBB259:
 799              	.LBI259:
 800              		.file 11 "../../../libDaisy/src/per/dac.h"
   1:../../../libDaisy/src/per/dac.h **** #pragma once
   2:../../../libDaisy/src/per/dac.h **** #ifndef DSY_DAC_H
   3:../../../libDaisy/src/per/dac.h **** #define DSY_DAC_H
   4:../../../libDaisy/src/per/dac.h **** 
   5:../../../libDaisy/src/per/dac.h **** #include "daisy_core.h"
   6:../../../libDaisy/src/per/dac.h **** 
   7:../../../libDaisy/src/per/dac.h **** namespace daisy
   8:../../../libDaisy/src/per/dac.h **** {
ARM GAS  C:\Users\Miguel\AppData\Local\Temp\ccIs1zJP.s 			page 33


   9:../../../libDaisy/src/per/dac.h **** /** @brief DAC handle for Built-in DAC Peripheral 
  10:../../../libDaisy/src/per/dac.h ****  *  @ingroup per_analog
  11:../../../libDaisy/src/per/dac.h ****  ** 
  12:../../../libDaisy/src/per/dac.h ****  ** For now only Normal Mode is supported,
  13:../../../libDaisy/src/per/dac.h ****  ** Sample and hold mode provides reduced power consumption, but requires a bit more setup.
  14:../../../libDaisy/src/per/dac.h ****  **
  15:../../../libDaisy/src/per/dac.h ****  ** For now connecting the DAC through other internal peripherals is also not supported.
  16:../../../libDaisy/src/per/dac.h ****  **
  17:../../../libDaisy/src/per/dac.h ****  ** Since the DAC channels have dedicated pins we don't need to pass in a pin config like with
  18:../../../libDaisy/src/per/dac.h ****  ** other modules. However, it is still important to not try to use the DAC pins for anything else.
  19:../../../libDaisy/src/per/dac.h ****  ** DAC Channel 1 is on PA4, and DAC Channel 2 is on PA5
  20:../../../libDaisy/src/per/dac.h ****  ***/
  21:../../../libDaisy/src/per/dac.h **** class DacHandle
  22:../../../libDaisy/src/per/dac.h **** {
  23:../../../libDaisy/src/per/dac.h ****   public:
  24:../../../libDaisy/src/per/dac.h ****     /** Return Values for the DacHandle class */
  25:../../../libDaisy/src/per/dac.h ****     enum class Result
  26:../../../libDaisy/src/per/dac.h ****     {
  27:../../../libDaisy/src/per/dac.h ****         OK,
  28:../../../libDaisy/src/per/dac.h ****         ERR,
  29:../../../libDaisy/src/per/dac.h ****     };
  30:../../../libDaisy/src/per/dac.h **** 
  31:../../../libDaisy/src/per/dac.h ****     /** Selects which channel(s) will be configured for use. */
  32:../../../libDaisy/src/per/dac.h ****     enum class Channel
  33:../../../libDaisy/src/per/dac.h ****     {
  34:../../../libDaisy/src/per/dac.h ****         ONE,
  35:../../../libDaisy/src/per/dac.h ****         TWO,
  36:../../../libDaisy/src/per/dac.h ****         BOTH,
  37:../../../libDaisy/src/per/dac.h ****     };
  38:../../../libDaisy/src/per/dac.h **** 
  39:../../../libDaisy/src/per/dac.h ****     /** Sets the Mode for the DAC channels.
  40:../../../libDaisy/src/per/dac.h ****      **
  41:../../../libDaisy/src/per/dac.h ****      ** Polling mode uses the blocking mode to transmit a single value at a time.
  42:../../../libDaisy/src/per/dac.h ****      **
  43:../../../libDaisy/src/per/dac.h ****      ** DMA mode uses a buffer, and periodically transmits it triggering a 
  44:../../../libDaisy/src/per/dac.h ****      ** callback to fill the buffer when it is ready for more samples.
  45:../../../libDaisy/src/per/dac.h ****      ***/
  46:../../../libDaisy/src/per/dac.h ****     enum class Mode
  47:../../../libDaisy/src/per/dac.h ****     {
  48:../../../libDaisy/src/per/dac.h ****         POLLING,
  49:../../../libDaisy/src/per/dac.h ****         DMA,
  50:../../../libDaisy/src/per/dac.h ****     };
  51:../../../libDaisy/src/per/dac.h **** 
  52:../../../libDaisy/src/per/dac.h ****     /** Sets the number of bits per sample transmitted out of the DAC.
  53:../../../libDaisy/src/per/dac.h ****      ** The output range will be: 0V - VDDA
  54:../../../libDaisy/src/per/dac.h ****      ** The resolution will be roughly: bitdepth / (VDDA - 0V) 
  55:../../../libDaisy/src/per/dac.h ****      ***/
  56:../../../libDaisy/src/per/dac.h ****     enum class BitDepth
  57:../../../libDaisy/src/per/dac.h ****     {
  58:../../../libDaisy/src/per/dac.h ****         BITS_8,
  59:../../../libDaisy/src/per/dac.h ****         BITS_12
  60:../../../libDaisy/src/per/dac.h ****     };
  61:../../../libDaisy/src/per/dac.h **** 
  62:../../../libDaisy/src/per/dac.h ****     /** Sets whether the DAC output is buffered for higher drive ability. */
  63:../../../libDaisy/src/per/dac.h ****     enum class BufferState
  64:../../../libDaisy/src/per/dac.h ****     {
  65:../../../libDaisy/src/per/dac.h ****         ENABLED,
ARM GAS  C:\Users\Miguel\AppData\Local\Temp\ccIs1zJP.s 			page 34


  66:../../../libDaisy/src/per/dac.h ****         DISABLED,
  67:../../../libDaisy/src/per/dac.h ****     };
  68:../../../libDaisy/src/per/dac.h **** 
  69:../../../libDaisy/src/per/dac.h ****     /** Configuration structure for initializing the DAC structure. */
  70:../../../libDaisy/src/per/dac.h ****     struct Config
  71:../../../libDaisy/src/per/dac.h ****     {
  72:../../../libDaisy/src/per/dac.h ****         /** Target Samplerate in Hz used to configure the internal 
  73:../../../libDaisy/src/per/dac.h ****          ** timebase for DMA mode. Does nothing in POLLING mode.
  74:../../../libDaisy/src/per/dac.h ****          ** If the value is 0 at Init time this will default to 48000Hz 
  75:../../../libDaisy/src/per/dac.h ****          ** otherwise the driver will attempt meet the target.*/
  76:../../../libDaisy/src/per/dac.h ****         uint32_t target_samplerate;
  77:../../../libDaisy/src/per/dac.h **** 
  78:../../../libDaisy/src/per/dac.h ****         Channel     chn;
  79:../../../libDaisy/src/per/dac.h ****         Mode        mode;
  80:../../../libDaisy/src/per/dac.h ****         BitDepth    bitdepth;
  81:../../../libDaisy/src/per/dac.h ****         BufferState buff_state;
  82:../../../libDaisy/src/per/dac.h ****     };
  83:../../../libDaisy/src/per/dac.h **** 
  84:../../../libDaisy/src/per/dac.h ****     DacHandle() : pimpl_(nullptr) {}
 801              		.loc 11 84 5 is_stmt 1 view .LVU215
 802              	.LBB260:
 803              	.LBB261:
 804              		.loc 11 84 33 is_stmt 0 view .LVU216
 805 0010 0362     		str	r3, [r0, #32]
 806              	.LVL43:
 807              		.loc 11 84 33 view .LVU217
 808              	.LBE261:
 809              	.LBE260:
 810              	.LBE259:
 811              	.LBB262:
 812              	.LBI262:
  40:../../../libDaisy/src/hid/usb.h **** 
 813              		.loc 5 40 5 is_stmt 1 view .LVU218
  40:../../../libDaisy/src/hid/usb.h **** 
 814              		.loc 5 40 5 is_stmt 0 view .LVU219
 815              	.LBE262:
 816              	.LBB263:
 817              	.LBI263:
  96:../../../libDaisy/src/sys/system.h ****     ~System() {}
 818              		.loc 4 96 5 is_stmt 1 view .LVU220
  96:../../../libDaisy/src/sys/system.h ****     ~System() {}
 819              		.loc 4 96 5 is_stmt 0 view .LVU221
 820              	.LBE263:
 821              	.LBB264:
 822              	.LBI264:
 823              		.file 12 "../../../libDaisy/src/per/sai.h"
   1:../../../libDaisy/src/per/sai.h **** #pragma once
   2:../../../libDaisy/src/per/sai.h **** #ifndef DSY_SAI_H
   3:../../../libDaisy/src/per/sai.h **** #define DSY_SAI_H
   4:../../../libDaisy/src/per/sai.h **** 
   5:../../../libDaisy/src/per/sai.h **** #include "daisy_core.h"
   6:../../../libDaisy/src/per/sai.h **** 
   7:../../../libDaisy/src/per/sai.h **** namespace daisy
   8:../../../libDaisy/src/per/sai.h **** {
   9:../../../libDaisy/src/per/sai.h **** /** 
  10:../../../libDaisy/src/per/sai.h ****  * Support for I2S Audio Protocol with different bit-depth, samplerate options
  11:../../../libDaisy/src/per/sai.h ****  * Allows for master or slave, as well as freedom of selecting direction, 
ARM GAS  C:\Users\Miguel\AppData\Local\Temp\ccIs1zJP.s 			page 35


  12:../../../libDaisy/src/per/sai.h ****  * and other behavior for each peripheral, and block.
  13:../../../libDaisy/src/per/sai.h ****  * 
  14:../../../libDaisy/src/per/sai.h ****  * DMA Transfer commands must use buffers located within non-cached memory or use cache maintenance
  15:../../../libDaisy/src/per/sai.h ****  * To declare an unitialized global element in the DMA memory section:
  16:../../../libDaisy/src/per/sai.h ****  *    int32_t DSY_DMA_BUFFER_SECTOR my_buffer[96];
  17:../../../libDaisy/src/per/sai.h ****  *
  18:../../../libDaisy/src/per/sai.h ****  * Callback functions will be called once per half of the buffer. In the above example, 
  19:../../../libDaisy/src/per/sai.h ****  * the callback function would be called once for every 48 samples.
  20:../../../libDaisy/src/per/sai.h ****  * 
  21:../../../libDaisy/src/per/sai.h ****  * Use SAI Handle like this:
  22:../../../libDaisy/src/per/sai.h ****  * 
  23:../../../libDaisy/src/per/sai.h ****  *  SaiHandle::Config sai_config;
  24:../../../libDaisy/src/per/sai.h ****  *  sai_config.periph          = SaiHandle::Config::Peripheral::SAI_1;
  25:../../../libDaisy/src/per/sai.h ****  *  sai_config.sr              = SaiHandle::Config::SampleRate::SAI_48KHZ;
  26:../../../libDaisy/src/per/sai.h ****  *  sai_config.bit_depth       = SaiHandle::Config::BitDepth::SAI_24BIT;
  27:../../../libDaisy/src/per/sai.h ****  *  sai_config.a_sync          = SaiHandle::Config::Sync::MASTER;
  28:../../../libDaisy/src/per/sai.h ****  *  sai_config.b_sync          = SaiHandle::Config::Sync::SLAVE;
  29:../../../libDaisy/src/per/sai.h ****  *  sai_config.a_dir           = SaiHandle::Config::Direction::RECEIVE;
  30:../../../libDaisy/src/per/sai.h ****  *  sai_config.b_dir           = SaiHandle::Config::Direction::TRANSMIT;
  31:../../../libDaisy/src/per/sai.h ****  *  sai_config.pin_config.fs   = {DSY_GPIOE, 4};
  32:../../../libDaisy/src/per/sai.h ****  *  sai_config.pin_config.mclk = {DSY_GPIOE, 2};
  33:../../../libDaisy/src/per/sai.h ****  *  sai_config.pin_config.sck  = {DSY_GPIOE, 5};
  34:../../../libDaisy/src/per/sai.h ****  *  sai_config.pin_config.sa   = {DSY_GPIOE, 6};
  35:../../../libDaisy/src/per/sai.h ****  *  sai_config.pin_config.sb   = {DSY_GPIOE, 3};
  36:../../../libDaisy/src/per/sai.h ****  *  // Then Initialize
  37:../../../libDaisy/src/per/sai.h ****  *  SaiHandle sai;
  38:../../../libDaisy/src/per/sai.h ****  *  sai.Init(sai_config);
  39:../../../libDaisy/src/per/sai.h ****  *  // Now you can use it:
  40:../../../libDaisy/src/per/sai.h ****  *  sai.StartDma(. . .);
  41:../../../libDaisy/src/per/sai.h ****  */
  42:../../../libDaisy/src/per/sai.h **** class SaiHandle
  43:../../../libDaisy/src/per/sai.h **** {
  44:../../../libDaisy/src/per/sai.h ****   public:
  45:../../../libDaisy/src/per/sai.h ****     /** Contains settings for initialising an SAI Interface */
  46:../../../libDaisy/src/per/sai.h ****     struct Config
  47:../../../libDaisy/src/per/sai.h ****     {
  48:../../../libDaisy/src/per/sai.h ****         /** Specifies the internal peripheral to use (mapped to different hardware pins) */
  49:../../../libDaisy/src/per/sai.h ****         enum class Peripheral
  50:../../../libDaisy/src/per/sai.h ****         {
  51:../../../libDaisy/src/per/sai.h ****             SAI_1,
  52:../../../libDaisy/src/per/sai.h ****             SAI_2,
  53:../../../libDaisy/src/per/sai.h ****         };
  54:../../../libDaisy/src/per/sai.h **** 
  55:../../../libDaisy/src/per/sai.h ****         /** Rate at which samples will be streaming to/from the device. */
  56:../../../libDaisy/src/per/sai.h ****         enum class SampleRate
  57:../../../libDaisy/src/per/sai.h ****         {
  58:../../../libDaisy/src/per/sai.h ****             SAI_8KHZ,
  59:../../../libDaisy/src/per/sai.h ****             SAI_16KHZ,
  60:../../../libDaisy/src/per/sai.h ****             SAI_32KHZ,
  61:../../../libDaisy/src/per/sai.h ****             SAI_48KHZ,
  62:../../../libDaisy/src/per/sai.h ****             SAI_96KHZ,
  63:../../../libDaisy/src/per/sai.h ****         };
  64:../../../libDaisy/src/per/sai.h **** 
  65:../../../libDaisy/src/per/sai.h ****         /** Bit Depth that the hardware expects to be transferred to/from the device. */
  66:../../../libDaisy/src/per/sai.h ****         enum class BitDepth
  67:../../../libDaisy/src/per/sai.h ****         {
  68:../../../libDaisy/src/per/sai.h ****             SAI_16BIT,
ARM GAS  C:\Users\Miguel\AppData\Local\Temp\ccIs1zJP.s 			page 36


  69:../../../libDaisy/src/per/sai.h ****             SAI_24BIT,
  70:../../../libDaisy/src/per/sai.h ****             SAI_32BIT,
  71:../../../libDaisy/src/per/sai.h ****         };
  72:../../../libDaisy/src/per/sai.h **** 
  73:../../../libDaisy/src/per/sai.h ****         /** Specifies whether a particular block is the master or the slave 
  74:../../../libDaisy/src/per/sai.h ****          ** If both are set to slave, no MCLK signal will be used, and it is
  75:../../../libDaisy/src/per/sai.h ****          ** expected that the codec will have its own xtal.
  76:../../../libDaisy/src/per/sai.h ****          */
  77:../../../libDaisy/src/per/sai.h ****         enum class Sync
  78:../../../libDaisy/src/per/sai.h ****         {
  79:../../../libDaisy/src/per/sai.h ****             MASTER,
  80:../../../libDaisy/src/per/sai.h ****             SLAVE,
  81:../../../libDaisy/src/per/sai.h ****         };
  82:../../../libDaisy/src/per/sai.h **** 
  83:../../../libDaisy/src/per/sai.h ****         /** Specifies the direction for each peripheral block. */
  84:../../../libDaisy/src/per/sai.h ****         enum class Direction
  85:../../../libDaisy/src/per/sai.h ****         {
  86:../../../libDaisy/src/per/sai.h ****             TRANSMIT,
  87:../../../libDaisy/src/per/sai.h ****             RECEIVE,
  88:../../../libDaisy/src/per/sai.h ****         };
  89:../../../libDaisy/src/per/sai.h **** 
  90:../../../libDaisy/src/per/sai.h ****         Peripheral periph;
  91:../../../libDaisy/src/per/sai.h ****         struct
  92:../../../libDaisy/src/per/sai.h ****         {
  93:../../../libDaisy/src/per/sai.h ****             dsy_gpio_pin mclk, fs, sck, sa, sb;
  94:../../../libDaisy/src/per/sai.h ****         } pin_config;
  95:../../../libDaisy/src/per/sai.h ****         SampleRate sr;
  96:../../../libDaisy/src/per/sai.h ****         BitDepth   bit_depth;
  97:../../../libDaisy/src/per/sai.h ****         Sync       a_sync, b_sync;
  98:../../../libDaisy/src/per/sai.h ****         Direction  a_dir, b_dir;
  99:../../../libDaisy/src/per/sai.h ****     };
 100:../../../libDaisy/src/per/sai.h **** 
 101:../../../libDaisy/src/per/sai.h ****     /** Return values for SAI functions */
 102:../../../libDaisy/src/per/sai.h ****     enum class Result
 103:../../../libDaisy/src/per/sai.h ****     {
 104:../../../libDaisy/src/per/sai.h ****         OK,
 105:../../../libDaisy/src/per/sai.h ****         ERR,
 106:../../../libDaisy/src/per/sai.h ****     };
 107:../../../libDaisy/src/per/sai.h **** 
 108:../../../libDaisy/src/per/sai.h ****     SaiHandle() : pimpl_(nullptr) {}
 824              		.loc 12 108 5 is_stmt 1 view .LVU222
 825              	.LBB265:
 826              	.LBB266:
 827              		.loc 12 108 33 is_stmt 0 view .LVU223
 828 0012 C363     		str	r3, [r0, #60]
 829              	.LVL44:
 830              		.loc 12 108 33 view .LVU224
 831              	.LBE266:
 832              	.LBE265:
 833              	.LBE264:
 834              	.LBE267:
 835              	.LBE268:
   8:atone.cpp     **** static ATone      flt;
 836              		.loc 8 8 19 view .LVU225
 837 0014 FFF7FEFF 		bl	__aeabi_atexit
 838              	.LVL45:
 839              	.LBB269:
ARM GAS  C:\Users\Miguel\AppData\Local\Temp\ccIs1zJP.s 			page 37


 840              	.LBI269:
  22:../../../DaisySP/DaisySP-LGPL/Source/Filters/atone.h ****     ~ATone() {}
 841              		.loc 2 22 5 is_stmt 1 view .LVU226
  22:../../../DaisySP/DaisySP-LGPL/Source/Filters/atone.h ****     ~ATone() {}
 842              		.loc 2 22 5 is_stmt 0 view .LVU227
 843              	.LBE269:
   9:atone.cpp     **** static Oscillator osc, lfo;
 844              		.loc 8 9 19 view .LVU228
 845 0018 094A     		ldr	r2, .L27+4
 846 001a 0C49     		ldr	r1, .L27+16
 847 001c 0C48     		ldr	r0, .L27+20
 848 001e FFF7FEFF 		bl	__aeabi_atexit
 849              	.LVL46:
 850              	.LBB270:
 851              	.LBI270:
  23:../../../DaisySP/Source/Synthesis/oscillator.h ****     ~Oscillator() {}
 852              		.loc 1 23 5 is_stmt 1 view .LVU229
  23:../../../DaisySP/Source/Synthesis/oscillator.h ****     ~Oscillator() {}
 853              		.loc 1 23 5 is_stmt 0 view .LVU230
 854              	.LBE270:
  10:atone.cpp     **** 
 855              		.loc 8 10 19 view .LVU231
 856 0022 2146     		mov	r1, r4
 857 0024 064A     		ldr	r2, .L27+4
 858 0026 0B48     		ldr	r0, .L27+24
 859 0028 FFF7FEFF 		bl	__aeabi_atexit
 860              	.LVL47:
 861              	.LBB271:
 862              	.LBI271:
  23:../../../DaisySP/Source/Synthesis/oscillator.h ****     ~Oscillator() {}
 863              		.loc 1 23 5 is_stmt 1 view .LVU232
  23:../../../DaisySP/Source/Synthesis/oscillator.h ****     ~Oscillator() {}
 864              		.loc 1 23 5 is_stmt 0 view .LVU233
 865              	.LBE271:
  10:atone.cpp     **** 
 866              		.loc 8 10 24 view .LVU234
 867 002c 2146     		mov	r1, r4
 868 002e 044A     		ldr	r2, .L27+4
 869 0030 0948     		ldr	r0, .L27+28
 870              	.LBE272:
 871              	.LBE274:
 872              		.loc 8 67 1 view .LVU235
 873 0032 BDE81040 		pop	{r4, lr}
 874              		.cfi_restore 14
 875              		.cfi_restore 4
 876              		.cfi_def_cfa_offset 0
 877              	.LBB275:
 878              	.LBB273:
  10:atone.cpp     **** 
 879              		.loc 8 10 24 view .LVU236
 880 0036 FFF7FEBF 		b	__aeabi_atexit
 881              	.LVL48:
 882              	.L28:
 883 003a 00BF     		.align	2
 884              	.L27:
 885 003c 00000000 		.word	.LANCHOR3
 886 0040 00000000 		.word	__dso_handle
ARM GAS  C:\Users\Miguel\AppData\Local\Temp\ccIs1zJP.s 			page 38


 887 0044 00000000 		.word	_ZN5daisy9DaisySeedD1Ev
 888 0048 00000000 		.word	_ZN7daisysp10OscillatorD1Ev
 889 004c 00000000 		.word	_ZN7daisysp5AToneD1Ev
 890 0050 00000000 		.word	.LANCHOR2
 891 0054 00000000 		.word	.LANCHOR1
 892 0058 00000000 		.word	.LANCHOR0
 893              	.LBE273:
 894              	.LBE275:
 895              		.cfi_endproc
 896              	.LFE5412:
 898              		.section	.init_array,"aw",%init_array
 899              		.align	2
 900 0000 00000000 		.word	_GLOBAL__sub_I_main(target1)
 901              		.section	.bss._ZL2hw,"aw",%nobits
 902              		.align	2
 903              		.set	.LANCHOR3,. + 0
 906              	_ZL2hw:
 907 0000 00000000 		.space	64
 907      00000000 
 907      00000000 
 907      00000000 
 907      00000000 
 908              		.section	.bss._ZL3flt,"aw",%nobits
 909              		.align	2
 910              		.set	.LANCHOR2,. + 0
 913              	_ZL3flt:
 914 0000 00000000 		.space	24
 914      00000000 
 914      00000000 
 914      00000000 
 914      00000000 
 915              		.section	.bss._ZL3lfo,"aw",%nobits
 916              		.align	2
 917              		.set	.LANCHOR0,. + 0
 920              	_ZL3lfo:
 921 0000 00000000 		.space	44
 921      00000000 
 921      00000000 
 921      00000000 
 921      00000000 
 922              		.section	.bss._ZL3osc,"aw",%nobits
 923              		.align	2
 924              		.set	.LANCHOR1,. + 0
 927              	_ZL3osc:
 928 0000 00000000 		.space	44
 928      00000000 
 928      00000000 
 928      00000000 
 928      00000000 
 929              		.text
 930              	.Letext0:
 931              		.file 13 "c:\\program files\\daisytoolchain\\arm-none-eabi\\include\\machine\\_default_types.h"
 932              		.file 14 "c:\\program files\\daisytoolchain\\arm-none-eabi\\include\\sys\\_stdint.h"
 933              		.file 15 "c:\\program files\\daisytoolchain\\arm-none-eabi\\include\\stdint.h"
 934              		.file 16 "c:\\program files\\daisytoolchain\\lib\\gcc\\arm-none-eabi\\10.2.1\\include\\stddef.h"
 935              		.file 17 "c:\\program files\\daisytoolchain\\arm-none-eabi\\include\\c++\\10.2.1\\cmath"
 936              		.file 18 "c:\\program files\\daisytoolchain\\arm-none-eabi\\include\\c++\\10.2.1\\cstdint"
ARM GAS  C:\Users\Miguel\AppData\Local\Temp\ccIs1zJP.s 			page 39


 937              		.file 19 "c:\\program files\\daisytoolchain\\arm-none-eabi\\include\\c++\\10.2.1\\cstdlib"
 938              		.file 20 "c:\\program files\\daisytoolchain\\arm-none-eabi\\include\\c++\\10.2.1\\type_traits"
 939              		.file 21 "c:\\program files\\daisytoolchain\\arm-none-eabi\\include\\c++\\10.2.1\\debug\\debug.h"
 940              		.file 22 "c:\\program files\\daisytoolchain\\arm-none-eabi\\include\\c++\\10.2.1\\cwchar"
 941              		.file 23 "c:\\program files\\daisytoolchain\\arm-none-eabi\\include\\c++\\10.2.1\\bits\\stl_pair.h
 942              		.file 24 "c:\\program files\\daisytoolchain\\arm-none-eabi\\include\\c++\\10.2.1\\bits\\exception_
 943              		.file 25 "c:\\program files\\daisytoolchain\\arm-none-eabi\\include\\c++\\10.2.1\\arm-none-eabi\\t
 944              		.file 26 "c:\\program files\\daisytoolchain\\arm-none-eabi\\include\\c++\\10.2.1\\clocale"
 945              		.file 27 "c:\\program files\\daisytoolchain\\arm-none-eabi\\include\\c++\\10.2.1\\cstdio"
 946              		.file 28 "c:\\program files\\daisytoolchain\\arm-none-eabi\\include\\c++\\10.2.1\\bits\\basic_stri
 947              		.file 29 "c:\\program files\\daisytoolchain\\arm-none-eabi\\include\\c++\\10.2.1\\bits\\charconv.h
 948              		.file 30 "c:\\program files\\daisytoolchain\\arm-none-eabi\\include\\c++\\10.2.1\\bits\\algorithmf
 949              		.file 31 "c:\\program files\\daisytoolchain\\arm-none-eabi\\include\\c++\\10.2.1\\cstring"
 950              		.file 32 "c:\\program files\\daisytoolchain\\arm-none-eabi\\include\\c++\\10.2.1\\cstdarg"
 951              		.file 33 "c:\\program files\\daisytoolchain\\arm-none-eabi\\include\\c++\\10.2.1\\bits\\predefined
 952              		.file 34 "c:\\program files\\daisytoolchain\\arm-none-eabi\\include\\sys\\_types.h"
 953              		.file 35 "c:\\program files\\daisytoolchain\\arm-none-eabi\\include\\sys\\reent.h"
 954              		.file 36 "c:\\program files\\daisytoolchain\\arm-none-eabi\\include\\sys\\lock.h"
 955              		.file 37 "c:\\program files\\daisytoolchain\\arm-none-eabi\\include\\math.h"
 956              		.file 38 "c:\\program files\\daisytoolchain\\arm-none-eabi\\include\\stdlib.h"
 957              		.file 39 "c:\\program files\\daisytoolchain\\arm-none-eabi\\include\\c++\\10.2.1\\math.h"
 958              		.file 40 "../../../DaisySP/Source/Control/adenv.h"
 959              		.file 41 "../../../DaisySP/Source/Utility/dsp.h"
 960              		.file 42 "c:\\program files\\daisytoolchain\\lib\\gcc\\arm-none-eabi\\10.2.1\\include\\stdarg.h"
 961              		.file 43 "c:\\program files\\daisytoolchain\\arm-none-eabi\\include\\wchar.h"
 962              		.file 44 "c:\\program files\\daisytoolchain\\arm-none-eabi\\include\\locale.h"
 963              		.file 45 "c:\\program files\\daisytoolchain\\arm-none-eabi\\include\\stdio.h"
 964              		.file 46 "c:\\program files\\daisytoolchain\\arm-none-eabi\\include\\c++\\10.2.1\\stdlib.h"
 965              		.file 47 "c:\\program files\\daisytoolchain\\arm-none-eabi\\include\\string.h"
 966              		.file 48 "../../../libDaisy/src/daisy_core.h"
 967              		.file 49 "../../../libDaisy/src/per/tim.h"
 968              		.file 50 "../../../libDaisy/src/hid/logger_impl.h"
 969              		.file 51 "../../../libDaisy/src/util/wav_format.h"
 970              		.file 52 "../../../libDaisy/src/dev/max11300.h"
 971              		.file 53 "../../../libDaisy/src/hid/logger.h"
 972              		.file 54 "../../../libDaisy/src/per/gpio.h"
 973              		.file 55 "../../../libDaisy/src/dev/sdram.h"
 974              		.file 56 "<built-in>"
 975              		.file 57 "../../../libDaisy/src/dev/sr_595.h"
ARM GAS  C:\Users\Miguel\AppData\Local\Temp\ccIs1zJP.s 			page 40

