ARM GAS  C:\Users\Miguel\AppData\Local\Temp\ccTW1OPO.s 			page 1


   1              		.cpu cortex-m7
   2              		.eabi_attribute 28, 1
   3              		.eabi_attribute 20, 1
   4              		.eabi_attribute 21, 1
   5              		.eabi_attribute 23, 3
   6              		.eabi_attribute 24, 1
   7              		.eabi_attribute 25, 1
   8              		.eabi_attribute 26, 1
   9              		.eabi_attribute 30, 2
  10              		.eabi_attribute 34, 1
  11              		.eabi_attribute 18, 4
  12              		.file	"oscillator.cpp"
  13              		.text
  14              	.Ltext0:
  15              		.cfi_sections	.debug_frame
  16              		.section	.text._ZN7daisysp4AdsrD2Ev,"axG",%progbits,_ZN7daisysp4AdsrD5Ev,comdat
  17              		.align	1
  18              		.p2align 2,,3
  19              		.weak	_ZN7daisysp4AdsrD2Ev
  20              		.arch armv7e-m
  21              		.syntax unified
  22              		.thumb
  23              		.thumb_func
  24              		.fpu fpv5-d16
  26              	_ZN7daisysp4AdsrD2Ev:
  27              	.LVL0:
  28              	.LFB562:
  29              		.file 1 "../../../DaisySP/Source/Control/adsr.h"
   1:../../../DaisySP/Source/Control/adsr.h **** /*
   2:../../../DaisySP/Source/Control/adsr.h **** Copyright (c) 2020 Electrosmith, Corp, Paul Batchelor
   3:../../../DaisySP/Source/Control/adsr.h **** 
   4:../../../DaisySP/Source/Control/adsr.h **** Use of this source code is governed by an MIT-style
   5:../../../DaisySP/Source/Control/adsr.h **** license that can be found in the LICENSE file or at
   6:../../../DaisySP/Source/Control/adsr.h **** https://opensource.org/licenses/MIT.
   7:../../../DaisySP/Source/Control/adsr.h **** */
   8:../../../DaisySP/Source/Control/adsr.h **** 
   9:../../../DaisySP/Source/Control/adsr.h **** #pragma once
  10:../../../DaisySP/Source/Control/adsr.h **** #ifndef DSY_ADSR_H
  11:../../../DaisySP/Source/Control/adsr.h **** #define DSY_ADSR_H
  12:../../../DaisySP/Source/Control/adsr.h **** 
  13:../../../DaisySP/Source/Control/adsr.h **** #include <stdint.h>
  14:../../../DaisySP/Source/Control/adsr.h **** #ifdef __cplusplus
  15:../../../DaisySP/Source/Control/adsr.h **** 
  16:../../../DaisySP/Source/Control/adsr.h **** namespace daisysp
  17:../../../DaisySP/Source/Control/adsr.h **** {
  18:../../../DaisySP/Source/Control/adsr.h **** /** Distinct stages that the phase of the envelope can be located in.
  19:../../../DaisySP/Source/Control/adsr.h **** - IDLE   = located at phase location 0, and not currently running
  20:../../../DaisySP/Source/Control/adsr.h **** - ATTACK  = First segment of envelope where phase moves from 0 to 1
  21:../../../DaisySP/Source/Control/adsr.h **** - DECAY   = Second segment of envelope where phase moves from 1 to SUSTAIN value
  22:../../../DaisySP/Source/Control/adsr.h **** - RELEASE =     Fourth segment of envelop where phase moves from SUSTAIN to 0
  23:../../../DaisySP/Source/Control/adsr.h **** */
  24:../../../DaisySP/Source/Control/adsr.h **** enum
  25:../../../DaisySP/Source/Control/adsr.h **** {
  26:../../../DaisySP/Source/Control/adsr.h ****     ADSR_SEG_IDLE    = 0,
  27:../../../DaisySP/Source/Control/adsr.h ****     ADSR_SEG_ATTACK  = 1,
  28:../../../DaisySP/Source/Control/adsr.h ****     ADSR_SEG_DECAY   = 2,
  29:../../../DaisySP/Source/Control/adsr.h ****     ADSR_SEG_RELEASE = 4
ARM GAS  C:\Users\Miguel\AppData\Local\Temp\ccTW1OPO.s 			page 2


  30:../../../DaisySP/Source/Control/adsr.h **** };
  31:../../../DaisySP/Source/Control/adsr.h **** 
  32:../../../DaisySP/Source/Control/adsr.h **** 
  33:../../../DaisySP/Source/Control/adsr.h **** /** adsr envelope module
  34:../../../DaisySP/Source/Control/adsr.h **** 
  35:../../../DaisySP/Source/Control/adsr.h **** Original author(s) : Paul Batchelor
  36:../../../DaisySP/Source/Control/adsr.h **** 
  37:../../../DaisySP/Source/Control/adsr.h **** Ported from Soundpipe by Ben Sergentanis, May 2020
  38:../../../DaisySP/Source/Control/adsr.h ****  
  39:../../../DaisySP/Source/Control/adsr.h **** Remake by Steffan DIedrichsen, May 2021
  40:../../../DaisySP/Source/Control/adsr.h **** */
  41:../../../DaisySP/Source/Control/adsr.h **** class Adsr
  42:../../../DaisySP/Source/Control/adsr.h **** {
  43:../../../DaisySP/Source/Control/adsr.h ****   public:
  44:../../../DaisySP/Source/Control/adsr.h ****     Adsr() {}
  45:../../../DaisySP/Source/Control/adsr.h ****     ~Adsr() {}
  30              		.loc 1 45 5 view -0
  31              		.cfi_startproc
  32              		@ args = 0, pretend = 0, frame = 0
  33              		@ frame_needed = 0, uses_anonymous_args = 0
  34              		@ link register save eliminated.
  35              		.loc 1 45 14 is_stmt 0 view .LVU1
  36 0000 7047     		bx	lr
  37              		.cfi_endproc
  38              	.LFE562:
  40              		.weak	_ZN7daisysp4AdsrD1Ev
  41              		.thumb_set _ZN7daisysp4AdsrD1Ev,_ZN7daisysp4AdsrD2Ev
  42 0002 00BF     		.section	.text._ZN7daisysp10OscillatorD2Ev,"axG",%progbits,_ZN7daisysp10OscillatorD5Ev,comdat
  43              		.align	1
  44              		.p2align 2,,3
  45              		.weak	_ZN7daisysp10OscillatorD2Ev
  46              		.syntax unified
  47              		.thumb
  48              		.thumb_func
  49              		.fpu fpv5-d16
  51              	_ZN7daisysp10OscillatorD2Ev:
  52              	.LVL1:
  53              	.LFB2825:
  54              		.file 2 "../../../DaisySP/Source/Synthesis/oscillator.h"
   1:../../../DaisySP/Source/Synthesis/oscillator.h **** /*
   2:../../../DaisySP/Source/Synthesis/oscillator.h **** Copyright (c) 2020 Electrosmith, Corp
   3:../../../DaisySP/Source/Synthesis/oscillator.h **** 
   4:../../../DaisySP/Source/Synthesis/oscillator.h **** Use of this source code is governed by an MIT-style
   5:../../../DaisySP/Source/Synthesis/oscillator.h **** license that can be found in the LICENSE file or at
   6:../../../DaisySP/Source/Synthesis/oscillator.h **** https://opensource.org/licenses/MIT.
   7:../../../DaisySP/Source/Synthesis/oscillator.h **** */
   8:../../../DaisySP/Source/Synthesis/oscillator.h **** 
   9:../../../DaisySP/Source/Synthesis/oscillator.h **** #pragma once
  10:../../../DaisySP/Source/Synthesis/oscillator.h **** #ifndef DSY_OSCILLATOR_H
  11:../../../DaisySP/Source/Synthesis/oscillator.h **** #define DSY_OSCILLATOR_H
  12:../../../DaisySP/Source/Synthesis/oscillator.h **** #include <stdint.h>
  13:../../../DaisySP/Source/Synthesis/oscillator.h **** #include "Utility/dsp.h"
  14:../../../DaisySP/Source/Synthesis/oscillator.h **** #ifdef __cplusplus
  15:../../../DaisySP/Source/Synthesis/oscillator.h **** 
  16:../../../DaisySP/Source/Synthesis/oscillator.h **** namespace daisysp
  17:../../../DaisySP/Source/Synthesis/oscillator.h **** {
  18:../../../DaisySP/Source/Synthesis/oscillator.h **** /** Synthesis of several waveforms, including polyBLEP bandlimited waveforms.
ARM GAS  C:\Users\Miguel\AppData\Local\Temp\ccTW1OPO.s 			page 3


  19:../../../DaisySP/Source/Synthesis/oscillator.h **** */
  20:../../../DaisySP/Source/Synthesis/oscillator.h **** class Oscillator
  21:../../../DaisySP/Source/Synthesis/oscillator.h **** {
  22:../../../DaisySP/Source/Synthesis/oscillator.h ****   public:
  23:../../../DaisySP/Source/Synthesis/oscillator.h ****     Oscillator() {}
  24:../../../DaisySP/Source/Synthesis/oscillator.h ****     ~Oscillator() {}
  55              		.loc 2 24 5 is_stmt 1 view -0
  56              		.cfi_startproc
  57              		@ args = 0, pretend = 0, frame = 0
  58              		@ frame_needed = 0, uses_anonymous_args = 0
  59              		@ link register save eliminated.
  60              		.loc 2 24 20 is_stmt 0 view .LVU3
  61 0000 7047     		bx	lr
  62              		.cfi_endproc
  63              	.LFE2825:
  65              		.weak	_ZN7daisysp10OscillatorD1Ev
  66              		.thumb_set _ZN7daisysp10OscillatorD1Ev,_ZN7daisysp10OscillatorD2Ev
  67              		.section	.text._ZN7daisysp9CrossFadeD2Ev,"axG",%progbits,_ZN7daisysp9CrossFadeD5Ev,comdat
  68              		.align	1
  69              		.p2align 2,,3
  70              		.weak	_ZN7daisysp9CrossFadeD2Ev
  71              		.syntax unified
  72              		.thumb
  73              		.thumb_func
  74              		.fpu fpv5-d16
  76              	_ZN7daisysp9CrossFadeD2Ev:
  77              	.LVL2:
  78              	.LFB2915:
  79              		.file 3 "../../../DaisySP/Source/Dynamics/crossfade.h"
   1:../../../DaisySP/Source/Dynamics/crossfade.h **** /*
   2:../../../DaisySP/Source/Dynamics/crossfade.h **** Copyright (c) 2020 Electrosmith, Corp, Paul Batchelor
   3:../../../DaisySP/Source/Dynamics/crossfade.h **** 
   4:../../../DaisySP/Source/Dynamics/crossfade.h **** Use of this source code is governed by an MIT-style
   5:../../../DaisySP/Source/Dynamics/crossfade.h **** license that can be found in the LICENSE file or at
   6:../../../DaisySP/Source/Dynamics/crossfade.h **** https://opensource.org/licenses/MIT.
   7:../../../DaisySP/Source/Dynamics/crossfade.h **** */
   8:../../../DaisySP/Source/Dynamics/crossfade.h **** 
   9:../../../DaisySP/Source/Dynamics/crossfade.h **** #pragma once
  10:../../../DaisySP/Source/Dynamics/crossfade.h **** #ifndef DSY_CROSSFADE_H
  11:../../../DaisySP/Source/Dynamics/crossfade.h **** #define DSY_CROSSFADE_H
  12:../../../DaisySP/Source/Dynamics/crossfade.h **** #include <stdint.h>
  13:../../../DaisySP/Source/Dynamics/crossfade.h **** #ifdef __cplusplus
  14:../../../DaisySP/Source/Dynamics/crossfade.h **** 
  15:../../../DaisySP/Source/Dynamics/crossfade.h **** namespace daisysp
  16:../../../DaisySP/Source/Dynamics/crossfade.h **** {
  17:../../../DaisySP/Source/Dynamics/crossfade.h **** /** Curve applied to the CrossFade
  18:../../../DaisySP/Source/Dynamics/crossfade.h **** - LIN = linear
  19:../../../DaisySP/Source/Dynamics/crossfade.h **** - CPOW = constant power
  20:../../../DaisySP/Source/Dynamics/crossfade.h **** - LOG = logarithmic
  21:../../../DaisySP/Source/Dynamics/crossfade.h **** - EXP  exponential
  22:../../../DaisySP/Source/Dynamics/crossfade.h **** - LAST = end of enum (used for array indexing)
  23:../../../DaisySP/Source/Dynamics/crossfade.h **** */
  24:../../../DaisySP/Source/Dynamics/crossfade.h **** enum
  25:../../../DaisySP/Source/Dynamics/crossfade.h **** {
  26:../../../DaisySP/Source/Dynamics/crossfade.h ****     CROSSFADE_LIN,
  27:../../../DaisySP/Source/Dynamics/crossfade.h ****     CROSSFADE_CPOW,
  28:../../../DaisySP/Source/Dynamics/crossfade.h ****     CROSSFADE_LOG,
ARM GAS  C:\Users\Miguel\AppData\Local\Temp\ccTW1OPO.s 			page 4


  29:../../../DaisySP/Source/Dynamics/crossfade.h ****     CROSSFADE_EXP,
  30:../../../DaisySP/Source/Dynamics/crossfade.h ****     CROSSFADE_LAST,
  31:../../../DaisySP/Source/Dynamics/crossfade.h **** };
  32:../../../DaisySP/Source/Dynamics/crossfade.h **** 
  33:../../../DaisySP/Source/Dynamics/crossfade.h **** /** Performs a CrossFade between two signals
  34:../../../DaisySP/Source/Dynamics/crossfade.h **** 
  35:../../../DaisySP/Source/Dynamics/crossfade.h ****     Original author: Paul Batchelor
  36:../../../DaisySP/Source/Dynamics/crossfade.h **** 
  37:../../../DaisySP/Source/Dynamics/crossfade.h ****     Ported from Soundpipe by Andrew Ikenberry
  38:../../../DaisySP/Source/Dynamics/crossfade.h **** 
  39:../../../DaisySP/Source/Dynamics/crossfade.h ****     added curve option for constant power, etc.
  40:../../../DaisySP/Source/Dynamics/crossfade.h **** */
  41:../../../DaisySP/Source/Dynamics/crossfade.h **** class CrossFade
  42:../../../DaisySP/Source/Dynamics/crossfade.h **** {
  43:../../../DaisySP/Source/Dynamics/crossfade.h ****   public:
  44:../../../DaisySP/Source/Dynamics/crossfade.h ****     CrossFade() {}
  45:../../../DaisySP/Source/Dynamics/crossfade.h ****     ~CrossFade() {}
  80              		.loc 3 45 5 is_stmt 1 view -0
  81              		.cfi_startproc
  82              		@ args = 0, pretend = 0, frame = 0
  83              		@ frame_needed = 0, uses_anonymous_args = 0
  84              		@ link register save eliminated.
  85              		.loc 3 45 19 is_stmt 0 view .LVU5
  86 0000 7047     		bx	lr
  87              		.cfi_endproc
  88              	.LFE2915:
  90              		.weak	_ZN7daisysp9CrossFadeD1Ev
  91              		.thumb_set _ZN7daisysp9CrossFadeD1Ev,_ZN7daisysp9CrossFadeD2Ev
  92              		.section	.text._ZN7daisysp5MetroD2Ev,"axG",%progbits,_ZN7daisysp5MetroD5Ev,comdat
  93              		.align	1
  94              		.p2align 2,,3
  95              		.weak	_ZN7daisysp5MetroD2Ev
  96              		.syntax unified
  97              		.thumb
  98              		.thumb_func
  99              		.fpu fpv5-d16
 101              	_ZN7daisysp5MetroD2Ev:
 102              	.LVL3:
 103              	.LFB3488:
 104              		.file 4 "../../../DaisySP/Source/Utility/metro.h"
   1:../../../DaisySP/Source/Utility/metro.h **** /*
   2:../../../DaisySP/Source/Utility/metro.h **** Copyright (c) 2020 Electrosmith, Corp
   3:../../../DaisySP/Source/Utility/metro.h **** 
   4:../../../DaisySP/Source/Utility/metro.h **** Use of this source code is governed by an MIT-style
   5:../../../DaisySP/Source/Utility/metro.h **** license that can be found in the LICENSE file or at
   6:../../../DaisySP/Source/Utility/metro.h **** https://opensource.org/licenses/MIT.
   7:../../../DaisySP/Source/Utility/metro.h **** */
   8:../../../DaisySP/Source/Utility/metro.h **** 
   9:../../../DaisySP/Source/Utility/metro.h **** #pragma once
  10:../../../DaisySP/Source/Utility/metro.h **** #ifndef DSY_METRO_H
  11:../../../DaisySP/Source/Utility/metro.h **** #define DSY_METRO_H
  12:../../../DaisySP/Source/Utility/metro.h **** #include <stdint.h>
  13:../../../DaisySP/Source/Utility/metro.h **** #ifdef __cplusplus
  14:../../../DaisySP/Source/Utility/metro.h **** 
  15:../../../DaisySP/Source/Utility/metro.h **** namespace daisysp
  16:../../../DaisySP/Source/Utility/metro.h **** {
  17:../../../DaisySP/Source/Utility/metro.h **** /** Creates a clock signal at a specific frequency.
ARM GAS  C:\Users\Miguel\AppData\Local\Temp\ccTW1OPO.s 			page 5


  18:../../../DaisySP/Source/Utility/metro.h **** */
  19:../../../DaisySP/Source/Utility/metro.h **** class Metro
  20:../../../DaisySP/Source/Utility/metro.h **** {
  21:../../../DaisySP/Source/Utility/metro.h ****   public:
  22:../../../DaisySP/Source/Utility/metro.h ****     Metro() {}
  23:../../../DaisySP/Source/Utility/metro.h ****     ~Metro() {}
 105              		.loc 4 23 5 is_stmt 1 view -0
 106              		.cfi_startproc
 107              		@ args = 0, pretend = 0, frame = 0
 108              		@ frame_needed = 0, uses_anonymous_args = 0
 109              		@ link register save eliminated.
 110              		.loc 4 23 15 is_stmt 0 view .LVU7
 111 0000 7047     		bx	lr
 112              		.cfi_endproc
 113              	.LFE3488:
 115              		.weak	_ZN7daisysp5MetroD1Ev
 116              		.thumb_set _ZN7daisysp5MetroD1Ev,_ZN7daisysp5MetroD2Ev
 117              		.section	.text._ZN7daisysp8ReverbScD2Ev,"axG",%progbits,_ZN7daisysp8ReverbScD5Ev,comdat
 118              		.align	1
 119              		.p2align 2,,3
 120              		.weak	_ZN7daisysp8ReverbScD2Ev
 121              		.syntax unified
 122              		.thumb
 123              		.thumb_func
 124              		.fpu fpv5-d16
 126              	_ZN7daisysp8ReverbScD2Ev:
 127              	.LVL4:
 128              	.LFB3566:
 129              		.file 5 "../../../DaisySP/DaisySP-LGPL/Source/Effects/reverbsc.h"
   1:../../../DaisySP/DaisySP-LGPL/Source/Effects/reverbsc.h **** /*
   2:../../../DaisySP/DaisySP-LGPL/Source/Effects/reverbsc.h **** Copyright (c) 2023 Electrosmith, Corp, Sean Costello, Istvan Varga, Paul Batchelor
   3:../../../DaisySP/DaisySP-LGPL/Source/Effects/reverbsc.h **** 
   4:../../../DaisySP/DaisySP-LGPL/Source/Effects/reverbsc.h **** Use of this source code is governed by the LGPL V2.1
   5:../../../DaisySP/DaisySP-LGPL/Source/Effects/reverbsc.h **** license that can be found in the LICENSE file or at
   6:../../../DaisySP/DaisySP-LGPL/Source/Effects/reverbsc.h **** https://opensource.org/license/lgpl-2-1/
   7:../../../DaisySP/DaisySP-LGPL/Source/Effects/reverbsc.h **** */
   8:../../../DaisySP/DaisySP-LGPL/Source/Effects/reverbsc.h **** 
   9:../../../DaisySP/DaisySP-LGPL/Source/Effects/reverbsc.h **** #pragma once
  10:../../../DaisySP/DaisySP-LGPL/Source/Effects/reverbsc.h **** #ifndef DSYSP_REVERBSC_H
  11:../../../DaisySP/DaisySP-LGPL/Source/Effects/reverbsc.h **** #define DSYSP_REVERBSC_H
  12:../../../DaisySP/DaisySP-LGPL/Source/Effects/reverbsc.h **** 
  13:../../../DaisySP/DaisySP-LGPL/Source/Effects/reverbsc.h **** #define DSY_REVERBSC_MAX_SIZE 98936
  14:../../../DaisySP/DaisySP-LGPL/Source/Effects/reverbsc.h **** 
  15:../../../DaisySP/DaisySP-LGPL/Source/Effects/reverbsc.h **** namespace daisysp
  16:../../../DaisySP/DaisySP-LGPL/Source/Effects/reverbsc.h **** {
  17:../../../DaisySP/DaisySP-LGPL/Source/Effects/reverbsc.h **** /**Delay line for internal reverb use
  18:../../../DaisySP/DaisySP-LGPL/Source/Effects/reverbsc.h **** */
  19:../../../DaisySP/DaisySP-LGPL/Source/Effects/reverbsc.h **** typedef struct
  20:../../../DaisySP/DaisySP-LGPL/Source/Effects/reverbsc.h **** {
  21:../../../DaisySP/DaisySP-LGPL/Source/Effects/reverbsc.h ****     int    write_pos;         /**< write position */
  22:../../../DaisySP/DaisySP-LGPL/Source/Effects/reverbsc.h ****     int    buffer_size;       /**< buffer size */
  23:../../../DaisySP/DaisySP-LGPL/Source/Effects/reverbsc.h ****     int    read_pos;          /**< read position */
  24:../../../DaisySP/DaisySP-LGPL/Source/Effects/reverbsc.h ****     int    read_pos_frac;     /**< fractional component of read pos */
  25:../../../DaisySP/DaisySP-LGPL/Source/Effects/reverbsc.h ****     int    read_pos_frac_inc; /**< increment for fractional */
  26:../../../DaisySP/DaisySP-LGPL/Source/Effects/reverbsc.h ****     int    dummy;             /**<  dummy var */
  27:../../../DaisySP/DaisySP-LGPL/Source/Effects/reverbsc.h ****     int    seed_val;          /**< randseed */
  28:../../../DaisySP/DaisySP-LGPL/Source/Effects/reverbsc.h ****     int    rand_line_cnt;     /**< number of random lines */
ARM GAS  C:\Users\Miguel\AppData\Local\Temp\ccTW1OPO.s 			page 6


  29:../../../DaisySP/DaisySP-LGPL/Source/Effects/reverbsc.h ****     float  filter_state;      /**< state of filter */
  30:../../../DaisySP/DaisySP-LGPL/Source/Effects/reverbsc.h ****     float *buf;               /**< buffer ptr */
  31:../../../DaisySP/DaisySP-LGPL/Source/Effects/reverbsc.h **** } ReverbScDl;
  32:../../../DaisySP/DaisySP-LGPL/Source/Effects/reverbsc.h **** 
  33:../../../DaisySP/DaisySP-LGPL/Source/Effects/reverbsc.h **** /** Stereo Reverb */
  34:../../../DaisySP/DaisySP-LGPL/Source/Effects/reverbsc.h **** class ReverbSc
  35:../../../DaisySP/DaisySP-LGPL/Source/Effects/reverbsc.h **** {
  36:../../../DaisySP/DaisySP-LGPL/Source/Effects/reverbsc.h ****   public:
  37:../../../DaisySP/DaisySP-LGPL/Source/Effects/reverbsc.h ****     ReverbSc() {}
  38:../../../DaisySP/DaisySP-LGPL/Source/Effects/reverbsc.h ****     ~ReverbSc() {}
 130              		.loc 5 38 5 is_stmt 1 view -0
 131              		.cfi_startproc
 132              		@ args = 0, pretend = 0, frame = 0
 133              		@ frame_needed = 0, uses_anonymous_args = 0
 134              		@ link register save eliminated.
 135              		.loc 5 38 18 is_stmt 0 view .LVU9
 136 0000 7047     		bx	lr
 137              		.cfi_endproc
 138              	.LFE3566:
 140              		.weak	_ZN7daisysp8ReverbScD1Ev
 141              		.thumb_set _ZN7daisysp8ReverbScD1Ev,_ZN7daisysp8ReverbScD2Ev
 142              		.section	.text._ZN5daisy7Switch3D2Ev,"axG",%progbits,_ZN5daisy7Switch3D5Ev,comdat
 143              		.align	1
 144              		.p2align 2,,3
 145              		.weak	_ZN5daisy7Switch3D2Ev
 146              		.syntax unified
 147              		.thumb
 148              		.thumb_func
 149              		.fpu fpv5-d16
 151              	_ZN5daisy7Switch3D2Ev:
 152              	.LVL5:
 153              	.LFB3955:
 154              		.file 6 "../../../libDaisy/src/hid/switch3.h"
   1:../../../libDaisy/src/hid/switch3.h **** #pragma once
   2:../../../libDaisy/src/hid/switch3.h **** #include "daisy_core.h"
   3:../../../libDaisy/src/hid/switch3.h **** #include "per/gpio.h"
   4:../../../libDaisy/src/hid/switch3.h **** 
   5:../../../libDaisy/src/hid/switch3.h **** namespace daisy
   6:../../../libDaisy/src/hid/switch3.h **** {
   7:../../../libDaisy/src/hid/switch3.h **** class Switch3
   8:../../../libDaisy/src/hid/switch3.h **** {
   9:../../../libDaisy/src/hid/switch3.h ****   public:
  10:../../../libDaisy/src/hid/switch3.h ****     enum
  11:../../../libDaisy/src/hid/switch3.h ****     {
  12:../../../libDaisy/src/hid/switch3.h ****         POS_CENTER = 0,
  13:../../../libDaisy/src/hid/switch3.h ****         POS_LEFT   = 1,
  14:../../../libDaisy/src/hid/switch3.h ****         POS_UP     = 1,
  15:../../../libDaisy/src/hid/switch3.h ****         POS_RIGHT  = 2,
  16:../../../libDaisy/src/hid/switch3.h ****         POS_DOWN   = 2,
  17:../../../libDaisy/src/hid/switch3.h ****     };
  18:../../../libDaisy/src/hid/switch3.h **** 
  19:../../../libDaisy/src/hid/switch3.h **** 
  20:../../../libDaisy/src/hid/switch3.h ****     Switch3() {}
  21:../../../libDaisy/src/hid/switch3.h ****     ~Switch3() {}
 155              		.loc 6 21 5 is_stmt 1 view -0
 156              		.cfi_startproc
 157              		@ args = 0, pretend = 0, frame = 0
ARM GAS  C:\Users\Miguel\AppData\Local\Temp\ccTW1OPO.s 			page 7


 158              		@ frame_needed = 0, uses_anonymous_args = 0
 159              		@ link register save eliminated.
 160              		.loc 6 21 17 is_stmt 0 view .LVU11
 161 0000 7047     		bx	lr
 162              		.cfi_endproc
 163              	.LFE3955:
 165              		.weak	_ZN5daisy7Switch3D1Ev
 166              		.thumb_set _ZN5daisy7Switch3D1Ev,_ZN5daisy7Switch3D2Ev
 167              		.section	.text._ZN5daisy9DaisySeedD2Ev,"axG",%progbits,_ZN5daisy9DaisySeedD5Ev,comdat
 168              		.align	1
 169              		.p2align 2,,3
 170              		.weak	_ZN5daisy9DaisySeedD2Ev
 171              		.syntax unified
 172              		.thumb
 173              		.thumb_func
 174              		.fpu fpv5-d16
 176              	_ZN5daisy9DaisySeedD2Ev:
 177              	.LVL6:
 178              	.LFB4841:
 179              		.file 7 "../../../libDaisy/src/daisy_seed.h"
   1:../../../libDaisy/src/daisy_seed.h **** #pragma once
   2:../../../libDaisy/src/daisy_seed.h **** #ifndef DSY_SEED_H
   3:../../../libDaisy/src/daisy_seed.h **** #define DSY_SEED_H
   4:../../../libDaisy/src/daisy_seed.h **** 
   5:../../../libDaisy/src/daisy_seed.h **** #include "daisy.h"
   6:../../../libDaisy/src/daisy_seed.h **** 
   7:../../../libDaisy/src/daisy_seed.h **** //Uncomment this out if you're still using the rev2 hardware
   8:../../../libDaisy/src/daisy_seed.h **** //#define SEED_REV2
   9:../../../libDaisy/src/daisy_seed.h **** 
  10:../../../libDaisy/src/daisy_seed.h **** namespace daisy
  11:../../../libDaisy/src/daisy_seed.h **** {
  12:../../../libDaisy/src/daisy_seed.h **** /**
  13:../../../libDaisy/src/daisy_seed.h ****    @brief This is the higher-level interface for the Daisy board. \n 
  14:../../../libDaisy/src/daisy_seed.h ****     All basic peripheral configuration/initialization is setup here. \n
  15:../../../libDaisy/src/daisy_seed.h **** 
  16:../../../libDaisy/src/daisy_seed.h ****    @ingroup boards
  17:../../../libDaisy/src/daisy_seed.h **** */
  18:../../../libDaisy/src/daisy_seed.h **** class DaisySeed
  19:../../../libDaisy/src/daisy_seed.h **** {
  20:../../../libDaisy/src/daisy_seed.h ****   public:
  21:../../../libDaisy/src/daisy_seed.h ****     DaisySeed() {}
  22:../../../libDaisy/src/daisy_seed.h ****     ~DaisySeed() {}
 180              		.loc 7 22 5 is_stmt 1 view -0
 181              		.cfi_startproc
 182              		@ args = 0, pretend = 0, frame = 0
 183              		@ frame_needed = 0, uses_anonymous_args = 0
 184              		@ link register save eliminated.
 185              	.LBB177:
 186              	.LBI177:
 187              		.file 8 "../../../libDaisy/src/sys/system.h"
   1:../../../libDaisy/src/sys/system.h **** #ifndef DSY_SYSTEM_H
   2:../../../libDaisy/src/sys/system.h **** #define DSY_SYSTEM_H
   3:../../../libDaisy/src/sys/system.h **** 
   4:../../../libDaisy/src/sys/system.h **** #ifndef UNIT_TEST // for unit tests, a dummy implementation is provided below
   5:../../../libDaisy/src/sys/system.h **** 
   6:../../../libDaisy/src/sys/system.h **** #include <cstdint>
   7:../../../libDaisy/src/sys/system.h **** #include "per/tim.h"
ARM GAS  C:\Users\Miguel\AppData\Local\Temp\ccTW1OPO.s 			page 8


   8:../../../libDaisy/src/sys/system.h **** 
   9:../../../libDaisy/src/sys/system.h **** namespace daisy
  10:../../../libDaisy/src/sys/system.h **** {
  11:../../../libDaisy/src/sys/system.h **** /** A handle for interacting with the Core System.
  12:../../../libDaisy/src/sys/system.h ****  ** This includes the Clock tree, MPU, global DMA initialization,
  13:../../../libDaisy/src/sys/system.h ****  ** cache handling, and any other necessary global initiailzation
  14:../../../libDaisy/src/sys/system.h ****  **
  15:../../../libDaisy/src/sys/system.h ****  ** @author shensley
  16:../../../libDaisy/src/sys/system.h ****  ** @ingroup system
  17:../../../libDaisy/src/sys/system.h ****  */
  18:../../../libDaisy/src/sys/system.h **** class System
  19:../../../libDaisy/src/sys/system.h **** {
  20:../../../libDaisy/src/sys/system.h ****   public:
  21:../../../libDaisy/src/sys/system.h ****     /** Contains settings for initializing the System */
  22:../../../libDaisy/src/sys/system.h ****     struct Config
  23:../../../libDaisy/src/sys/system.h ****     {
  24:../../../libDaisy/src/sys/system.h ****         /** Specifies the system clock frequency that feeds APB/AHB clocks, etc. */
  25:../../../libDaisy/src/sys/system.h ****         enum class SysClkFreq
  26:../../../libDaisy/src/sys/system.h ****         {
  27:../../../libDaisy/src/sys/system.h ****             FREQ_400MHZ,
  28:../../../libDaisy/src/sys/system.h ****             FREQ_480MHZ,
  29:../../../libDaisy/src/sys/system.h ****         };
  30:../../../libDaisy/src/sys/system.h **** 
  31:../../../libDaisy/src/sys/system.h ****         /** Method to call on the struct to set to defaults
  32:../../../libDaisy/src/sys/system.h ****          ** CPU Freq set to 400MHz
  33:../../../libDaisy/src/sys/system.h ****          ** Cache Enabled
  34:../../../libDaisy/src/sys/system.h ****          ** */
  35:../../../libDaisy/src/sys/system.h ****         void Defaults()
  36:../../../libDaisy/src/sys/system.h ****         {
  37:../../../libDaisy/src/sys/system.h ****             cpu_freq    = SysClkFreq::FREQ_400MHZ;
  38:../../../libDaisy/src/sys/system.h ****             use_dcache  = true;
  39:../../../libDaisy/src/sys/system.h ****             use_icache  = true;
  40:../../../libDaisy/src/sys/system.h ****             skip_clocks = false;
  41:../../../libDaisy/src/sys/system.h ****         }
  42:../../../libDaisy/src/sys/system.h **** 
  43:../../../libDaisy/src/sys/system.h ****         /** Method to call on the struct to set to boost mode:
  44:../../../libDaisy/src/sys/system.h ****          ** CPU Freq set to 480MHz
  45:../../../libDaisy/src/sys/system.h ****          ** Cache Enabled
  46:../../../libDaisy/src/sys/system.h ****          ** */
  47:../../../libDaisy/src/sys/system.h ****         void Boost()
  48:../../../libDaisy/src/sys/system.h ****         {
  49:../../../libDaisy/src/sys/system.h ****             cpu_freq    = SysClkFreq::FREQ_480MHZ;
  50:../../../libDaisy/src/sys/system.h ****             use_dcache  = true;
  51:../../../libDaisy/src/sys/system.h ****             use_icache  = true;
  52:../../../libDaisy/src/sys/system.h ****             skip_clocks = false;
  53:../../../libDaisy/src/sys/system.h ****         }
  54:../../../libDaisy/src/sys/system.h **** 
  55:../../../libDaisy/src/sys/system.h ****         SysClkFreq cpu_freq;
  56:../../../libDaisy/src/sys/system.h ****         bool       use_dcache;
  57:../../../libDaisy/src/sys/system.h ****         bool       use_icache;
  58:../../../libDaisy/src/sys/system.h ****         bool       skip_clocks;
  59:../../../libDaisy/src/sys/system.h ****     };
  60:../../../libDaisy/src/sys/system.h **** 
  61:../../../libDaisy/src/sys/system.h ****     /** Describes the different regions of memory available to the Daisy */
  62:../../../libDaisy/src/sys/system.h ****     enum MemoryRegion
  63:../../../libDaisy/src/sys/system.h ****     {
  64:../../../libDaisy/src/sys/system.h ****         INTERNAL_FLASH = 0,
ARM GAS  C:\Users\Miguel\AppData\Local\Temp\ccTW1OPO.s 			page 9


  65:../../../libDaisy/src/sys/system.h ****         ITCMRAM,
  66:../../../libDaisy/src/sys/system.h ****         DTCMRAM,
  67:../../../libDaisy/src/sys/system.h ****         SRAM_D1,
  68:../../../libDaisy/src/sys/system.h ****         SRAM_D2,
  69:../../../libDaisy/src/sys/system.h ****         SRAM_D3,
  70:../../../libDaisy/src/sys/system.h ****         SDRAM,
  71:../../../libDaisy/src/sys/system.h ****         QSPI,
  72:../../../libDaisy/src/sys/system.h ****         INVALID_ADDRESS,
  73:../../../libDaisy/src/sys/system.h ****     };
  74:../../../libDaisy/src/sys/system.h **** 
  75:../../../libDaisy/src/sys/system.h ****     /** Bootloader struct for controlling bootloading parameters */
  76:../../../libDaisy/src/sys/system.h ****     struct BootInfo
  77:../../../libDaisy/src/sys/system.h ****     {
  78:../../../libDaisy/src/sys/system.h ****         enum class Type : uint32_t
  79:../../../libDaisy/src/sys/system.h ****         {
  80:../../../libDaisy/src/sys/system.h ****             INVALID      = 0x00000000,
  81:../../../libDaisy/src/sys/system.h ****             JUMP         = 0xDEADBEEF,
  82:../../../libDaisy/src/sys/system.h ****             SKIP_TIMEOUT = 0x5AFEB007,
  83:../../../libDaisy/src/sys/system.h ****             INF_TIMEOUT  = 0xB0074EFA,
  84:../../../libDaisy/src/sys/system.h ****         } status;
  85:../../../libDaisy/src/sys/system.h ****         uint32_t data;
  86:../../../libDaisy/src/sys/system.h ****         enum class Version : uint32_t
  87:../../../libDaisy/src/sys/system.h ****         {
  88:../../../libDaisy/src/sys/system.h ****             LT_v6_0 = 0, // Less than v6.0
  89:../../../libDaisy/src/sys/system.h ****             NONE,        // No bootloader present
  90:../../../libDaisy/src/sys/system.h ****             v6_0,        // v6.0
  91:../../../libDaisy/src/sys/system.h ****             v6_1,        // v6.1 or greater
  92:../../../libDaisy/src/sys/system.h ****             LAST
  93:../../../libDaisy/src/sys/system.h ****         } version;
  94:../../../libDaisy/src/sys/system.h ****     };
  95:../../../libDaisy/src/sys/system.h **** 
  96:../../../libDaisy/src/sys/system.h ****     System() {}
  97:../../../libDaisy/src/sys/system.h ****     ~System() {}
 188              		.loc 8 97 5 view .LVU13
 189              		.loc 8 97 5 is_stmt 0 view .LVU14
 190              	.LBE177:
 191              	.LBB178:
 192              	.LBI178:
 193              		.file 9 "../../../libDaisy/src/hid/usb.h"
   1:../../../libDaisy/src/hid/usb.h **** #pragma once
   2:../../../libDaisy/src/hid/usb.h **** #ifndef DSY_HID_USB_H
   3:../../../libDaisy/src/hid/usb.h **** #define DSY_HID_USB_H
   4:../../../libDaisy/src/hid/usb.h **** #include <stdint.h>
   5:../../../libDaisy/src/hid/usb.h **** #include <stdlib.h>
   6:../../../libDaisy/src/hid/usb.h **** 
   7:../../../libDaisy/src/hid/usb.h **** namespace daisy
   8:../../../libDaisy/src/hid/usb.h **** /** @addtogroup human_interface
   9:../../../libDaisy/src/hid/usb.h ****     @{
  10:../../../libDaisy/src/hid/usb.h **** */
  11:../../../libDaisy/src/hid/usb.h **** 
  12:../../../libDaisy/src/hid/usb.h **** {
  13:../../../libDaisy/src/hid/usb.h **** /** 
  14:../../../libDaisy/src/hid/usb.h ****     @brief Interface for initializing and using the USB Peripherals on the daisy
  15:../../../libDaisy/src/hid/usb.h ****     @author Stephen Hensley
  16:../../../libDaisy/src/hid/usb.h ****     @date December 2019
  17:../../../libDaisy/src/hid/usb.h **** */
  18:../../../libDaisy/src/hid/usb.h **** class UsbHandle
ARM GAS  C:\Users\Miguel\AppData\Local\Temp\ccTW1OPO.s 			page 10


  19:../../../libDaisy/src/hid/usb.h **** {
  20:../../../libDaisy/src/hid/usb.h ****   public:
  21:../../../libDaisy/src/hid/usb.h ****     /** Return values for USBHandle Functions */
  22:../../../libDaisy/src/hid/usb.h ****     enum class Result
  23:../../../libDaisy/src/hid/usb.h ****     {
  24:../../../libDaisy/src/hid/usb.h ****         OK,
  25:../../../libDaisy/src/hid/usb.h ****         ERR,
  26:../../../libDaisy/src/hid/usb.h ****     };
  27:../../../libDaisy/src/hid/usb.h **** 
  28:../../../libDaisy/src/hid/usb.h ****     /** Specified which of the two USB Peripherals to initialize. */
  29:../../../libDaisy/src/hid/usb.h ****     enum UsbPeriph
  30:../../../libDaisy/src/hid/usb.h ****     {
  31:../../../libDaisy/src/hid/usb.h ****         FS_INTERNAL, /**< Internal pin */
  32:../../../libDaisy/src/hid/usb.h ****         FS_EXTERNAL, /**< FS External D+ pin is Pin 38 (GPIO32). FS External D- pin is Pin 37 (GPIO
  33:../../../libDaisy/src/hid/usb.h ****         FS_BOTH,     /**< Both */
  34:../../../libDaisy/src/hid/usb.h ****     };
  35:../../../libDaisy/src/hid/usb.h **** 
  36:../../../libDaisy/src/hid/usb.h **** 
  37:../../../libDaisy/src/hid/usb.h ****     /** Function called upon reception of a buffer */
  38:../../../libDaisy/src/hid/usb.h ****     typedef void (*ReceiveCallback)(uint8_t* buff, uint32_t* len);
  39:../../../libDaisy/src/hid/usb.h **** 
  40:../../../libDaisy/src/hid/usb.h ****     UsbHandle() {}
  41:../../../libDaisy/src/hid/usb.h **** 
  42:../../../libDaisy/src/hid/usb.h ****     ~UsbHandle() {}
 194              		.loc 9 42 5 is_stmt 1 view .LVU15
 195              		.loc 9 42 5 is_stmt 0 view .LVU16
 196              	.LBE178:
 197              	.LBB179:
 198              	.LBI179:
 199              		.file 10 "../../../libDaisy/src/per/adc.h"
   1:../../../libDaisy/src/per/adc.h **** #pragma once
   2:../../../libDaisy/src/per/adc.h **** #ifndef DSY_ADC_H
   3:../../../libDaisy/src/per/adc.h **** #define DSY_ADC_H /**< Macro */
   4:../../../libDaisy/src/per/adc.h **** #include <stdint.h>
   5:../../../libDaisy/src/per/adc.h **** #include <stdlib.h>
   6:../../../libDaisy/src/per/adc.h **** #include "daisy_core.h"
   7:../../../libDaisy/src/per/adc.h **** #include "per/gpio.h"
   8:../../../libDaisy/src/per/adc.h **** 
   9:../../../libDaisy/src/per/adc.h **** #define DSY_ADC_MAX_CHANNELS 16 /**< Maximum number of ADC channels */
  10:../../../libDaisy/src/per/adc.h **** 
  11:../../../libDaisy/src/per/adc.h **** namespace daisy
  12:../../../libDaisy/src/per/adc.h **** {
  13:../../../libDaisy/src/per/adc.h **** /** @addtogroup per_analog
  14:../../../libDaisy/src/per/adc.h ****     @{
  15:../../../libDaisy/src/per/adc.h **** */
  16:../../../libDaisy/src/per/adc.h **** 
  17:../../../libDaisy/src/per/adc.h **** /* While there may not be many configuration options here,
  18:../../../libDaisy/src/per/adc.h **** using a struct like this allows us to add more configuration
  19:../../../libDaisy/src/per/adc.h **** later without breaking existing functionality.
  20:../../../libDaisy/src/per/adc.h **** */
  21:../../../libDaisy/src/per/adc.h **** 
  22:../../../libDaisy/src/per/adc.h **** /** @brief   Configuration Structure for an ADC Channel 
  23:../../../libDaisy/src/per/adc.h ****  *  @details This can be used to configure a a single input, 
  24:../../../libDaisy/src/per/adc.h ****  *           or a multiplexed input, allowing up to 8 inputs on 
  25:../../../libDaisy/src/per/adc.h ****  *           one channel.
  26:../../../libDaisy/src/per/adc.h ****  *  @note    Sharing data lines to multiple muxes _is_ possible, but
  27:../../../libDaisy/src/per/adc.h ****  *           each channel sharing data lines must be set to the maximum
ARM GAS  C:\Users\Miguel\AppData\Local\Temp\ccTW1OPO.s 			page 11


  28:../../../libDaisy/src/per/adc.h ****  *           number of channels, even if some multiplexers have fewer
  29:../../../libDaisy/src/per/adc.h ****  *           inputs connected.
  30:../../../libDaisy/src/per/adc.h **** */
  31:../../../libDaisy/src/per/adc.h **** struct AdcChannelConfig
  32:../../../libDaisy/src/per/adc.h **** {
  33:../../../libDaisy/src/per/adc.h ****     /** Which pin to use for multiplexing */
  34:../../../libDaisy/src/per/adc.h ****     enum MuxPin
  35:../../../libDaisy/src/per/adc.h ****     {
  36:../../../libDaisy/src/per/adc.h ****         MUX_SEL_0,    /**< & */
  37:../../../libDaisy/src/per/adc.h ****         MUX_SEL_1,    /**< & */
  38:../../../libDaisy/src/per/adc.h ****         MUX_SEL_2,    /**< & */
  39:../../../libDaisy/src/per/adc.h ****         MUX_SEL_LAST, /**< & */
  40:../../../libDaisy/src/per/adc.h ****     };
  41:../../../libDaisy/src/per/adc.h **** 
  42:../../../libDaisy/src/per/adc.h ****     /** \brief per channel conversion speed added to fixed time based on bitdepth, etc. */
  43:../../../libDaisy/src/per/adc.h ****     enum ConversionSpeed
  44:../../../libDaisy/src/per/adc.h ****     {
  45:../../../libDaisy/src/per/adc.h ****         SPEED_1CYCLES_5,
  46:../../../libDaisy/src/per/adc.h ****         SPEED_2CYCLES_5,
  47:../../../libDaisy/src/per/adc.h ****         SPEED_8CYCLES_5,
  48:../../../libDaisy/src/per/adc.h ****         SPEED_16CYCLES_5,
  49:../../../libDaisy/src/per/adc.h ****         SPEED_32CYCLES_5,
  50:../../../libDaisy/src/per/adc.h ****         SPEED_64CYCLES_5,
  51:../../../libDaisy/src/per/adc.h ****         SPEED_387CYCLES_5,
  52:../../../libDaisy/src/per/adc.h ****         SPEED_810CYCLES_5,
  53:../../../libDaisy/src/per/adc.h ****     };
  54:../../../libDaisy/src/per/adc.h **** 
  55:../../../libDaisy/src/per/adc.h ****     /** Initializes a single ADC pin as an ADC. 
  56:../../../libDaisy/src/per/adc.h ****     \param pin Pin to init.
  57:../../../libDaisy/src/per/adc.h ****     \param speed conversion speed for this pin defaults to 8.5 cycles
  58:../../../libDaisy/src/per/adc.h ****      */
  59:../../../libDaisy/src/per/adc.h ****     void InitSingle(dsy_gpio_pin pin, ConversionSpeed speed = SPEED_8CYCLES_5);
  60:../../../libDaisy/src/per/adc.h **** 
  61:../../../libDaisy/src/per/adc.h ****     /** 
  62:../../../libDaisy/src/per/adc.h ****     Initializes a single ADC pin as a Multiplexed ADC.
  63:../../../libDaisy/src/per/adc.h ****     Requires a CD405X Multiplexer connected to the pin.
  64:../../../libDaisy/src/per/adc.h ****     You only need to supply the mux pins that are required,
  65:../../../libDaisy/src/per/adc.h ****     e.g. a 4052 mux would only require mux_0 and mux_1.
  66:../../../libDaisy/src/per/adc.h ****     Internal Callbacks handle the pin addressing.
  67:../../../libDaisy/src/per/adc.h ****     \param adc_pin &
  68:../../../libDaisy/src/per/adc.h ****     \param mux_channels must be 1-8
  69:../../../libDaisy/src/per/adc.h ****     \param mux_0 First mux pin
  70:../../../libDaisy/src/per/adc.h ****     \param mux_1 Second mux pin
  71:../../../libDaisy/src/per/adc.h ****     \param mux_2 Third mux pin
  72:../../../libDaisy/src/per/adc.h ****     \param speed conversion speed for this pin defaults to 8.5 cycles
  73:../../../libDaisy/src/per/adc.h ****     */
  74:../../../libDaisy/src/per/adc.h ****     void InitMux(dsy_gpio_pin    adc_pin,
  75:../../../libDaisy/src/per/adc.h ****                  size_t          mux_channels,
  76:../../../libDaisy/src/per/adc.h ****                  dsy_gpio_pin    mux_0,
  77:../../../libDaisy/src/per/adc.h ****                  dsy_gpio_pin    mux_1 = {DSY_GPIOX, 0},
  78:../../../libDaisy/src/per/adc.h ****                  dsy_gpio_pin    mux_2 = {DSY_GPIOX, 0},
  79:../../../libDaisy/src/per/adc.h ****                  ConversionSpeed speed = SPEED_8CYCLES_5);
  80:../../../libDaisy/src/per/adc.h **** 
  81:../../../libDaisy/src/per/adc.h ****     dsy_gpio        pin_;                   /**< & */
  82:../../../libDaisy/src/per/adc.h ****     dsy_gpio        mux_pin_[MUX_SEL_LAST]; /**< & */
  83:../../../libDaisy/src/per/adc.h ****     uint8_t         mux_channels_;          /**< & */
  84:../../../libDaisy/src/per/adc.h ****     ConversionSpeed speed_;
ARM GAS  C:\Users\Miguel\AppData\Local\Temp\ccTW1OPO.s 			page 12


  85:../../../libDaisy/src/per/adc.h **** };
  86:../../../libDaisy/src/per/adc.h **** 
  87:../../../libDaisy/src/per/adc.h **** /**
  88:../../../libDaisy/src/per/adc.h ****    @brief Handler for analog to digital conversion
  89:../../../libDaisy/src/per/adc.h **** */
  90:../../../libDaisy/src/per/adc.h **** class AdcHandle
  91:../../../libDaisy/src/per/adc.h **** {
  92:../../../libDaisy/src/per/adc.h ****   public:
  93:../../../libDaisy/src/per/adc.h ****     /** Supported oversampling amounts */
  94:../../../libDaisy/src/per/adc.h ****     enum OverSampling
  95:../../../libDaisy/src/per/adc.h ****     {
  96:../../../libDaisy/src/per/adc.h ****         OVS_NONE, /**< & */
  97:../../../libDaisy/src/per/adc.h ****         OVS_4,    /**< & */
  98:../../../libDaisy/src/per/adc.h ****         OVS_8,    /**< & */
  99:../../../libDaisy/src/per/adc.h ****         OVS_16,   /**< & */
 100:../../../libDaisy/src/per/adc.h ****         OVS_32,   /**< & */
 101:../../../libDaisy/src/per/adc.h ****         OVS_64,   /**< & */
 102:../../../libDaisy/src/per/adc.h ****         OVS_128,  /**< & */
 103:../../../libDaisy/src/per/adc.h ****         OVS_256,  /**< & */
 104:../../../libDaisy/src/per/adc.h ****         OVS_512,  /**< & */
 105:../../../libDaisy/src/per/adc.h ****         OVS_1024, /**< & */
 106:../../../libDaisy/src/per/adc.h ****         OVS_LAST, /**< & */
 107:../../../libDaisy/src/per/adc.h ****     };
 108:../../../libDaisy/src/per/adc.h **** 
 109:../../../libDaisy/src/per/adc.h ****     AdcHandle() {}
 110:../../../libDaisy/src/per/adc.h ****     ~AdcHandle() {}
 200              		.loc 10 110 5 is_stmt 1 view .LVU17
 201              		.loc 10 110 5 is_stmt 0 view .LVU18
 202              	.LBE179:
 203              	.LBB180:
 204              	.LBI180:
 205              		.file 11 "../../../libDaisy/src/hid/audio.h"
   1:../../../libDaisy/src/hid/audio.h **** #ifndef DSY_AUDIO_H
   2:../../../libDaisy/src/hid/audio.h **** #define DSY_AUDIO_H /**< & */
   3:../../../libDaisy/src/hid/audio.h **** 
   4:../../../libDaisy/src/hid/audio.h **** #include "per/sai.h"
   5:../../../libDaisy/src/hid/audio.h **** 
   6:../../../libDaisy/src/hid/audio.h **** namespace daisy
   7:../../../libDaisy/src/hid/audio.h **** {
   8:../../../libDaisy/src/hid/audio.h **** /** @brief Audio Engine Handle
   9:../../../libDaisy/src/hid/audio.h ****  *  @ingroup audio 
  10:../../../libDaisy/src/hid/audio.h ****  *  @details This class allows for higher level access to an audio engine.
  11:../../../libDaisy/src/hid/audio.h ****  *           If you're using a SOM like the DaisySeed or DaisyPatchSM (or any 
  12:../../../libDaisy/src/hid/audio.h ****  *            board that includes one of those objects) then the intialization
  13:../../../libDaisy/src/hid/audio.h ****  *            is already taken  care of.
  14:../../../libDaisy/src/hid/audio.h ****  *           If you're setting up your own custom hardware, or need to make changes
  15:../../../libDaisy/src/hid/audio.h ****  *           you will have to take the following steps:
  16:../../../libDaisy/src/hid/audio.h ****  *             1. Create and Initialize an SaiHandle or two depending on your requirements
  17:../../../libDaisy/src/hid/audio.h ****  *             2. Initialize the Audio Handle with the desired settings and the Initialized SaiHand
  18:../../../libDaisy/src/hid/audio.h ****  *             3. If the connected codec requires special configuration or initialization, do so
  19:../../../libDaisy/src/hid/audio.h ****  *             4. Write a callback method using either the AudioCallback or the InterleavingAudioCa
  20:../../../libDaisy/src/hid/audio.h ****  *             5. Start the Audio using one of the StartAudio function
  21:../../../libDaisy/src/hid/audio.h ****  */
  22:../../../libDaisy/src/hid/audio.h **** class AudioHandle
  23:../../../libDaisy/src/hid/audio.h **** {
  24:../../../libDaisy/src/hid/audio.h ****   public:
  25:../../../libDaisy/src/hid/audio.h ****     /** Manually configurable details about the Audio Engine */
ARM GAS  C:\Users\Miguel\AppData\Local\Temp\ccTW1OPO.s 			page 13


  26:../../../libDaisy/src/hid/audio.h ****     /** TODO: Figure out how to get samplerate in here. */
  27:../../../libDaisy/src/hid/audio.h ****     struct Config
  28:../../../libDaisy/src/hid/audio.h ****     {
  29:../../../libDaisy/src/hid/audio.h ****         /** number of samples to process per callback */
  30:../../../libDaisy/src/hid/audio.h ****         size_t blocksize;
  31:../../../libDaisy/src/hid/audio.h **** 
  32:../../../libDaisy/src/hid/audio.h ****         /**< Sample rate of audio */
  33:../../../libDaisy/src/hid/audio.h ****         SaiHandle::Config::SampleRate samplerate;
  34:../../../libDaisy/src/hid/audio.h **** 
  35:../../../libDaisy/src/hid/audio.h ****         /** factor for adjustment before and after callback for hardware that may have extra headro
  36:../../../libDaisy/src/hid/audio.h ****         float postgain;
  37:../../../libDaisy/src/hid/audio.h **** 
  38:../../../libDaisy/src/hid/audio.h ****         /** factor for additional one-sided compensation to audio path for hardware that may
  39:../../../libDaisy/src/hid/audio.h ****          *  have unequal input/output ranges
  40:../../../libDaisy/src/hid/audio.h ****          */
  41:../../../libDaisy/src/hid/audio.h ****         float output_compensation;
  42:../../../libDaisy/src/hid/audio.h **** 
  43:../../../libDaisy/src/hid/audio.h ****         /** Sets default values for config struct */
  44:../../../libDaisy/src/hid/audio.h ****         Config()
  45:../../../libDaisy/src/hid/audio.h ****         : blocksize(48),
  46:../../../libDaisy/src/hid/audio.h ****           samplerate(SaiHandle::Config::SampleRate::SAI_48KHZ),
  47:../../../libDaisy/src/hid/audio.h ****           postgain(1.f),
  48:../../../libDaisy/src/hid/audio.h ****           output_compensation(1.f)
  49:../../../libDaisy/src/hid/audio.h ****         {
  50:../../../libDaisy/src/hid/audio.h ****         }
  51:../../../libDaisy/src/hid/audio.h ****     };
  52:../../../libDaisy/src/hid/audio.h **** 
  53:../../../libDaisy/src/hid/audio.h ****     enum class Result
  54:../../../libDaisy/src/hid/audio.h ****     {
  55:../../../libDaisy/src/hid/audio.h ****         OK,
  56:../../../libDaisy/src/hid/audio.h ****         ERR,
  57:../../../libDaisy/src/hid/audio.h ****     };
  58:../../../libDaisy/src/hid/audio.h **** 
  59:../../../libDaisy/src/hid/audio.h ****     /** Non-Interleaving input buffer
  60:../../../libDaisy/src/hid/audio.h ****      * Buffer arranged by float[chn][sample] 
  61:../../../libDaisy/src/hid/audio.h ****      * const so that the user can't modify the input
  62:../../../libDaisy/src/hid/audio.h ****      */
  63:../../../libDaisy/src/hid/audio.h ****     typedef const float* const* InputBuffer;
  64:../../../libDaisy/src/hid/audio.h **** 
  65:../../../libDaisy/src/hid/audio.h ****     /** Non-Interleaving output buffer
  66:../../../libDaisy/src/hid/audio.h ****      * Arranged by float[chn][sample] 
  67:../../../libDaisy/src/hid/audio.h ****      */
  68:../../../libDaisy/src/hid/audio.h ****     typedef float** OutputBuffer;
  69:../../../libDaisy/src/hid/audio.h **** 
  70:../../../libDaisy/src/hid/audio.h ****     /** Type for a Non-Interleaving audio callback 
  71:../../../libDaisy/src/hid/audio.h ****      * Non-Interleaving audio callbacks in daisy will be of this type
  72:../../../libDaisy/src/hid/audio.h ****      */
  73:../../../libDaisy/src/hid/audio.h ****     typedef void (*AudioCallback)(InputBuffer  in,
  74:../../../libDaisy/src/hid/audio.h ****                                   OutputBuffer out,
  75:../../../libDaisy/src/hid/audio.h ****                                   size_t       size);
  76:../../../libDaisy/src/hid/audio.h **** 
  77:../../../libDaisy/src/hid/audio.h ****     /** Interleaving Input buffer
  78:../../../libDaisy/src/hid/audio.h ****      ** audio is prepared as { L0, R0, L1, R1, . . . LN, RN }]
  79:../../../libDaisy/src/hid/audio.h ****      ** this is const, as the user shouldn't modify it
  80:../../../libDaisy/src/hid/audio.h ****     */
  81:../../../libDaisy/src/hid/audio.h ****     typedef const float* InterleavingInputBuffer;
  82:../../../libDaisy/src/hid/audio.h **** 
ARM GAS  C:\Users\Miguel\AppData\Local\Temp\ccTW1OPO.s 			page 14


  83:../../../libDaisy/src/hid/audio.h ****     /** Interleaving Output buffer 
  84:../../../libDaisy/src/hid/audio.h ****      ** audio is prepared as { L0, R0, L1, R1, . . . LN, RN }
  85:../../../libDaisy/src/hid/audio.h ****     */
  86:../../../libDaisy/src/hid/audio.h ****     typedef float* InterleavingOutputBuffer;
  87:../../../libDaisy/src/hid/audio.h **** 
  88:../../../libDaisy/src/hid/audio.h ****     /** Interleaving Audio Callback 
  89:../../../libDaisy/src/hid/audio.h ****      * Interleaving audio callbacks in daisy must be of this type
  90:../../../libDaisy/src/hid/audio.h ****      */
  91:../../../libDaisy/src/hid/audio.h ****     typedef void (*InterleavingAudioCallback)(InterleavingInputBuffer  in,
  92:../../../libDaisy/src/hid/audio.h ****                                               InterleavingOutputBuffer out,
  93:../../../libDaisy/src/hid/audio.h ****                                               size_t                   size);
  94:../../../libDaisy/src/hid/audio.h **** 
  95:../../../libDaisy/src/hid/audio.h ****     AudioHandle() : pimpl_(nullptr) {}
  96:../../../libDaisy/src/hid/audio.h ****     ~AudioHandle() {}
 206              		.loc 11 96 5 is_stmt 1 view .LVU19
 207              		.loc 11 96 5 is_stmt 0 view .LVU20
 208              	.LBE180:
 209              		.loc 7 22 19 view .LVU21
 210 0000 7047     		bx	lr
 211              		.cfi_endproc
 212              	.LFE4841:
 214              		.weak	_ZN5daisy9DaisySeedD1Ev
 215              		.thumb_set _ZN5daisy9DaisySeedD1Ev,_ZN5daisy9DaisySeedD2Ev
 216 0002 00BF     		.section	.text._ZL13AudioCallbackPKfPfj,"ax",%progbits
 217              		.align	1
 218              		.p2align 2,,3
 219              		.syntax unified
 220              		.thumb
 221              		.thumb_func
 222              		.fpu fpv5-d16
 224              	_ZL13AudioCallbackPKfPfj:
 225              	.LVL7:
 226              	.LFB4848:
 227              		.file 12 "oscillator.cpp"
   1:oscillator.cpp **** #include "daisysp.h"
   2:oscillator.cpp **** #include "daisy_seed.h"
   3:oscillator.cpp **** #include "daisysp-lgpl.h"
   4:oscillator.cpp **** #include <cmath>
   5:oscillator.cpp **** 
   6:oscillator.cpp **** #define LEFT (i)
   7:oscillator.cpp **** #define RIGHT (i + 1)
   8:oscillator.cpp **** 
   9:oscillator.cpp **** using namespace daisysp;
  10:oscillator.cpp **** using namespace daisy;
  11:oscillator.cpp **** 
  12:oscillator.cpp **** static DaisySeed  hw;
  13:oscillator.cpp **** static Oscillator osc, lfo;
  14:oscillator.cpp **** static Adsr env;
  15:oscillator.cpp **** static Metro tick;
  16:oscillator.cpp **** static Switch3 toggleWaveForm;
  17:oscillator.cpp **** static ReverbSc reverb;
  18:oscillator.cpp **** static CrossFade mixer;
  19:oscillator.cpp **** bool gate;
  20:oscillator.cpp **** float sample_rate;
  21:oscillator.cpp **** 
  22:oscillator.cpp **** float convertValue(int value, float new_min, float new_max) {
  23:oscillator.cpp ****     int min_value = 0;
ARM GAS  C:\Users\Miguel\AppData\Local\Temp\ccTW1OPO.s 			page 15


  24:oscillator.cpp ****     int max_value = 65534;
  25:oscillator.cpp ****     
  26:oscillator.cpp ****     // Calculer la valeur normalise entre 0 et 1
  27:oscillator.cpp ****     float normalized_value = static_cast<float>(value - min_value) / (max_value - min_value);
  28:oscillator.cpp ****     
  29:oscillator.cpp ****     // Appliquer la fonction de mise  l'chelle exponentielle
  30:oscillator.cpp ****     float scaled_value = ((new_max - new_min) * pow(normalized_value, 2)) + new_min;
  31:oscillator.cpp ****     
  32:oscillator.cpp ****     return scaled_value;
  33:oscillator.cpp **** }
  34:oscillator.cpp **** 
  35:oscillator.cpp **** void changeWaveForm() 
  36:oscillator.cpp **** {
  37:oscillator.cpp ****     switch(toggleWaveForm.Read())
  38:oscillator.cpp ****     {
  39:oscillator.cpp ****         case Switch3::POS_UP: osc.SetWaveform(osc.WAVE_SQUARE); break;
  40:oscillator.cpp ****         case Switch3::POS_CENTER: osc.SetWaveform(osc.WAVE_POLYBLEP_SAW); break;
  41:oscillator.cpp ****         case Switch3::POS_DOWN: osc.SetWaveform(osc.WAVE_TRI); break;
  42:oscillator.cpp ****     }
  43:oscillator.cpp **** }
  44:oscillator.cpp **** 
  45:oscillator.cpp **** static void AudioCallback(AudioHandle::InterleavingInputBuffer  in,
  46:oscillator.cpp ****                           AudioHandle::InterleavingOutputBuffer out,
  47:oscillator.cpp ****                           size_t                                size)
  48:oscillator.cpp **** {
 228              		.loc 12 48 1 is_stmt 1 view -0
 229              		.cfi_startproc
 230              		@ args = 0, pretend = 0, frame = 16
 231              		@ frame_needed = 0, uses_anonymous_args = 0
  49:oscillator.cpp ****     float osc_out, env_out;
 232              		.loc 12 49 5 view .LVU23
  50:oscillator.cpp ****     for(size_t i = 0; i < size; i += 2)
 233              		.loc 12 50 5 view .LVU24
 234              	.LBB181:
 235              		.loc 12 50 25 view .LVU25
 236 0000 002A     		cmp	r2, #0
 237 0002 00F01881 		beq	.L26
 238              	.LBE181:
  48:oscillator.cpp ****     float osc_out, env_out;
 239              		.loc 12 48 1 is_stmt 0 view .LVU26
 240 0006 2DE9F047 		push	{r4, r5, r6, r7, r8, r9, r10, lr}
 241              		.cfi_def_cfa_offset 32
 242              		.cfi_offset 4, -32
 243              		.cfi_offset 5, -28
 244              		.cfi_offset 6, -24
 245              		.cfi_offset 7, -20
 246              		.cfi_offset 8, -16
 247              		.cfi_offset 9, -12
 248              		.cfi_offset 10, -8
 249              		.cfi_offset 14, -4
 250 000a 9146     		mov	r9, r2
 251 000c 0C46     		mov	r4, r1
 252              	.LBB301:
 253              		.loc 12 50 16 view .LVU27
 254 000e 0026     		movs	r6, #0
 255 0010 DFF86482 		ldr	r8, .L31+64
 256 0014 8E4D     		ldr	r5, .L31+24
ARM GAS  C:\Users\Miguel\AppData\Local\Temp\ccTW1OPO.s 			page 16


 257 0016 0F1D     		adds	r7, r1, #4
 258 0018 DFF848A2 		ldr	r10, .L31+44
 259              	.LBE301:
  48:oscillator.cpp ****     float osc_out, env_out;
 260              		.loc 12 48 1 view .LVU28
 261 001c 2DED0E8B 		vpush.64	{d8, d9, d10, d11, d12, d13, d14}
 262              		.cfi_def_cfa_offset 88
 263              		.cfi_offset 80, -88
 264              		.cfi_offset 81, -84
 265              		.cfi_offset 82, -80
 266              		.cfi_offset 83, -76
 267              		.cfi_offset 84, -72
 268              		.cfi_offset 85, -68
 269              		.cfi_offset 86, -64
 270              		.cfi_offset 87, -60
 271              		.cfi_offset 88, -56
 272              		.cfi_offset 89, -52
 273              		.cfi_offset 90, -48
 274              		.cfi_offset 91, -44
 275              		.cfi_offset 92, -40
 276              		.cfi_offset 93, -36
 277 0020 86B0     		sub	sp, sp, #24
 278              		.cfi_def_cfa_offset 112
 279 0022 28E0     		b	.L17
 280              	.LVL8:
 281              	.L30:
 282              	.LBB302:
 283              	.LBB182:
 284              	.LBB183:
 285              	.LBB184:
  46:../../../DaisySP/Source/Control/adsr.h ****     /** Initializes the Adsr module.
  47:../../../DaisySP/Source/Control/adsr.h ****         \param sample_rate - The sample rate of the audio engine being run. 
  48:../../../DaisySP/Source/Control/adsr.h ****     */
  49:../../../DaisySP/Source/Control/adsr.h ****     void Init(float sample_rate, int blockSize = 1);
  50:../../../DaisySP/Source/Control/adsr.h ****     /**
  51:../../../DaisySP/Source/Control/adsr.h ****      \function Retrigger forces the envelope back to attack phase
  52:../../../DaisySP/Source/Control/adsr.h ****      \param hard  resets the history to zero, results in a click.
  53:../../../DaisySP/Source/Control/adsr.h ****      */
  54:../../../DaisySP/Source/Control/adsr.h ****     void Retrigger(bool hard);
  55:../../../DaisySP/Source/Control/adsr.h ****     /** Processes one sample through the filter and returns one sample.
  56:../../../DaisySP/Source/Control/adsr.h ****         \param gate - trigger the envelope, hold it to sustain 
  57:../../../DaisySP/Source/Control/adsr.h ****     */
  58:../../../DaisySP/Source/Control/adsr.h ****     float Process(bool gate);
  59:../../../DaisySP/Source/Control/adsr.h ****     /** Sets time
  60:../../../DaisySP/Source/Control/adsr.h ****         Set time per segment in seconds
  61:../../../DaisySP/Source/Control/adsr.h ****     */
  62:../../../DaisySP/Source/Control/adsr.h ****     void SetTime(int seg, float time);
  63:../../../DaisySP/Source/Control/adsr.h ****     void SetAttackTime(float timeInS, float shape = 0.0f);
  64:../../../DaisySP/Source/Control/adsr.h ****     void SetDecayTime(float timeInS);
  65:../../../DaisySP/Source/Control/adsr.h ****     void SetReleaseTime(float timeInS);
  66:../../../DaisySP/Source/Control/adsr.h **** 
  67:../../../DaisySP/Source/Control/adsr.h ****   private:
  68:../../../DaisySP/Source/Control/adsr.h ****     void SetTimeConstant(float timeInS, float& time, float& coeff);
  69:../../../DaisySP/Source/Control/adsr.h **** 
  70:../../../DaisySP/Source/Control/adsr.h ****   public:
  71:../../../DaisySP/Source/Control/adsr.h ****     /** Sustain level
  72:../../../DaisySP/Source/Control/adsr.h ****         \param sus_level - sets sustain level, 0...1.0
ARM GAS  C:\Users\Miguel\AppData\Local\Temp\ccTW1OPO.s 			page 17


  73:../../../DaisySP/Source/Control/adsr.h ****     */
  74:../../../DaisySP/Source/Control/adsr.h ****     inline void SetSustainLevel(float sus_level)
  75:../../../DaisySP/Source/Control/adsr.h ****     {
  76:../../../DaisySP/Source/Control/adsr.h ****         sus_level = (sus_level <= 0.f) ? -0.01f // forces envelope into idle
  77:../../../DaisySP/Source/Control/adsr.h ****                                        : (sus_level > 1.f) ? 1.f : sus_level;
 286              		.loc 1 77 60 view .LVU29
 287 0024 B4EE6A7A 		vcmp.f32	s14, s21
 288 0028 F1EE10FA 		vmrs	APSR_nzcv, FPSCR
 289 002c 3AFE877A 		vselgt.f32	s14, s21, s14
 290              	.LVL9:
 291              	.L12:
  78:../../../DaisySP/Source/Control/adsr.h ****         sus_level_ = sus_level;
 292              		.loc 1 78 9 is_stmt 1 view .LVU30
 293              	.LBE184:
 294              	.LBE183:
 295              	.LBB187:
 296              	.LBB188:
 297              	.LBB189:
  27:oscillator.cpp ****     
 298              		.loc 12 27 30 is_stmt 0 view .LVU31
 299 0030 F8EEE88A 		vcvt.f32.s32	s17, s17
 300              	.LVL10:
  27:oscillator.cpp ****     
 301              		.loc 12 27 11 view .LVU32
 302 0034 DFED874A 		vldr.32	s9, .L31+28
 303              	.LBE189:
 304              	.LBE188:
 305              	.LBE187:
 306              	.LBB224:
 307              	.LBB185:
 308              		.loc 1 78 20 view .LVU33
 309 0038 8AED007A 		vstr.32	s14, [r10]
 310              	.LVL11:
 311              		.loc 1 78 20 view .LVU34
 312              	.LBE185:
 313              	.LBE224:
  51:oscillator.cpp ****     {
  52:oscillator.cpp ****         if(tick.Process())
  53:oscillator.cpp ****         {
  54:oscillator.cpp ****             gate = !gate;
  55:oscillator.cpp ****         }
  56:oscillator.cpp **** 
  57:oscillator.cpp ****         float knobFrequence = hw.adc.GetFloat(1);
  58:oscillator.cpp ****         float knobAmplitude = hw.adc.GetFloat(0);
  59:oscillator.cpp ****         float knobTickFrequency = hw.adc.Get(2);
  60:oscillator.cpp ****         float knobAttack = hw.adc.Get(3);
  61:oscillator.cpp ****         float knobDecay = hw.adc.Get(4);
  62:oscillator.cpp ****         float knobSustain = hw.adc.Get(5);
  63:oscillator.cpp ****         float knobVerbVolume = hw.adc.Get(6);
  64:oscillator.cpp ****         float knobVerbFrequence = hw.adc.Get(7);
  65:oscillator.cpp ****         
  66:oscillator.cpp ****         env_out = env.Process(gate);
  67:oscillator.cpp ****         osc_out = osc.Process();
  68:oscillator.cpp **** 
  69:oscillator.cpp ****         osc.SetFreq(24.0 + (fclamp(knobFrequence, 0.0f, 1.0f) * 60) );
  70:oscillator.cpp ****         osc.SetAmp(env_out * knobAmplitude);
  71:oscillator.cpp ****         tick.SetFreq(convertValue(knobTickFrequency, 1.0f, 5.0f));
ARM GAS  C:\Users\Miguel\AppData\Local\Temp\ccTW1OPO.s 			page 18


  72:oscillator.cpp ****         env.SetTime(ADSR_SEG_ATTACK, convertValue(knobAttack, 1.0f, 5.0f));
  73:oscillator.cpp ****         env.SetTime(ADSR_SEG_DECAY, convertValue(knobDecay, 1.0f, 5.0f));
  74:oscillator.cpp ****         env.SetSustainLevel(convertValue(knobSustain, 0.0f, 1.0f));
  75:oscillator.cpp **** 
  76:oscillator.cpp ****         if (convertValue(knobVerbVolume, 0.0f, 1.0f) < 0.05f) 
 314              		.loc 12 76 9 is_stmt 1 view .LVU35
 315              	.LBB225:
 316              	.LBB195:
 317              	.LBI188:
  22:oscillator.cpp ****     int min_value = 0;
 318              		.loc 12 22 7 view .LVU36
 319              	.LBB193:
  23:oscillator.cpp ****     int max_value = 65534;
 320              		.loc 12 23 5 view .LVU37
  24:oscillator.cpp ****     
 321              		.loc 12 24 5 view .LVU38
  27:oscillator.cpp ****     
 322              		.loc 12 27 5 view .LVU39
  30:oscillator.cpp ****     
 323              		.loc 12 30 5 view .LVU40
 324              	.LBB190:
 325              	.LBI190:
 326              		.file 13 "c:\\program files\\daisytoolchain\\arm-none-eabi\\include\\c++\\10.2.1\\cmath"
   1:c:\program files\daisytoolchain\arm-none-eabi\include\c++\10.2.1\cmath **** // -*- C++ -*- C forwarding header.
   2:c:\program files\daisytoolchain\arm-none-eabi\include\c++\10.2.1\cmath **** 
   3:c:\program files\daisytoolchain\arm-none-eabi\include\c++\10.2.1\cmath **** // Copyright (C) 1997-2020 Free Software Foundation, Inc.
   4:c:\program files\daisytoolchain\arm-none-eabi\include\c++\10.2.1\cmath **** //
   5:c:\program files\daisytoolchain\arm-none-eabi\include\c++\10.2.1\cmath **** // This file is part of the GNU ISO C++ Library.  This library is free
   6:c:\program files\daisytoolchain\arm-none-eabi\include\c++\10.2.1\cmath **** // software; you can redistribute it and/or modify it under the
   7:c:\program files\daisytoolchain\arm-none-eabi\include\c++\10.2.1\cmath **** // terms of the GNU General Public License as published by the
   8:c:\program files\daisytoolchain\arm-none-eabi\include\c++\10.2.1\cmath **** // Free Software Foundation; either version 3, or (at your option)
   9:c:\program files\daisytoolchain\arm-none-eabi\include\c++\10.2.1\cmath **** // any later version.
  10:c:\program files\daisytoolchain\arm-none-eabi\include\c++\10.2.1\cmath **** 
  11:c:\program files\daisytoolchain\arm-none-eabi\include\c++\10.2.1\cmath **** // This library is distributed in the hope that it will be useful,
  12:c:\program files\daisytoolchain\arm-none-eabi\include\c++\10.2.1\cmath **** // but WITHOUT ANY WARRANTY; without even the implied warranty of
  13:c:\program files\daisytoolchain\arm-none-eabi\include\c++\10.2.1\cmath **** // MERCHANTABILITY or FITNESS FOR A PARTICULAR PURPOSE.  See the
  14:c:\program files\daisytoolchain\arm-none-eabi\include\c++\10.2.1\cmath **** // GNU General Public License for more details.
  15:c:\program files\daisytoolchain\arm-none-eabi\include\c++\10.2.1\cmath **** 
  16:c:\program files\daisytoolchain\arm-none-eabi\include\c++\10.2.1\cmath **** // Under Section 7 of GPL version 3, you are granted additional
  17:c:\program files\daisytoolchain\arm-none-eabi\include\c++\10.2.1\cmath **** // permissions described in the GCC Runtime Library Exception, version
  18:c:\program files\daisytoolchain\arm-none-eabi\include\c++\10.2.1\cmath **** // 3.1, as published by the Free Software Foundation.
  19:c:\program files\daisytoolchain\arm-none-eabi\include\c++\10.2.1\cmath **** 
  20:c:\program files\daisytoolchain\arm-none-eabi\include\c++\10.2.1\cmath **** // You should have received a copy of the GNU General Public License and
  21:c:\program files\daisytoolchain\arm-none-eabi\include\c++\10.2.1\cmath **** // a copy of the GCC Runtime Library Exception along with this program;
  22:c:\program files\daisytoolchain\arm-none-eabi\include\c++\10.2.1\cmath **** // see the files COPYING3 and COPYING.RUNTIME respectively.  If not, see
  23:c:\program files\daisytoolchain\arm-none-eabi\include\c++\10.2.1\cmath **** // <http://www.gnu.org/licenses/>.
  24:c:\program files\daisytoolchain\arm-none-eabi\include\c++\10.2.1\cmath **** 
  25:c:\program files\daisytoolchain\arm-none-eabi\include\c++\10.2.1\cmath **** /** @file include/cmath
  26:c:\program files\daisytoolchain\arm-none-eabi\include\c++\10.2.1\cmath ****  *  This is a Standard C++ Library file.  You should @c \#include this file
  27:c:\program files\daisytoolchain\arm-none-eabi\include\c++\10.2.1\cmath ****  *  in your programs, rather than any of the @a *.h implementation files.
  28:c:\program files\daisytoolchain\arm-none-eabi\include\c++\10.2.1\cmath ****  *
  29:c:\program files\daisytoolchain\arm-none-eabi\include\c++\10.2.1\cmath ****  *  This is the C++ version of the Standard C Library header @c math.h,
  30:c:\program files\daisytoolchain\arm-none-eabi\include\c++\10.2.1\cmath ****  *  and its contents are (mostly) the same as that header, but are all
  31:c:\program files\daisytoolchain\arm-none-eabi\include\c++\10.2.1\cmath ****  *  contained in the namespace @c std (except for names which are defined
  32:c:\program files\daisytoolchain\arm-none-eabi\include\c++\10.2.1\cmath ****  *  as macros in C).
  33:c:\program files\daisytoolchain\arm-none-eabi\include\c++\10.2.1\cmath ****  */
  34:c:\program files\daisytoolchain\arm-none-eabi\include\c++\10.2.1\cmath **** 
ARM GAS  C:\Users\Miguel\AppData\Local\Temp\ccTW1OPO.s 			page 19


  35:c:\program files\daisytoolchain\arm-none-eabi\include\c++\10.2.1\cmath **** //
  36:c:\program files\daisytoolchain\arm-none-eabi\include\c++\10.2.1\cmath **** // ISO C++ 14882: 26.5  C library
  37:c:\program files\daisytoolchain\arm-none-eabi\include\c++\10.2.1\cmath **** //
  38:c:\program files\daisytoolchain\arm-none-eabi\include\c++\10.2.1\cmath **** 
  39:c:\program files\daisytoolchain\arm-none-eabi\include\c++\10.2.1\cmath **** #pragma GCC system_header
  40:c:\program files\daisytoolchain\arm-none-eabi\include\c++\10.2.1\cmath **** 
  41:c:\program files\daisytoolchain\arm-none-eabi\include\c++\10.2.1\cmath **** #include <bits/c++config.h>
  42:c:\program files\daisytoolchain\arm-none-eabi\include\c++\10.2.1\cmath **** #include <bits/cpp_type_traits.h>
  43:c:\program files\daisytoolchain\arm-none-eabi\include\c++\10.2.1\cmath **** #include <ext/type_traits.h>
  44:c:\program files\daisytoolchain\arm-none-eabi\include\c++\10.2.1\cmath **** #define _GLIBCXX_INCLUDE_NEXT_C_HEADERS
  45:c:\program files\daisytoolchain\arm-none-eabi\include\c++\10.2.1\cmath **** #include_next <math.h>
  46:c:\program files\daisytoolchain\arm-none-eabi\include\c++\10.2.1\cmath **** #undef _GLIBCXX_INCLUDE_NEXT_C_HEADERS
  47:c:\program files\daisytoolchain\arm-none-eabi\include\c++\10.2.1\cmath **** #include <bits/std_abs.h>
  48:c:\program files\daisytoolchain\arm-none-eabi\include\c++\10.2.1\cmath **** 
  49:c:\program files\daisytoolchain\arm-none-eabi\include\c++\10.2.1\cmath **** #ifndef _GLIBCXX_CMATH
  50:c:\program files\daisytoolchain\arm-none-eabi\include\c++\10.2.1\cmath **** #define _GLIBCXX_CMATH 1
  51:c:\program files\daisytoolchain\arm-none-eabi\include\c++\10.2.1\cmath **** 
  52:c:\program files\daisytoolchain\arm-none-eabi\include\c++\10.2.1\cmath **** // Get rid of those macros defined in <math.h> in lieu of real functions.
  53:c:\program files\daisytoolchain\arm-none-eabi\include\c++\10.2.1\cmath **** #undef div
  54:c:\program files\daisytoolchain\arm-none-eabi\include\c++\10.2.1\cmath **** #undef acos
  55:c:\program files\daisytoolchain\arm-none-eabi\include\c++\10.2.1\cmath **** #undef asin
  56:c:\program files\daisytoolchain\arm-none-eabi\include\c++\10.2.1\cmath **** #undef atan
  57:c:\program files\daisytoolchain\arm-none-eabi\include\c++\10.2.1\cmath **** #undef atan2
  58:c:\program files\daisytoolchain\arm-none-eabi\include\c++\10.2.1\cmath **** #undef ceil
  59:c:\program files\daisytoolchain\arm-none-eabi\include\c++\10.2.1\cmath **** #undef cos
  60:c:\program files\daisytoolchain\arm-none-eabi\include\c++\10.2.1\cmath **** #undef cosh
  61:c:\program files\daisytoolchain\arm-none-eabi\include\c++\10.2.1\cmath **** #undef exp
  62:c:\program files\daisytoolchain\arm-none-eabi\include\c++\10.2.1\cmath **** #undef fabs
  63:c:\program files\daisytoolchain\arm-none-eabi\include\c++\10.2.1\cmath **** #undef floor
  64:c:\program files\daisytoolchain\arm-none-eabi\include\c++\10.2.1\cmath **** #undef fmod
  65:c:\program files\daisytoolchain\arm-none-eabi\include\c++\10.2.1\cmath **** #undef frexp
  66:c:\program files\daisytoolchain\arm-none-eabi\include\c++\10.2.1\cmath **** #undef ldexp
  67:c:\program files\daisytoolchain\arm-none-eabi\include\c++\10.2.1\cmath **** #undef log
  68:c:\program files\daisytoolchain\arm-none-eabi\include\c++\10.2.1\cmath **** #undef log10
  69:c:\program files\daisytoolchain\arm-none-eabi\include\c++\10.2.1\cmath **** #undef modf
  70:c:\program files\daisytoolchain\arm-none-eabi\include\c++\10.2.1\cmath **** #undef pow
  71:c:\program files\daisytoolchain\arm-none-eabi\include\c++\10.2.1\cmath **** #undef sin
  72:c:\program files\daisytoolchain\arm-none-eabi\include\c++\10.2.1\cmath **** #undef sinh
  73:c:\program files\daisytoolchain\arm-none-eabi\include\c++\10.2.1\cmath **** #undef sqrt
  74:c:\program files\daisytoolchain\arm-none-eabi\include\c++\10.2.1\cmath **** #undef tan
  75:c:\program files\daisytoolchain\arm-none-eabi\include\c++\10.2.1\cmath **** #undef tanh
  76:c:\program files\daisytoolchain\arm-none-eabi\include\c++\10.2.1\cmath **** 
  77:c:\program files\daisytoolchain\arm-none-eabi\include\c++\10.2.1\cmath **** extern "C++"
  78:c:\program files\daisytoolchain\arm-none-eabi\include\c++\10.2.1\cmath **** {
  79:c:\program files\daisytoolchain\arm-none-eabi\include\c++\10.2.1\cmath **** namespace std _GLIBCXX_VISIBILITY(default)
  80:c:\program files\daisytoolchain\arm-none-eabi\include\c++\10.2.1\cmath **** {
  81:c:\program files\daisytoolchain\arm-none-eabi\include\c++\10.2.1\cmath **** _GLIBCXX_BEGIN_NAMESPACE_VERSION
  82:c:\program files\daisytoolchain\arm-none-eabi\include\c++\10.2.1\cmath **** 
  83:c:\program files\daisytoolchain\arm-none-eabi\include\c++\10.2.1\cmath ****   using ::acos;
  84:c:\program files\daisytoolchain\arm-none-eabi\include\c++\10.2.1\cmath **** 
  85:c:\program files\daisytoolchain\arm-none-eabi\include\c++\10.2.1\cmath **** #ifndef __CORRECT_ISO_CPP_MATH_H_PROTO
  86:c:\program files\daisytoolchain\arm-none-eabi\include\c++\10.2.1\cmath ****   inline _GLIBCXX_CONSTEXPR float
  87:c:\program files\daisytoolchain\arm-none-eabi\include\c++\10.2.1\cmath ****   acos(float __x)
  88:c:\program files\daisytoolchain\arm-none-eabi\include\c++\10.2.1\cmath ****   { return __builtin_acosf(__x); }
  89:c:\program files\daisytoolchain\arm-none-eabi\include\c++\10.2.1\cmath **** 
  90:c:\program files\daisytoolchain\arm-none-eabi\include\c++\10.2.1\cmath ****   inline _GLIBCXX_CONSTEXPR long double
  91:c:\program files\daisytoolchain\arm-none-eabi\include\c++\10.2.1\cmath ****   acos(long double __x)
ARM GAS  C:\Users\Miguel\AppData\Local\Temp\ccTW1OPO.s 			page 20


  92:c:\program files\daisytoolchain\arm-none-eabi\include\c++\10.2.1\cmath ****   { return __builtin_acosl(__x); }
  93:c:\program files\daisytoolchain\arm-none-eabi\include\c++\10.2.1\cmath **** #endif
  94:c:\program files\daisytoolchain\arm-none-eabi\include\c++\10.2.1\cmath **** 
  95:c:\program files\daisytoolchain\arm-none-eabi\include\c++\10.2.1\cmath ****   template<typename _Tp>
  96:c:\program files\daisytoolchain\arm-none-eabi\include\c++\10.2.1\cmath ****     inline _GLIBCXX_CONSTEXPR
  97:c:\program files\daisytoolchain\arm-none-eabi\include\c++\10.2.1\cmath ****     typename __gnu_cxx::__enable_if<__is_integer<_Tp>::__value, 
  98:c:\program files\daisytoolchain\arm-none-eabi\include\c++\10.2.1\cmath ****                                     double>::__type
  99:c:\program files\daisytoolchain\arm-none-eabi\include\c++\10.2.1\cmath ****     acos(_Tp __x)
 100:c:\program files\daisytoolchain\arm-none-eabi\include\c++\10.2.1\cmath ****     { return __builtin_acos(__x); }
 101:c:\program files\daisytoolchain\arm-none-eabi\include\c++\10.2.1\cmath **** 
 102:c:\program files\daisytoolchain\arm-none-eabi\include\c++\10.2.1\cmath ****   using ::asin;
 103:c:\program files\daisytoolchain\arm-none-eabi\include\c++\10.2.1\cmath **** 
 104:c:\program files\daisytoolchain\arm-none-eabi\include\c++\10.2.1\cmath **** #ifndef __CORRECT_ISO_CPP_MATH_H_PROTO
 105:c:\program files\daisytoolchain\arm-none-eabi\include\c++\10.2.1\cmath ****   inline _GLIBCXX_CONSTEXPR float
 106:c:\program files\daisytoolchain\arm-none-eabi\include\c++\10.2.1\cmath ****   asin(float __x)
 107:c:\program files\daisytoolchain\arm-none-eabi\include\c++\10.2.1\cmath ****   { return __builtin_asinf(__x); }
 108:c:\program files\daisytoolchain\arm-none-eabi\include\c++\10.2.1\cmath **** 
 109:c:\program files\daisytoolchain\arm-none-eabi\include\c++\10.2.1\cmath ****   inline _GLIBCXX_CONSTEXPR long double
 110:c:\program files\daisytoolchain\arm-none-eabi\include\c++\10.2.1\cmath ****   asin(long double __x)
 111:c:\program files\daisytoolchain\arm-none-eabi\include\c++\10.2.1\cmath ****   { return __builtin_asinl(__x); }
 112:c:\program files\daisytoolchain\arm-none-eabi\include\c++\10.2.1\cmath **** #endif
 113:c:\program files\daisytoolchain\arm-none-eabi\include\c++\10.2.1\cmath **** 
 114:c:\program files\daisytoolchain\arm-none-eabi\include\c++\10.2.1\cmath ****   template<typename _Tp>
 115:c:\program files\daisytoolchain\arm-none-eabi\include\c++\10.2.1\cmath ****     inline _GLIBCXX_CONSTEXPR
 116:c:\program files\daisytoolchain\arm-none-eabi\include\c++\10.2.1\cmath ****     typename __gnu_cxx::__enable_if<__is_integer<_Tp>::__value,
 117:c:\program files\daisytoolchain\arm-none-eabi\include\c++\10.2.1\cmath ****                                     double>::__type
 118:c:\program files\daisytoolchain\arm-none-eabi\include\c++\10.2.1\cmath ****     asin(_Tp __x)
 119:c:\program files\daisytoolchain\arm-none-eabi\include\c++\10.2.1\cmath ****     { return __builtin_asin(__x); }
 120:c:\program files\daisytoolchain\arm-none-eabi\include\c++\10.2.1\cmath **** 
 121:c:\program files\daisytoolchain\arm-none-eabi\include\c++\10.2.1\cmath ****   using ::atan;
 122:c:\program files\daisytoolchain\arm-none-eabi\include\c++\10.2.1\cmath **** 
 123:c:\program files\daisytoolchain\arm-none-eabi\include\c++\10.2.1\cmath **** #ifndef __CORRECT_ISO_CPP_MATH_H_PROTO
 124:c:\program files\daisytoolchain\arm-none-eabi\include\c++\10.2.1\cmath ****   inline _GLIBCXX_CONSTEXPR float
 125:c:\program files\daisytoolchain\arm-none-eabi\include\c++\10.2.1\cmath ****   atan(float __x)
 126:c:\program files\daisytoolchain\arm-none-eabi\include\c++\10.2.1\cmath ****   { return __builtin_atanf(__x); }
 127:c:\program files\daisytoolchain\arm-none-eabi\include\c++\10.2.1\cmath **** 
 128:c:\program files\daisytoolchain\arm-none-eabi\include\c++\10.2.1\cmath ****   inline _GLIBCXX_CONSTEXPR long double
 129:c:\program files\daisytoolchain\arm-none-eabi\include\c++\10.2.1\cmath ****   atan(long double __x)
 130:c:\program files\daisytoolchain\arm-none-eabi\include\c++\10.2.1\cmath ****   { return __builtin_atanl(__x); }
 131:c:\program files\daisytoolchain\arm-none-eabi\include\c++\10.2.1\cmath **** #endif
 132:c:\program files\daisytoolchain\arm-none-eabi\include\c++\10.2.1\cmath **** 
 133:c:\program files\daisytoolchain\arm-none-eabi\include\c++\10.2.1\cmath ****   template<typename _Tp>
 134:c:\program files\daisytoolchain\arm-none-eabi\include\c++\10.2.1\cmath ****     inline _GLIBCXX_CONSTEXPR
 135:c:\program files\daisytoolchain\arm-none-eabi\include\c++\10.2.1\cmath ****     typename __gnu_cxx::__enable_if<__is_integer<_Tp>::__value,
 136:c:\program files\daisytoolchain\arm-none-eabi\include\c++\10.2.1\cmath ****                                     double>::__type
 137:c:\program files\daisytoolchain\arm-none-eabi\include\c++\10.2.1\cmath ****     atan(_Tp __x)
 138:c:\program files\daisytoolchain\arm-none-eabi\include\c++\10.2.1\cmath ****     { return __builtin_atan(__x); }
 139:c:\program files\daisytoolchain\arm-none-eabi\include\c++\10.2.1\cmath **** 
 140:c:\program files\daisytoolchain\arm-none-eabi\include\c++\10.2.1\cmath ****   using ::atan2;
 141:c:\program files\daisytoolchain\arm-none-eabi\include\c++\10.2.1\cmath **** 
 142:c:\program files\daisytoolchain\arm-none-eabi\include\c++\10.2.1\cmath **** #ifndef __CORRECT_ISO_CPP_MATH_H_PROTO
 143:c:\program files\daisytoolchain\arm-none-eabi\include\c++\10.2.1\cmath ****   inline _GLIBCXX_CONSTEXPR float
 144:c:\program files\daisytoolchain\arm-none-eabi\include\c++\10.2.1\cmath ****   atan2(float __y, float __x)
 145:c:\program files\daisytoolchain\arm-none-eabi\include\c++\10.2.1\cmath ****   { return __builtin_atan2f(__y, __x); }
 146:c:\program files\daisytoolchain\arm-none-eabi\include\c++\10.2.1\cmath **** 
 147:c:\program files\daisytoolchain\arm-none-eabi\include\c++\10.2.1\cmath ****   inline _GLIBCXX_CONSTEXPR long double
 148:c:\program files\daisytoolchain\arm-none-eabi\include\c++\10.2.1\cmath ****   atan2(long double __y, long double __x)
ARM GAS  C:\Users\Miguel\AppData\Local\Temp\ccTW1OPO.s 			page 21


 149:c:\program files\daisytoolchain\arm-none-eabi\include\c++\10.2.1\cmath ****   { return __builtin_atan2l(__y, __x); }
 150:c:\program files\daisytoolchain\arm-none-eabi\include\c++\10.2.1\cmath **** #endif
 151:c:\program files\daisytoolchain\arm-none-eabi\include\c++\10.2.1\cmath **** 
 152:c:\program files\daisytoolchain\arm-none-eabi\include\c++\10.2.1\cmath ****   template<typename _Tp, typename _Up>
 153:c:\program files\daisytoolchain\arm-none-eabi\include\c++\10.2.1\cmath ****     inline _GLIBCXX_CONSTEXPR
 154:c:\program files\daisytoolchain\arm-none-eabi\include\c++\10.2.1\cmath ****     typename __gnu_cxx::__promote_2<_Tp, _Up>::__type
 155:c:\program files\daisytoolchain\arm-none-eabi\include\c++\10.2.1\cmath ****     atan2(_Tp __y, _Up __x)
 156:c:\program files\daisytoolchain\arm-none-eabi\include\c++\10.2.1\cmath ****     {
 157:c:\program files\daisytoolchain\arm-none-eabi\include\c++\10.2.1\cmath ****       typedef typename __gnu_cxx::__promote_2<_Tp, _Up>::__type __type;
 158:c:\program files\daisytoolchain\arm-none-eabi\include\c++\10.2.1\cmath ****       return atan2(__type(__y), __type(__x));
 159:c:\program files\daisytoolchain\arm-none-eabi\include\c++\10.2.1\cmath ****     }
 160:c:\program files\daisytoolchain\arm-none-eabi\include\c++\10.2.1\cmath **** 
 161:c:\program files\daisytoolchain\arm-none-eabi\include\c++\10.2.1\cmath ****   using ::ceil;
 162:c:\program files\daisytoolchain\arm-none-eabi\include\c++\10.2.1\cmath **** 
 163:c:\program files\daisytoolchain\arm-none-eabi\include\c++\10.2.1\cmath **** #ifndef __CORRECT_ISO_CPP_MATH_H_PROTO
 164:c:\program files\daisytoolchain\arm-none-eabi\include\c++\10.2.1\cmath ****   inline _GLIBCXX_CONSTEXPR float
 165:c:\program files\daisytoolchain\arm-none-eabi\include\c++\10.2.1\cmath ****   ceil(float __x)
 166:c:\program files\daisytoolchain\arm-none-eabi\include\c++\10.2.1\cmath ****   { return __builtin_ceilf(__x); }
 167:c:\program files\daisytoolchain\arm-none-eabi\include\c++\10.2.1\cmath **** 
 168:c:\program files\daisytoolchain\arm-none-eabi\include\c++\10.2.1\cmath ****   inline _GLIBCXX_CONSTEXPR long double
 169:c:\program files\daisytoolchain\arm-none-eabi\include\c++\10.2.1\cmath ****   ceil(long double __x)
 170:c:\program files\daisytoolchain\arm-none-eabi\include\c++\10.2.1\cmath ****   { return __builtin_ceill(__x); }
 171:c:\program files\daisytoolchain\arm-none-eabi\include\c++\10.2.1\cmath **** #endif
 172:c:\program files\daisytoolchain\arm-none-eabi\include\c++\10.2.1\cmath **** 
 173:c:\program files\daisytoolchain\arm-none-eabi\include\c++\10.2.1\cmath ****   template<typename _Tp>
 174:c:\program files\daisytoolchain\arm-none-eabi\include\c++\10.2.1\cmath ****     inline _GLIBCXX_CONSTEXPR
 175:c:\program files\daisytoolchain\arm-none-eabi\include\c++\10.2.1\cmath ****     typename __gnu_cxx::__enable_if<__is_integer<_Tp>::__value, 
 176:c:\program files\daisytoolchain\arm-none-eabi\include\c++\10.2.1\cmath ****                                     double>::__type
 177:c:\program files\daisytoolchain\arm-none-eabi\include\c++\10.2.1\cmath ****     ceil(_Tp __x)
 178:c:\program files\daisytoolchain\arm-none-eabi\include\c++\10.2.1\cmath ****     { return __builtin_ceil(__x); }
 179:c:\program files\daisytoolchain\arm-none-eabi\include\c++\10.2.1\cmath **** 
 180:c:\program files\daisytoolchain\arm-none-eabi\include\c++\10.2.1\cmath ****   using ::cos;
 181:c:\program files\daisytoolchain\arm-none-eabi\include\c++\10.2.1\cmath **** 
 182:c:\program files\daisytoolchain\arm-none-eabi\include\c++\10.2.1\cmath **** #ifndef __CORRECT_ISO_CPP_MATH_H_PROTO
 183:c:\program files\daisytoolchain\arm-none-eabi\include\c++\10.2.1\cmath ****   inline _GLIBCXX_CONSTEXPR float
 184:c:\program files\daisytoolchain\arm-none-eabi\include\c++\10.2.1\cmath ****   cos(float __x)
 185:c:\program files\daisytoolchain\arm-none-eabi\include\c++\10.2.1\cmath ****   { return __builtin_cosf(__x); }
 186:c:\program files\daisytoolchain\arm-none-eabi\include\c++\10.2.1\cmath **** 
 187:c:\program files\daisytoolchain\arm-none-eabi\include\c++\10.2.1\cmath ****   inline _GLIBCXX_CONSTEXPR long double
 188:c:\program files\daisytoolchain\arm-none-eabi\include\c++\10.2.1\cmath ****   cos(long double __x)
 189:c:\program files\daisytoolchain\arm-none-eabi\include\c++\10.2.1\cmath ****   { return __builtin_cosl(__x); }
 190:c:\program files\daisytoolchain\arm-none-eabi\include\c++\10.2.1\cmath **** #endif
 191:c:\program files\daisytoolchain\arm-none-eabi\include\c++\10.2.1\cmath **** 
 192:c:\program files\daisytoolchain\arm-none-eabi\include\c++\10.2.1\cmath ****   template<typename _Tp>
 193:c:\program files\daisytoolchain\arm-none-eabi\include\c++\10.2.1\cmath ****     inline _GLIBCXX_CONSTEXPR
 194:c:\program files\daisytoolchain\arm-none-eabi\include\c++\10.2.1\cmath ****     typename __gnu_cxx::__enable_if<__is_integer<_Tp>::__value,
 195:c:\program files\daisytoolchain\arm-none-eabi\include\c++\10.2.1\cmath ****                                     double>::__type
 196:c:\program files\daisytoolchain\arm-none-eabi\include\c++\10.2.1\cmath ****     cos(_Tp __x)
 197:c:\program files\daisytoolchain\arm-none-eabi\include\c++\10.2.1\cmath ****     { return __builtin_cos(__x); }
 198:c:\program files\daisytoolchain\arm-none-eabi\include\c++\10.2.1\cmath **** 
 199:c:\program files\daisytoolchain\arm-none-eabi\include\c++\10.2.1\cmath ****   using ::cosh;
 200:c:\program files\daisytoolchain\arm-none-eabi\include\c++\10.2.1\cmath **** 
 201:c:\program files\daisytoolchain\arm-none-eabi\include\c++\10.2.1\cmath **** #ifndef __CORRECT_ISO_CPP_MATH_H_PROTO
 202:c:\program files\daisytoolchain\arm-none-eabi\include\c++\10.2.1\cmath ****   inline _GLIBCXX_CONSTEXPR float
 203:c:\program files\daisytoolchain\arm-none-eabi\include\c++\10.2.1\cmath ****   cosh(float __x)
 204:c:\program files\daisytoolchain\arm-none-eabi\include\c++\10.2.1\cmath ****   { return __builtin_coshf(__x); }
 205:c:\program files\daisytoolchain\arm-none-eabi\include\c++\10.2.1\cmath **** 
ARM GAS  C:\Users\Miguel\AppData\Local\Temp\ccTW1OPO.s 			page 22


 206:c:\program files\daisytoolchain\arm-none-eabi\include\c++\10.2.1\cmath ****   inline _GLIBCXX_CONSTEXPR long double
 207:c:\program files\daisytoolchain\arm-none-eabi\include\c++\10.2.1\cmath ****   cosh(long double __x)
 208:c:\program files\daisytoolchain\arm-none-eabi\include\c++\10.2.1\cmath ****   { return __builtin_coshl(__x); }
 209:c:\program files\daisytoolchain\arm-none-eabi\include\c++\10.2.1\cmath **** #endif
 210:c:\program files\daisytoolchain\arm-none-eabi\include\c++\10.2.1\cmath **** 
 211:c:\program files\daisytoolchain\arm-none-eabi\include\c++\10.2.1\cmath ****   template<typename _Tp>
 212:c:\program files\daisytoolchain\arm-none-eabi\include\c++\10.2.1\cmath ****     inline _GLIBCXX_CONSTEXPR
 213:c:\program files\daisytoolchain\arm-none-eabi\include\c++\10.2.1\cmath ****     typename __gnu_cxx::__enable_if<__is_integer<_Tp>::__value,
 214:c:\program files\daisytoolchain\arm-none-eabi\include\c++\10.2.1\cmath ****                                     double>::__type
 215:c:\program files\daisytoolchain\arm-none-eabi\include\c++\10.2.1\cmath ****     cosh(_Tp __x)
 216:c:\program files\daisytoolchain\arm-none-eabi\include\c++\10.2.1\cmath ****     { return __builtin_cosh(__x); }
 217:c:\program files\daisytoolchain\arm-none-eabi\include\c++\10.2.1\cmath **** 
 218:c:\program files\daisytoolchain\arm-none-eabi\include\c++\10.2.1\cmath ****   using ::exp;
 219:c:\program files\daisytoolchain\arm-none-eabi\include\c++\10.2.1\cmath **** 
 220:c:\program files\daisytoolchain\arm-none-eabi\include\c++\10.2.1\cmath **** #ifndef __CORRECT_ISO_CPP_MATH_H_PROTO
 221:c:\program files\daisytoolchain\arm-none-eabi\include\c++\10.2.1\cmath ****   inline _GLIBCXX_CONSTEXPR float
 222:c:\program files\daisytoolchain\arm-none-eabi\include\c++\10.2.1\cmath ****   exp(float __x)
 223:c:\program files\daisytoolchain\arm-none-eabi\include\c++\10.2.1\cmath ****   { return __builtin_expf(__x); }
 224:c:\program files\daisytoolchain\arm-none-eabi\include\c++\10.2.1\cmath **** 
 225:c:\program files\daisytoolchain\arm-none-eabi\include\c++\10.2.1\cmath ****   inline _GLIBCXX_CONSTEXPR long double
 226:c:\program files\daisytoolchain\arm-none-eabi\include\c++\10.2.1\cmath ****   exp(long double __x)
 227:c:\program files\daisytoolchain\arm-none-eabi\include\c++\10.2.1\cmath ****   { return __builtin_expl(__x); }
 228:c:\program files\daisytoolchain\arm-none-eabi\include\c++\10.2.1\cmath **** #endif
 229:c:\program files\daisytoolchain\arm-none-eabi\include\c++\10.2.1\cmath **** 
 230:c:\program files\daisytoolchain\arm-none-eabi\include\c++\10.2.1\cmath ****   template<typename _Tp>
 231:c:\program files\daisytoolchain\arm-none-eabi\include\c++\10.2.1\cmath ****     inline _GLIBCXX_CONSTEXPR
 232:c:\program files\daisytoolchain\arm-none-eabi\include\c++\10.2.1\cmath ****     typename __gnu_cxx::__enable_if<__is_integer<_Tp>::__value,
 233:c:\program files\daisytoolchain\arm-none-eabi\include\c++\10.2.1\cmath ****                                     double>::__type
 234:c:\program files\daisytoolchain\arm-none-eabi\include\c++\10.2.1\cmath ****     exp(_Tp __x)
 235:c:\program files\daisytoolchain\arm-none-eabi\include\c++\10.2.1\cmath ****     { return __builtin_exp(__x); }
 236:c:\program files\daisytoolchain\arm-none-eabi\include\c++\10.2.1\cmath **** 
 237:c:\program files\daisytoolchain\arm-none-eabi\include\c++\10.2.1\cmath ****   using ::fabs;
 238:c:\program files\daisytoolchain\arm-none-eabi\include\c++\10.2.1\cmath **** 
 239:c:\program files\daisytoolchain\arm-none-eabi\include\c++\10.2.1\cmath **** #ifndef __CORRECT_ISO_CPP_MATH_H_PROTO
 240:c:\program files\daisytoolchain\arm-none-eabi\include\c++\10.2.1\cmath ****   inline _GLIBCXX_CONSTEXPR float
 241:c:\program files\daisytoolchain\arm-none-eabi\include\c++\10.2.1\cmath ****   fabs(float __x)
 242:c:\program files\daisytoolchain\arm-none-eabi\include\c++\10.2.1\cmath ****   { return __builtin_fabsf(__x); }
 243:c:\program files\daisytoolchain\arm-none-eabi\include\c++\10.2.1\cmath **** 
 244:c:\program files\daisytoolchain\arm-none-eabi\include\c++\10.2.1\cmath ****   inline _GLIBCXX_CONSTEXPR long double
 245:c:\program files\daisytoolchain\arm-none-eabi\include\c++\10.2.1\cmath ****   fabs(long double __x)
 246:c:\program files\daisytoolchain\arm-none-eabi\include\c++\10.2.1\cmath ****   { return __builtin_fabsl(__x); }
 247:c:\program files\daisytoolchain\arm-none-eabi\include\c++\10.2.1\cmath **** #endif
 248:c:\program files\daisytoolchain\arm-none-eabi\include\c++\10.2.1\cmath **** 
 249:c:\program files\daisytoolchain\arm-none-eabi\include\c++\10.2.1\cmath ****   template<typename _Tp>
 250:c:\program files\daisytoolchain\arm-none-eabi\include\c++\10.2.1\cmath ****     inline _GLIBCXX_CONSTEXPR
 251:c:\program files\daisytoolchain\arm-none-eabi\include\c++\10.2.1\cmath ****     typename __gnu_cxx::__enable_if<__is_integer<_Tp>::__value,
 252:c:\program files\daisytoolchain\arm-none-eabi\include\c++\10.2.1\cmath ****                                     double>::__type
 253:c:\program files\daisytoolchain\arm-none-eabi\include\c++\10.2.1\cmath ****     fabs(_Tp __x)
 254:c:\program files\daisytoolchain\arm-none-eabi\include\c++\10.2.1\cmath ****     { return __builtin_fabs(__x); }
 255:c:\program files\daisytoolchain\arm-none-eabi\include\c++\10.2.1\cmath **** 
 256:c:\program files\daisytoolchain\arm-none-eabi\include\c++\10.2.1\cmath ****   using ::floor;
 257:c:\program files\daisytoolchain\arm-none-eabi\include\c++\10.2.1\cmath **** 
 258:c:\program files\daisytoolchain\arm-none-eabi\include\c++\10.2.1\cmath **** #ifndef __CORRECT_ISO_CPP_MATH_H_PROTO
 259:c:\program files\daisytoolchain\arm-none-eabi\include\c++\10.2.1\cmath ****   inline _GLIBCXX_CONSTEXPR float
 260:c:\program files\daisytoolchain\arm-none-eabi\include\c++\10.2.1\cmath ****   floor(float __x)
 261:c:\program files\daisytoolchain\arm-none-eabi\include\c++\10.2.1\cmath ****   { return __builtin_floorf(__x); }
 262:c:\program files\daisytoolchain\arm-none-eabi\include\c++\10.2.1\cmath **** 
ARM GAS  C:\Users\Miguel\AppData\Local\Temp\ccTW1OPO.s 			page 23


 263:c:\program files\daisytoolchain\arm-none-eabi\include\c++\10.2.1\cmath ****   inline _GLIBCXX_CONSTEXPR long double
 264:c:\program files\daisytoolchain\arm-none-eabi\include\c++\10.2.1\cmath ****   floor(long double __x)
 265:c:\program files\daisytoolchain\arm-none-eabi\include\c++\10.2.1\cmath ****   { return __builtin_floorl(__x); }
 266:c:\program files\daisytoolchain\arm-none-eabi\include\c++\10.2.1\cmath **** #endif
 267:c:\program files\daisytoolchain\arm-none-eabi\include\c++\10.2.1\cmath **** 
 268:c:\program files\daisytoolchain\arm-none-eabi\include\c++\10.2.1\cmath ****   template<typename _Tp>
 269:c:\program files\daisytoolchain\arm-none-eabi\include\c++\10.2.1\cmath ****     inline _GLIBCXX_CONSTEXPR
 270:c:\program files\daisytoolchain\arm-none-eabi\include\c++\10.2.1\cmath ****     typename __gnu_cxx::__enable_if<__is_integer<_Tp>::__value,
 271:c:\program files\daisytoolchain\arm-none-eabi\include\c++\10.2.1\cmath ****                                     double>::__type
 272:c:\program files\daisytoolchain\arm-none-eabi\include\c++\10.2.1\cmath ****     floor(_Tp __x)
 273:c:\program files\daisytoolchain\arm-none-eabi\include\c++\10.2.1\cmath ****     { return __builtin_floor(__x); }
 274:c:\program files\daisytoolchain\arm-none-eabi\include\c++\10.2.1\cmath **** 
 275:c:\program files\daisytoolchain\arm-none-eabi\include\c++\10.2.1\cmath ****   using ::fmod;
 276:c:\program files\daisytoolchain\arm-none-eabi\include\c++\10.2.1\cmath **** 
 277:c:\program files\daisytoolchain\arm-none-eabi\include\c++\10.2.1\cmath **** #ifndef __CORRECT_ISO_CPP_MATH_H_PROTO
 278:c:\program files\daisytoolchain\arm-none-eabi\include\c++\10.2.1\cmath ****   inline _GLIBCXX_CONSTEXPR float
 279:c:\program files\daisytoolchain\arm-none-eabi\include\c++\10.2.1\cmath ****   fmod(float __x, float __y)
 280:c:\program files\daisytoolchain\arm-none-eabi\include\c++\10.2.1\cmath ****   { return __builtin_fmodf(__x, __y); }
 281:c:\program files\daisytoolchain\arm-none-eabi\include\c++\10.2.1\cmath **** 
 282:c:\program files\daisytoolchain\arm-none-eabi\include\c++\10.2.1\cmath ****   inline _GLIBCXX_CONSTEXPR long double
 283:c:\program files\daisytoolchain\arm-none-eabi\include\c++\10.2.1\cmath ****   fmod(long double __x, long double __y)
 284:c:\program files\daisytoolchain\arm-none-eabi\include\c++\10.2.1\cmath ****   { return __builtin_fmodl(__x, __y); }
 285:c:\program files\daisytoolchain\arm-none-eabi\include\c++\10.2.1\cmath **** #endif
 286:c:\program files\daisytoolchain\arm-none-eabi\include\c++\10.2.1\cmath **** 
 287:c:\program files\daisytoolchain\arm-none-eabi\include\c++\10.2.1\cmath ****   template<typename _Tp, typename _Up>
 288:c:\program files\daisytoolchain\arm-none-eabi\include\c++\10.2.1\cmath ****     inline _GLIBCXX_CONSTEXPR
 289:c:\program files\daisytoolchain\arm-none-eabi\include\c++\10.2.1\cmath ****     typename __gnu_cxx::__promote_2<_Tp, _Up>::__type
 290:c:\program files\daisytoolchain\arm-none-eabi\include\c++\10.2.1\cmath ****     fmod(_Tp __x, _Up __y)
 291:c:\program files\daisytoolchain\arm-none-eabi\include\c++\10.2.1\cmath ****     {
 292:c:\program files\daisytoolchain\arm-none-eabi\include\c++\10.2.1\cmath ****       typedef typename __gnu_cxx::__promote_2<_Tp, _Up>::__type __type;
 293:c:\program files\daisytoolchain\arm-none-eabi\include\c++\10.2.1\cmath ****       return fmod(__type(__x), __type(__y));
 294:c:\program files\daisytoolchain\arm-none-eabi\include\c++\10.2.1\cmath ****     }
 295:c:\program files\daisytoolchain\arm-none-eabi\include\c++\10.2.1\cmath **** 
 296:c:\program files\daisytoolchain\arm-none-eabi\include\c++\10.2.1\cmath ****   using ::frexp;
 297:c:\program files\daisytoolchain\arm-none-eabi\include\c++\10.2.1\cmath **** 
 298:c:\program files\daisytoolchain\arm-none-eabi\include\c++\10.2.1\cmath **** #ifndef __CORRECT_ISO_CPP_MATH_H_PROTO
 299:c:\program files\daisytoolchain\arm-none-eabi\include\c++\10.2.1\cmath ****   inline float
 300:c:\program files\daisytoolchain\arm-none-eabi\include\c++\10.2.1\cmath ****   frexp(float __x, int* __exp)
 301:c:\program files\daisytoolchain\arm-none-eabi\include\c++\10.2.1\cmath ****   { return __builtin_frexpf(__x, __exp); }
 302:c:\program files\daisytoolchain\arm-none-eabi\include\c++\10.2.1\cmath **** 
 303:c:\program files\daisytoolchain\arm-none-eabi\include\c++\10.2.1\cmath ****   inline long double
 304:c:\program files\daisytoolchain\arm-none-eabi\include\c++\10.2.1\cmath ****   frexp(long double __x, int* __exp)
 305:c:\program files\daisytoolchain\arm-none-eabi\include\c++\10.2.1\cmath ****   { return __builtin_frexpl(__x, __exp); }
 306:c:\program files\daisytoolchain\arm-none-eabi\include\c++\10.2.1\cmath **** #endif
 307:c:\program files\daisytoolchain\arm-none-eabi\include\c++\10.2.1\cmath **** 
 308:c:\program files\daisytoolchain\arm-none-eabi\include\c++\10.2.1\cmath ****   template<typename _Tp>
 309:c:\program files\daisytoolchain\arm-none-eabi\include\c++\10.2.1\cmath ****     inline _GLIBCXX_CONSTEXPR
 310:c:\program files\daisytoolchain\arm-none-eabi\include\c++\10.2.1\cmath ****     typename __gnu_cxx::__enable_if<__is_integer<_Tp>::__value, 
 311:c:\program files\daisytoolchain\arm-none-eabi\include\c++\10.2.1\cmath ****                                     double>::__type
 312:c:\program files\daisytoolchain\arm-none-eabi\include\c++\10.2.1\cmath ****     frexp(_Tp __x, int* __exp)
 313:c:\program files\daisytoolchain\arm-none-eabi\include\c++\10.2.1\cmath ****     { return __builtin_frexp(__x, __exp); }
 314:c:\program files\daisytoolchain\arm-none-eabi\include\c++\10.2.1\cmath **** 
 315:c:\program files\daisytoolchain\arm-none-eabi\include\c++\10.2.1\cmath ****   using ::ldexp;
 316:c:\program files\daisytoolchain\arm-none-eabi\include\c++\10.2.1\cmath **** 
 317:c:\program files\daisytoolchain\arm-none-eabi\include\c++\10.2.1\cmath **** #ifndef __CORRECT_ISO_CPP_MATH_H_PROTO
 318:c:\program files\daisytoolchain\arm-none-eabi\include\c++\10.2.1\cmath ****   inline _GLIBCXX_CONSTEXPR float
 319:c:\program files\daisytoolchain\arm-none-eabi\include\c++\10.2.1\cmath ****   ldexp(float __x, int __exp)
ARM GAS  C:\Users\Miguel\AppData\Local\Temp\ccTW1OPO.s 			page 24


 320:c:\program files\daisytoolchain\arm-none-eabi\include\c++\10.2.1\cmath ****   { return __builtin_ldexpf(__x, __exp); }
 321:c:\program files\daisytoolchain\arm-none-eabi\include\c++\10.2.1\cmath **** 
 322:c:\program files\daisytoolchain\arm-none-eabi\include\c++\10.2.1\cmath ****   inline _GLIBCXX_CONSTEXPR long double
 323:c:\program files\daisytoolchain\arm-none-eabi\include\c++\10.2.1\cmath ****   ldexp(long double __x, int __exp)
 324:c:\program files\daisytoolchain\arm-none-eabi\include\c++\10.2.1\cmath ****   { return __builtin_ldexpl(__x, __exp); }
 325:c:\program files\daisytoolchain\arm-none-eabi\include\c++\10.2.1\cmath **** #endif
 326:c:\program files\daisytoolchain\arm-none-eabi\include\c++\10.2.1\cmath **** 
 327:c:\program files\daisytoolchain\arm-none-eabi\include\c++\10.2.1\cmath ****   template<typename _Tp>
 328:c:\program files\daisytoolchain\arm-none-eabi\include\c++\10.2.1\cmath ****     inline _GLIBCXX_CONSTEXPR
 329:c:\program files\daisytoolchain\arm-none-eabi\include\c++\10.2.1\cmath ****     typename __gnu_cxx::__enable_if<__is_integer<_Tp>::__value, 
 330:c:\program files\daisytoolchain\arm-none-eabi\include\c++\10.2.1\cmath ****                                     double>::__type
 331:c:\program files\daisytoolchain\arm-none-eabi\include\c++\10.2.1\cmath ****     ldexp(_Tp __x, int __exp)
 332:c:\program files\daisytoolchain\arm-none-eabi\include\c++\10.2.1\cmath ****     { return __builtin_ldexp(__x, __exp); }
 333:c:\program files\daisytoolchain\arm-none-eabi\include\c++\10.2.1\cmath **** 
 334:c:\program files\daisytoolchain\arm-none-eabi\include\c++\10.2.1\cmath ****   using ::log;
 335:c:\program files\daisytoolchain\arm-none-eabi\include\c++\10.2.1\cmath **** 
 336:c:\program files\daisytoolchain\arm-none-eabi\include\c++\10.2.1\cmath **** #ifndef __CORRECT_ISO_CPP_MATH_H_PROTO
 337:c:\program files\daisytoolchain\arm-none-eabi\include\c++\10.2.1\cmath ****   inline _GLIBCXX_CONSTEXPR float
 338:c:\program files\daisytoolchain\arm-none-eabi\include\c++\10.2.1\cmath ****   log(float __x)
 339:c:\program files\daisytoolchain\arm-none-eabi\include\c++\10.2.1\cmath ****   { return __builtin_logf(__x); }
 340:c:\program files\daisytoolchain\arm-none-eabi\include\c++\10.2.1\cmath **** 
 341:c:\program files\daisytoolchain\arm-none-eabi\include\c++\10.2.1\cmath ****   inline _GLIBCXX_CONSTEXPR long double
 342:c:\program files\daisytoolchain\arm-none-eabi\include\c++\10.2.1\cmath ****   log(long double __x)
 343:c:\program files\daisytoolchain\arm-none-eabi\include\c++\10.2.1\cmath ****   { return __builtin_logl(__x); }
 344:c:\program files\daisytoolchain\arm-none-eabi\include\c++\10.2.1\cmath **** #endif
 345:c:\program files\daisytoolchain\arm-none-eabi\include\c++\10.2.1\cmath **** 
 346:c:\program files\daisytoolchain\arm-none-eabi\include\c++\10.2.1\cmath ****   template<typename _Tp>
 347:c:\program files\daisytoolchain\arm-none-eabi\include\c++\10.2.1\cmath ****     inline _GLIBCXX_CONSTEXPR
 348:c:\program files\daisytoolchain\arm-none-eabi\include\c++\10.2.1\cmath ****     typename __gnu_cxx::__enable_if<__is_integer<_Tp>::__value, 
 349:c:\program files\daisytoolchain\arm-none-eabi\include\c++\10.2.1\cmath ****                                     double>::__type
 350:c:\program files\daisytoolchain\arm-none-eabi\include\c++\10.2.1\cmath ****     log(_Tp __x)
 351:c:\program files\daisytoolchain\arm-none-eabi\include\c++\10.2.1\cmath ****     { return __builtin_log(__x); }
 352:c:\program files\daisytoolchain\arm-none-eabi\include\c++\10.2.1\cmath **** 
 353:c:\program files\daisytoolchain\arm-none-eabi\include\c++\10.2.1\cmath ****   using ::log10;
 354:c:\program files\daisytoolchain\arm-none-eabi\include\c++\10.2.1\cmath **** 
 355:c:\program files\daisytoolchain\arm-none-eabi\include\c++\10.2.1\cmath **** #ifndef __CORRECT_ISO_CPP_MATH_H_PROTO
 356:c:\program files\daisytoolchain\arm-none-eabi\include\c++\10.2.1\cmath ****   inline _GLIBCXX_CONSTEXPR float
 357:c:\program files\daisytoolchain\arm-none-eabi\include\c++\10.2.1\cmath ****   log10(float __x)
 358:c:\program files\daisytoolchain\arm-none-eabi\include\c++\10.2.1\cmath ****   { return __builtin_log10f(__x); }
 359:c:\program files\daisytoolchain\arm-none-eabi\include\c++\10.2.1\cmath **** 
 360:c:\program files\daisytoolchain\arm-none-eabi\include\c++\10.2.1\cmath ****   inline _GLIBCXX_CONSTEXPR long double
 361:c:\program files\daisytoolchain\arm-none-eabi\include\c++\10.2.1\cmath ****   log10(long double __x)
 362:c:\program files\daisytoolchain\arm-none-eabi\include\c++\10.2.1\cmath ****   { return __builtin_log10l(__x); }
 363:c:\program files\daisytoolchain\arm-none-eabi\include\c++\10.2.1\cmath **** #endif
 364:c:\program files\daisytoolchain\arm-none-eabi\include\c++\10.2.1\cmath **** 
 365:c:\program files\daisytoolchain\arm-none-eabi\include\c++\10.2.1\cmath ****   template<typename _Tp>
 366:c:\program files\daisytoolchain\arm-none-eabi\include\c++\10.2.1\cmath ****     inline _GLIBCXX_CONSTEXPR
 367:c:\program files\daisytoolchain\arm-none-eabi\include\c++\10.2.1\cmath ****     typename __gnu_cxx::__enable_if<__is_integer<_Tp>::__value,
 368:c:\program files\daisytoolchain\arm-none-eabi\include\c++\10.2.1\cmath ****                                     double>::__type
 369:c:\program files\daisytoolchain\arm-none-eabi\include\c++\10.2.1\cmath ****     log10(_Tp __x)
 370:c:\program files\daisytoolchain\arm-none-eabi\include\c++\10.2.1\cmath ****     { return __builtin_log10(__x); }
 371:c:\program files\daisytoolchain\arm-none-eabi\include\c++\10.2.1\cmath **** 
 372:c:\program files\daisytoolchain\arm-none-eabi\include\c++\10.2.1\cmath ****   using ::modf;
 373:c:\program files\daisytoolchain\arm-none-eabi\include\c++\10.2.1\cmath **** 
 374:c:\program files\daisytoolchain\arm-none-eabi\include\c++\10.2.1\cmath **** #ifndef __CORRECT_ISO_CPP_MATH_H_PROTO
 375:c:\program files\daisytoolchain\arm-none-eabi\include\c++\10.2.1\cmath ****   inline float
 376:c:\program files\daisytoolchain\arm-none-eabi\include\c++\10.2.1\cmath ****   modf(float __x, float* __iptr)
ARM GAS  C:\Users\Miguel\AppData\Local\Temp\ccTW1OPO.s 			page 25


 377:c:\program files\daisytoolchain\arm-none-eabi\include\c++\10.2.1\cmath ****   { return __builtin_modff(__x, __iptr); }
 378:c:\program files\daisytoolchain\arm-none-eabi\include\c++\10.2.1\cmath **** 
 379:c:\program files\daisytoolchain\arm-none-eabi\include\c++\10.2.1\cmath ****   inline long double
 380:c:\program files\daisytoolchain\arm-none-eabi\include\c++\10.2.1\cmath ****   modf(long double __x, long double* __iptr)
 381:c:\program files\daisytoolchain\arm-none-eabi\include\c++\10.2.1\cmath ****   { return __builtin_modfl(__x, __iptr); }
 382:c:\program files\daisytoolchain\arm-none-eabi\include\c++\10.2.1\cmath **** #endif
 383:c:\program files\daisytoolchain\arm-none-eabi\include\c++\10.2.1\cmath **** 
 384:c:\program files\daisytoolchain\arm-none-eabi\include\c++\10.2.1\cmath ****   using ::pow;
 385:c:\program files\daisytoolchain\arm-none-eabi\include\c++\10.2.1\cmath **** 
 386:c:\program files\daisytoolchain\arm-none-eabi\include\c++\10.2.1\cmath **** #ifndef __CORRECT_ISO_CPP_MATH_H_PROTO
 387:c:\program files\daisytoolchain\arm-none-eabi\include\c++\10.2.1\cmath ****   inline _GLIBCXX_CONSTEXPR float
 388:c:\program files\daisytoolchain\arm-none-eabi\include\c++\10.2.1\cmath ****   pow(float __x, float __y)
 389:c:\program files\daisytoolchain\arm-none-eabi\include\c++\10.2.1\cmath ****   { return __builtin_powf(__x, __y); }
 390:c:\program files\daisytoolchain\arm-none-eabi\include\c++\10.2.1\cmath **** 
 391:c:\program files\daisytoolchain\arm-none-eabi\include\c++\10.2.1\cmath ****   inline _GLIBCXX_CONSTEXPR long double
 392:c:\program files\daisytoolchain\arm-none-eabi\include\c++\10.2.1\cmath ****   pow(long double __x, long double __y)
 393:c:\program files\daisytoolchain\arm-none-eabi\include\c++\10.2.1\cmath ****   { return __builtin_powl(__x, __y); }
 394:c:\program files\daisytoolchain\arm-none-eabi\include\c++\10.2.1\cmath **** 
 395:c:\program files\daisytoolchain\arm-none-eabi\include\c++\10.2.1\cmath **** #if __cplusplus < 201103L
 396:c:\program files\daisytoolchain\arm-none-eabi\include\c++\10.2.1\cmath ****   // _GLIBCXX_RESOLVE_LIB_DEFECTS
 397:c:\program files\daisytoolchain\arm-none-eabi\include\c++\10.2.1\cmath ****   // DR 550. What should the return type of pow(float,int) be?
 398:c:\program files\daisytoolchain\arm-none-eabi\include\c++\10.2.1\cmath ****   inline double
 399:c:\program files\daisytoolchain\arm-none-eabi\include\c++\10.2.1\cmath ****   pow(double __x, int __i)
 400:c:\program files\daisytoolchain\arm-none-eabi\include\c++\10.2.1\cmath ****   { return __builtin_powi(__x, __i); }
 401:c:\program files\daisytoolchain\arm-none-eabi\include\c++\10.2.1\cmath **** 
 402:c:\program files\daisytoolchain\arm-none-eabi\include\c++\10.2.1\cmath ****   inline float
 403:c:\program files\daisytoolchain\arm-none-eabi\include\c++\10.2.1\cmath ****   pow(float __x, int __n)
 404:c:\program files\daisytoolchain\arm-none-eabi\include\c++\10.2.1\cmath ****   { return __builtin_powif(__x, __n); }
 405:c:\program files\daisytoolchain\arm-none-eabi\include\c++\10.2.1\cmath **** 
 406:c:\program files\daisytoolchain\arm-none-eabi\include\c++\10.2.1\cmath ****   inline long double
 407:c:\program files\daisytoolchain\arm-none-eabi\include\c++\10.2.1\cmath ****   pow(long double __x, int __n)
 408:c:\program files\daisytoolchain\arm-none-eabi\include\c++\10.2.1\cmath ****   { return __builtin_powil(__x, __n); }
 409:c:\program files\daisytoolchain\arm-none-eabi\include\c++\10.2.1\cmath **** #endif
 410:c:\program files\daisytoolchain\arm-none-eabi\include\c++\10.2.1\cmath **** #endif
 411:c:\program files\daisytoolchain\arm-none-eabi\include\c++\10.2.1\cmath **** 
 412:c:\program files\daisytoolchain\arm-none-eabi\include\c++\10.2.1\cmath ****   template<typename _Tp, typename _Up>
 413:c:\program files\daisytoolchain\arm-none-eabi\include\c++\10.2.1\cmath ****     inline _GLIBCXX_CONSTEXPR
 414:c:\program files\daisytoolchain\arm-none-eabi\include\c++\10.2.1\cmath ****     typename __gnu_cxx::__promote_2<_Tp, _Up>::__type
 415:c:\program files\daisytoolchain\arm-none-eabi\include\c++\10.2.1\cmath ****     pow(_Tp __x, _Up __y)
 327              		.loc 13 415 5 view .LVU41
 328              	.LBE190:
 329              	.LBE193:
 330              	.LBE195:
 331              		.loc 12 76 9 is_stmt 0 view .LVU42
 332 003c 9FED864A 		vldr.32	s8, .L31+32
 333              	.LBB196:
 334              	.LBB194:
  27:oscillator.cpp ****     
 335              		.loc 12 27 11 view .LVU43
 336 0040 88EEA45A 		vdiv.f32	s10, s17, s9
  30:oscillator.cpp ****     
 337              		.loc 12 30 75 view .LVU44
 338 0044 9FED7C6B 		vldr.64	d6, .L31
 339              	.LBB192:
 340              	.LBB191:
 416:c:\program files\daisytoolchain\arm-none-eabi\include\c++\10.2.1\cmath ****     {
 417:c:\program files\daisytoolchain\arm-none-eabi\include\c++\10.2.1\cmath ****       typedef typename __gnu_cxx::__promote_2<_Tp, _Up>::__type __type;
ARM GAS  C:\Users\Miguel\AppData\Local\Temp\ccTW1OPO.s 			page 26


 418:c:\program files\daisytoolchain\arm-none-eabi\include\c++\10.2.1\cmath ****       return pow(__type(__x), __type(__y));
 341              		.loc 13 418 17 view .LVU45
 342 0048 B7EEC55A 		vcvt.f64.f32	d5, s10
 343              	.LVL12:
 344              		.loc 13 418 17 view .LVU46
 345              	.LBE191:
 346              	.LBE192:
  30:oscillator.cpp ****     
 347              		.loc 12 30 75 view .LVU47
 348 004c A5EE056B 		vfma.f64	d6, d5, d5
  30:oscillator.cpp ****     
 349              		.loc 12 30 77 view .LVU48
 350 0050 B7EEC67B 		vcvt.f32.f64	s14, d6
 351              	.LVL13:
  32:oscillator.cpp **** }
 352              		.loc 12 32 5 is_stmt 1 view .LVU49
  32:oscillator.cpp **** }
 353              		.loc 12 32 5 is_stmt 0 view .LVU50
 354              	.LBE194:
 355              	.LBE196:
 356              		.loc 12 76 9 view .LVU51
 357 0054 B4EEC47A 		vcmpe.f32	s14, s8
 358 0058 F1EE10FA 		vmrs	APSR_nzcv, FPSCR
 359 005c 40F1BF80 		bpl	.L24
  77:oscillator.cpp ****         {    
  78:oscillator.cpp ****             out[LEFT]  = osc_out;
 360              		.loc 12 78 13 is_stmt 1 view .LVU52
 361              	.LBE225:
 362              	.LBE182:
  50:oscillator.cpp ****     {
 363              		.loc 12 50 35 is_stmt 0 view .LVU53
 364 0060 0236     		adds	r6, r6, #2
 365              	.LVL14:
 366              	.LBB294:
 367              	.LBB226:
 368              		.loc 12 78 24 view .LVU54
 369 0062 07ED018A 		vstr.32	s16, [r7, #-4]
  79:oscillator.cpp ****             out[RIGHT] = osc_out;
 370              		.loc 12 79 13 is_stmt 1 view .LVU55
 371              	.LBE226:
 372              	.LBE294:
  50:oscillator.cpp ****     {
 373              		.loc 12 50 25 is_stmt 0 view .LVU56
 374 0066 0834     		adds	r4, r4, #8
 375              	.LBB295:
 376              	.LBB227:
 377              		.loc 12 79 24 view .LVU57
 378 0068 04ED018A 		vstr.32	s16, [r4, #-4]
 379              	.LBE227:
 380              	.LBE295:
  50:oscillator.cpp ****     {
 381              		.loc 12 50 5 is_stmt 1 view .LVU58
 382              	.LVL15:
  50:oscillator.cpp ****     {
 383              		.loc 12 50 25 view .LVU59
 384 006c B145     		cmp	r9, r6
 385 006e 07F10807 		add	r7, r7, #8
ARM GAS  C:\Users\Miguel\AppData\Local\Temp\ccTW1OPO.s 			page 27


 386 0072 40F2DB80 		bls	.L29
 387              	.LVL16:
 388              	.L17:
 389              	.LBB296:
  52:oscillator.cpp ****         {
 390              		.loc 12 52 9 view .LVU60
  52:oscillator.cpp ****         {
 391              		.loc 12 52 24 is_stmt 0 view .LVU61
 392 0076 7948     		ldr	r0, .L31+36
 393 0078 FFF7FEFF 		bl	_ZN7daisysp5Metro7ProcessEv
 394              	.LVL17:
  52:oscillator.cpp ****         {
 395              		.loc 12 52 9 view .LVU62
 396 007c 28B1     		cbz	r0, .L11
  54:oscillator.cpp ****         }
 397              		.loc 12 54 13 is_stmt 1 view .LVU63
  54:oscillator.cpp ****         }
 398              		.loc 12 54 20 is_stmt 0 view .LVU64
 399 007e 98F80030 		ldrb	r3, [r8]	@ zero_extendqisi2
 400 0082 83F00103 		eor	r3, r3, #1
  54:oscillator.cpp ****         }
 401              		.loc 12 54 18 view .LVU65
 402 0086 88F80030 		strb	r3, [r8]
 403              	.L11:
  57:oscillator.cpp ****         float knobAmplitude = hw.adc.GetFloat(0);
 404              		.loc 12 57 9 is_stmt 1 view .LVU66
  57:oscillator.cpp ****         float knobAmplitude = hw.adc.GetFloat(0);
 405              		.loc 12 57 46 is_stmt 0 view .LVU67
 406 008a 0121     		movs	r1, #1
 407 008c 7448     		ldr	r0, .L31+40
 408 008e FFF7FEFF 		bl	_ZNK5daisy9AdcHandle8GetFloatEh
 409              	.LVL18:
  58:oscillator.cpp ****         float knobTickFrequency = hw.adc.Get(2);
 410              		.loc 12 58 46 view .LVU68
 411 0092 0021     		movs	r1, #0
 412 0094 7248     		ldr	r0, .L31+40
  57:oscillator.cpp ****         float knobAmplitude = hw.adc.GetFloat(0);
 413              		.loc 12 57 46 view .LVU69
 414 0096 B0EE408A 		vmov.f32	s16, s0
 415              	.LVL19:
  58:oscillator.cpp ****         float knobTickFrequency = hw.adc.Get(2);
 416              		.loc 12 58 9 is_stmt 1 view .LVU70
  58:oscillator.cpp ****         float knobTickFrequency = hw.adc.Get(2);
 417              		.loc 12 58 46 is_stmt 0 view .LVU71
 418 009a FFF7FEFF 		bl	_ZNK5daisy9AdcHandle8GetFloatEh
 419              	.LVL20:
  59:oscillator.cpp ****         float knobAttack = hw.adc.Get(3);
 420              		.loc 12 59 45 view .LVU72
 421 009e 0221     		movs	r1, #2
 422 00a0 6F48     		ldr	r0, .L31+40
  58:oscillator.cpp ****         float knobTickFrequency = hw.adc.Get(2);
 423              		.loc 12 58 46 view .LVU73
 424 00a2 F0EE40EA 		vmov.f32	s29, s0
 425              	.LVL21:
  59:oscillator.cpp ****         float knobAttack = hw.adc.Get(3);
 426              		.loc 12 59 9 is_stmt 1 view .LVU74
  59:oscillator.cpp ****         float knobAttack = hw.adc.Get(3);
ARM GAS  C:\Users\Miguel\AppData\Local\Temp\ccTW1OPO.s 			page 28


 427              		.loc 12 59 45 is_stmt 0 view .LVU75
 428 00a6 FFF7FEFF 		bl	_ZNK5daisy9AdcHandle3GetEh
 429              	.LVL22:
  59:oscillator.cpp ****         float knobAttack = hw.adc.Get(3);
 430              		.loc 12 59 45 view .LVU76
 431 00aa 0346     		mov	r3, r0
  60:oscillator.cpp ****         float knobDecay = hw.adc.Get(4);
 432              		.loc 12 60 38 view .LVU77
 433 00ac 0321     		movs	r1, #3
 434 00ae 6C48     		ldr	r0, .L31+40
  59:oscillator.cpp ****         float knobAttack = hw.adc.Get(3);
 435              		.loc 12 59 45 view .LVU78
 436 00b0 0EEE103A 		vmov	s28, r3	@ int
 437              	.LVL23:
  60:oscillator.cpp ****         float knobDecay = hw.adc.Get(4);
 438              		.loc 12 60 9 is_stmt 1 view .LVU79
  60:oscillator.cpp ****         float knobDecay = hw.adc.Get(4);
 439              		.loc 12 60 38 is_stmt 0 view .LVU80
 440 00b4 FFF7FEFF 		bl	_ZNK5daisy9AdcHandle3GetEh
 441              	.LVL24:
 442 00b8 0346     		mov	r3, r0
  61:oscillator.cpp ****         float knobSustain = hw.adc.Get(5);
 443              		.loc 12 61 37 view .LVU81
 444 00ba 0421     		movs	r1, #4
 445 00bc 6848     		ldr	r0, .L31+40
 446              	.LBB228:
 447              	.LBB229:
 448              	.LBB230:
 449              		.file 14 "../../../DaisySP/Source/Utility/dsp.h"
   1:../../../DaisySP/Source/Utility/dsp.h **** /*
   2:../../../DaisySP/Source/Utility/dsp.h **** Copyright (c) 2020 Electrosmith, Corp, Emilie Gillet
   3:../../../DaisySP/Source/Utility/dsp.h **** 
   4:../../../DaisySP/Source/Utility/dsp.h **** Use of this source code is governed by an MIT-style
   5:../../../DaisySP/Source/Utility/dsp.h **** license that can be found in the LICENSE file or at
   6:../../../DaisySP/Source/Utility/dsp.h **** https://opensource.org/licenses/MIT.
   7:../../../DaisySP/Source/Utility/dsp.h **** */
   8:../../../DaisySP/Source/Utility/dsp.h **** 
   9:../../../DaisySP/Source/Utility/dsp.h **** /** Helpful defines, functions, and other utilities for use in/with daisysp modules.
  10:../../../DaisySP/Source/Utility/dsp.h **** */
  11:../../../DaisySP/Source/Utility/dsp.h **** #pragma once
  12:../../../DaisySP/Source/Utility/dsp.h **** #ifndef DSY_CORE_DSP
  13:../../../DaisySP/Source/Utility/dsp.h **** #define DSY_CORE_DSP
  14:../../../DaisySP/Source/Utility/dsp.h **** #include <cassert>
  15:../../../DaisySP/Source/Utility/dsp.h **** #include <cstdint>
  16:../../../DaisySP/Source/Utility/dsp.h **** #include <random>
  17:../../../DaisySP/Source/Utility/dsp.h **** #include <cmath>
  18:../../../DaisySP/Source/Utility/dsp.h **** 
  19:../../../DaisySP/Source/Utility/dsp.h **** /** PIs
  20:../../../DaisySP/Source/Utility/dsp.h **** */
  21:../../../DaisySP/Source/Utility/dsp.h **** #define PI_F 3.1415927410125732421875f
  22:../../../DaisySP/Source/Utility/dsp.h **** #define TWOPI_F (2.0f * PI_F)
  23:../../../DaisySP/Source/Utility/dsp.h **** #define HALFPI_F (PI_F * 0.5f)
  24:../../../DaisySP/Source/Utility/dsp.h **** #define DSY_MIN(in, mn) (in < mn ? in : mn)
  25:../../../DaisySP/Source/Utility/dsp.h **** #define DSY_MAX(in, mx) (in > mx ? in : mx)
  26:../../../DaisySP/Source/Utility/dsp.h **** #define DSY_CLAMP(in, mn, mx) (DSY_MIN(DSY_MAX(in, mn), mx))
  27:../../../DaisySP/Source/Utility/dsp.h **** #define DSY_COUNTOF(_arr) (sizeof(_arr) / sizeof(_arr[0]))
  28:../../../DaisySP/Source/Utility/dsp.h **** 
ARM GAS  C:\Users\Miguel\AppData\Local\Temp\ccTW1OPO.s 			page 29


  29:../../../DaisySP/Source/Utility/dsp.h **** namespace daisysp
  30:../../../DaisySP/Source/Utility/dsp.h **** {
  31:../../../DaisySP/Source/Utility/dsp.h **** //Avoids division for random floats. e.g. rand() * kRandFrac
  32:../../../DaisySP/Source/Utility/dsp.h **** static constexpr float kRandFrac = 1.f / (float)RAND_MAX;
  33:../../../DaisySP/Source/Utility/dsp.h **** 
  34:../../../DaisySP/Source/Utility/dsp.h **** //Convert from semitones to other units. e.g. 2 ^ (kOneTwelfth * x)
  35:../../../DaisySP/Source/Utility/dsp.h **** static constexpr float kOneTwelfth = 1.f / 12.f;
  36:../../../DaisySP/Source/Utility/dsp.h **** 
  37:../../../DaisySP/Source/Utility/dsp.h **** /** efficient floating point min/max
  38:../../../DaisySP/Source/Utility/dsp.h **** c/o stephen mccaul
  39:../../../DaisySP/Source/Utility/dsp.h **** */
  40:../../../DaisySP/Source/Utility/dsp.h **** inline float fmax(float a, float b)
  41:../../../DaisySP/Source/Utility/dsp.h **** {
  42:../../../DaisySP/Source/Utility/dsp.h ****     float r;
  43:../../../DaisySP/Source/Utility/dsp.h **** #ifdef __arm__
  44:../../../DaisySP/Source/Utility/dsp.h ****     asm("vmaxnm.f32 %[d], %[n], %[m]" : [d] "=t"(r) : [n] "t"(a), [m] "t"(b) :);
  45:../../../DaisySP/Source/Utility/dsp.h **** #else
  46:../../../DaisySP/Source/Utility/dsp.h ****     r = (a > b) ? a : b;
  47:../../../DaisySP/Source/Utility/dsp.h **** #endif // __arm__
  48:../../../DaisySP/Source/Utility/dsp.h ****     return r;
  49:../../../DaisySP/Source/Utility/dsp.h **** }
  50:../../../DaisySP/Source/Utility/dsp.h **** 
  51:../../../DaisySP/Source/Utility/dsp.h **** inline float fmin(float a, float b)
  52:../../../DaisySP/Source/Utility/dsp.h **** {
  53:../../../DaisySP/Source/Utility/dsp.h ****     float r;
  54:../../../DaisySP/Source/Utility/dsp.h **** #ifdef __arm__
  55:../../../DaisySP/Source/Utility/dsp.h ****     asm("vminnm.f32 %[d], %[n], %[m]" : [d] "=t"(r) : [n] "t"(a), [m] "t"(b) :);
 450              		.loc 14 55 5 view .LVU82
 451 00be F7EE00AA 		vmov.f32	s21, #1.0e+0
 452              	.LBE230:
 453              	.LBE229:
 454              	.LBE228:
  60:oscillator.cpp ****         float knobDecay = hw.adc.Get(4);
 455              		.loc 12 60 38 view .LVU83
 456 00c2 0DEE903A 		vmov	s27, r3	@ int
 457              	.LVL25:
  61:oscillator.cpp ****         float knobSustain = hw.adc.Get(5);
 458              		.loc 12 61 9 is_stmt 1 view .LVU84
  61:oscillator.cpp ****         float knobSustain = hw.adc.Get(5);
 459              		.loc 12 61 37 is_stmt 0 view .LVU85
 460 00c6 FFF7FEFF 		bl	_ZNK5daisy9AdcHandle3GetEh
 461              	.LVL26:
 462 00ca 0346     		mov	r3, r0
  62:oscillator.cpp ****         float knobVerbVolume = hw.adc.Get(6);
 463              		.loc 12 62 39 view .LVU86
 464 00cc 0521     		movs	r1, #5
 465 00ce 6448     		ldr	r0, .L31+40
 466              	.LBB239:
 467              	.LBB240:
  30:oscillator.cpp ****     
 468              		.loc 12 30 75 view .LVU87
 469 00d0 B7EE009B 		vmov.f64	d9, #1.0e+0
 470              	.LBE240:
 471              	.LBE239:
  61:oscillator.cpp ****         float knobSustain = hw.adc.Get(5);
 472              		.loc 12 61 37 view .LVU88
 473 00d4 0DEE103A 		vmov	s26, r3	@ int
ARM GAS  C:\Users\Miguel\AppData\Local\Temp\ccTW1OPO.s 			page 30


 474              	.LVL27:
  62:oscillator.cpp ****         float knobVerbVolume = hw.adc.Get(6);
 475              		.loc 12 62 9 is_stmt 1 view .LVU89
  62:oscillator.cpp ****         float knobVerbVolume = hw.adc.Get(6);
 476              		.loc 12 62 39 is_stmt 0 view .LVU90
 477 00d8 FFF7FEFF 		bl	_ZNK5daisy9AdcHandle3GetEh
 478              	.LVL28:
 479 00dc 0346     		mov	r3, r0
  63:oscillator.cpp ****         float knobVerbFrequence = hw.adc.Get(7);
 480              		.loc 12 63 42 view .LVU91
 481 00de 0621     		movs	r1, #6
 482 00e0 5F48     		ldr	r0, .L31+40
 483              	.LBB249:
 484              	.LBB243:
  30:oscillator.cpp ****     
 485              		.loc 12 30 75 view .LVU92
 486 00e2 B1EE00BB 		vmov.f64	d11, #4.0e+0
 487              	.LBE243:
 488              	.LBE249:
  62:oscillator.cpp ****         float knobVerbVolume = hw.adc.Get(6);
 489              		.loc 12 62 39 view .LVU93
 490 00e6 0CEE903A 		vmov	s25, r3	@ int
 491              	.LVL29:
  63:oscillator.cpp ****         float knobVerbFrequence = hw.adc.Get(7);
 492              		.loc 12 63 9 is_stmt 1 view .LVU94
  63:oscillator.cpp ****         float knobVerbFrequence = hw.adc.Get(7);
 493              		.loc 12 63 42 is_stmt 0 view .LVU95
 494 00ea FFF7FEFF 		bl	_ZNK5daisy9AdcHandle3GetEh
 495              	.LVL30:
 496 00ee 0346     		mov	r3, r0
  64:oscillator.cpp ****         
 497              		.loc 12 64 45 view .LVU96
 498 00f0 0721     		movs	r1, #7
 499 00f2 5B48     		ldr	r0, .L31+40
  63:oscillator.cpp ****         float knobVerbFrequence = hw.adc.Get(7);
 500              		.loc 12 63 42 view .LVU97
 501 00f4 08EE903A 		vmov	s17, r3	@ int
 502              	.LVL31:
  64:oscillator.cpp ****         
 503              		.loc 12 64 9 is_stmt 1 view .LVU98
  64:oscillator.cpp ****         
 504              		.loc 12 64 45 is_stmt 0 view .LVU99
 505 00f8 FFF7FEFF 		bl	_ZNK5daisy9AdcHandle3GetEh
 506              	.LVL32:
 507 00fc 0346     		mov	r3, r0
  66:oscillator.cpp ****         osc_out = osc.Process();
 508              		.loc 12 66 30 view .LVU100
 509 00fe 98F80010 		ldrb	r1, [r8]	@ zero_extendqisi2
 510 0102 5848     		ldr	r0, .L31+44
  64:oscillator.cpp ****         
 511              		.loc 12 64 45 view .LVU101
 512 0104 0393     		str	r3, [sp, #12]
 513              	.LVL33:
  66:oscillator.cpp ****         osc_out = osc.Process();
 514              		.loc 12 66 9 is_stmt 1 view .LVU102
  66:oscillator.cpp ****         osc_out = osc.Process();
 515              		.loc 12 66 30 is_stmt 0 view .LVU103
ARM GAS  C:\Users\Miguel\AppData\Local\Temp\ccTW1OPO.s 			page 31


 516 0106 FFF7FEFF 		bl	_ZN7daisysp4Adsr7ProcessEb
 517              	.LVL34:
  67:oscillator.cpp **** 
 518              		.loc 12 67 30 view .LVU104
 519 010a 5148     		ldr	r0, .L31+24
  66:oscillator.cpp ****         osc_out = osc.Process();
 520              		.loc 12 66 30 view .LVU105
 521 010c B0EE40AA 		vmov.f32	s20, s0
 522              	.LVL35:
  67:oscillator.cpp **** 
 523              		.loc 12 67 9 is_stmt 1 view .LVU106
  67:oscillator.cpp **** 
 524              		.loc 12 67 30 is_stmt 0 view .LVU107
 525 0110 FFF7FEFF 		bl	_ZN7daisysp10Oscillator7ProcessEv
 526              	.LVL36:
  67:oscillator.cpp **** 
 527              		.loc 12 67 30 view .LVU108
 528 0114 F3EE087A 		vmov.f32	s15, #2.4e+1
 529 0118 9FED537A 		vldr.32	s14, .L31+48
 530              	.LBB250:
 531              	.LBB233:
 532              	.LBB234:
  44:../../../DaisySP/Source/Utility/dsp.h **** #else
 533              		.loc 14 44 5 view .LVU109
 534 011c DFED536A 		vldr.32	s13, .L31+52
 535              		.syntax unified
 536              	@ 44 "../../../DaisySP/Source/Utility/dsp.h" 1
 537 0120 88FE268A 		vmaxnm.f32 s16, s16, s13
 538              	@ 0 "" 2
 539              	.LVL37:
  44:../../../DaisySP/Source/Utility/dsp.h **** #else
 540              		.loc 14 44 5 view .LVU110
 541              		.thumb
 542              		.syntax unified
 543              	.LBE234:
 544              	.LBE233:
 545              	.LBB236:
 546              	.LBB231:
 547              		.loc 14 55 5 view .LVU111
 548              		.syntax unified
 549              	@ 55 "../../../DaisySP/Source/Utility/dsp.h" 1
 550 0124 88FE6A8A 		vminnm.f32 s16, s16, s21
 551              	@ 0 "" 2
 552              		.thumb
 553              		.syntax unified
 554 0128 E8EE077A 		vfma.f32	s15, s16, s14
 555              	.LBE231:
 556              	.LBE236:
 557              	.LBE250:
 558              	.LBB251:
 559              	.LBB252:
  25:../../../DaisySP/Source/Synthesis/oscillator.h ****     /** Choices for output waveforms, POLYBLEP are appropriately labeled. Others are naive forms.
  26:../../../DaisySP/Source/Synthesis/oscillator.h ****     */
  27:../../../DaisySP/Source/Synthesis/oscillator.h ****     enum
  28:../../../DaisySP/Source/Synthesis/oscillator.h ****     {
  29:../../../DaisySP/Source/Synthesis/oscillator.h ****         WAVE_SIN,
  30:../../../DaisySP/Source/Synthesis/oscillator.h ****         WAVE_TRI,
ARM GAS  C:\Users\Miguel\AppData\Local\Temp\ccTW1OPO.s 			page 32


  31:../../../DaisySP/Source/Synthesis/oscillator.h ****         WAVE_SAW,
  32:../../../DaisySP/Source/Synthesis/oscillator.h ****         WAVE_RAMP,
  33:../../../DaisySP/Source/Synthesis/oscillator.h ****         WAVE_SQUARE,
  34:../../../DaisySP/Source/Synthesis/oscillator.h ****         WAVE_POLYBLEP_TRI,
  35:../../../DaisySP/Source/Synthesis/oscillator.h ****         WAVE_POLYBLEP_SAW,
  36:../../../DaisySP/Source/Synthesis/oscillator.h ****         WAVE_POLYBLEP_SQUARE,
  37:../../../DaisySP/Source/Synthesis/oscillator.h ****         WAVE_LAST,
  38:../../../DaisySP/Source/Synthesis/oscillator.h ****     };
  39:../../../DaisySP/Source/Synthesis/oscillator.h **** 
  40:../../../DaisySP/Source/Synthesis/oscillator.h **** 
  41:../../../DaisySP/Source/Synthesis/oscillator.h ****     /** Initializes the Oscillator
  42:../../../DaisySP/Source/Synthesis/oscillator.h **** 
  43:../../../DaisySP/Source/Synthesis/oscillator.h ****         \param sample_rate - sample rate of the audio engine being run, and the frequency that the 
  44:../../../DaisySP/Source/Synthesis/oscillator.h **** 
  45:../../../DaisySP/Source/Synthesis/oscillator.h ****         Defaults:
  46:../../../DaisySP/Source/Synthesis/oscillator.h ****         - freq_ = 100 Hz
  47:../../../DaisySP/Source/Synthesis/oscillator.h ****         - amp_ = 0.5
  48:../../../DaisySP/Source/Synthesis/oscillator.h ****         - waveform_ = sine wave.
  49:../../../DaisySP/Source/Synthesis/oscillator.h ****     */
  50:../../../DaisySP/Source/Synthesis/oscillator.h ****     void Init(float sample_rate)
  51:../../../DaisySP/Source/Synthesis/oscillator.h ****     {
  52:../../../DaisySP/Source/Synthesis/oscillator.h ****         sr_        = sample_rate;
  53:../../../DaisySP/Source/Synthesis/oscillator.h ****         sr_recip_  = 1.0f / sample_rate;
  54:../../../DaisySP/Source/Synthesis/oscillator.h ****         freq_      = 100.0f;
  55:../../../DaisySP/Source/Synthesis/oscillator.h ****         amp_       = 0.5f;
  56:../../../DaisySP/Source/Synthesis/oscillator.h ****         pw_        = 0.5f;
  57:../../../DaisySP/Source/Synthesis/oscillator.h ****         phase_     = 0.0f;
  58:../../../DaisySP/Source/Synthesis/oscillator.h ****         phase_inc_ = CalcPhaseInc(freq_);
  59:../../../DaisySP/Source/Synthesis/oscillator.h ****         waveform_  = WAVE_SIN;
  60:../../../DaisySP/Source/Synthesis/oscillator.h ****         eoc_       = true;
  61:../../../DaisySP/Source/Synthesis/oscillator.h ****         eor_       = true;
  62:../../../DaisySP/Source/Synthesis/oscillator.h ****     }
  63:../../../DaisySP/Source/Synthesis/oscillator.h **** 
  64:../../../DaisySP/Source/Synthesis/oscillator.h **** 
  65:../../../DaisySP/Source/Synthesis/oscillator.h ****     /** Changes the frequency of the Oscillator, and recalculates phase increment.
  66:../../../DaisySP/Source/Synthesis/oscillator.h ****     */
  67:../../../DaisySP/Source/Synthesis/oscillator.h ****     inline void SetFreq(const float f)
  68:../../../DaisySP/Source/Synthesis/oscillator.h ****     {
  69:../../../DaisySP/Source/Synthesis/oscillator.h ****         freq_      = f;
  70:../../../DaisySP/Source/Synthesis/oscillator.h ****         phase_inc_ = CalcPhaseInc(f);
 560              		.loc 2 70 34 view .LVU112
 561 012c 4848     		ldr	r0, .L31+24
 562              	.LBE252:
 563              	.LBE251:
  67:oscillator.cpp **** 
 564              		.loc 12 67 30 view .LVU113
 565 012e B0EE408A 		vmov.f32	s16, s0
 566              	.LVL38:
  69:oscillator.cpp ****         osc.SetAmp(env_out * knobAmplitude);
 567              		.loc 12 69 9 is_stmt 1 view .LVU114
 568              	.LBB256:
 569              	.LBI228:
  56:../../../DaisySP/Source/Utility/dsp.h **** #else
  57:../../../DaisySP/Source/Utility/dsp.h ****     r = (a < b) ? a : b;
  58:../../../DaisySP/Source/Utility/dsp.h **** #endif // __arm__
  59:../../../DaisySP/Source/Utility/dsp.h ****     return r;
  60:../../../DaisySP/Source/Utility/dsp.h **** }
ARM GAS  C:\Users\Miguel\AppData\Local\Temp\ccTW1OPO.s 			page 33


  61:../../../DaisySP/Source/Utility/dsp.h **** 
  62:../../../DaisySP/Source/Utility/dsp.h **** /** quick fp clamp
  63:../../../DaisySP/Source/Utility/dsp.h **** */
  64:../../../DaisySP/Source/Utility/dsp.h **** inline float fclamp(float in, float min, float max)
 570              		.loc 14 64 14 view .LVU115
 571              	.LBE256:
 572              	.LBE296:
 573              	.LBE302:
  65:../../../DaisySP/Source/Utility/dsp.h **** {
  66:../../../DaisySP/Source/Utility/dsp.h ****     return fmin(fmax(in, min), max);
 574              		.loc 14 66 5 view .LVU116
 575              	.LBB303:
 576              	.LBB297:
 577              	.LBB257:
 578              	.LBB237:
 579              	.LBI233:
  40:../../../DaisySP/Source/Utility/dsp.h **** {
 580              		.loc 14 40 14 view .LVU117
 581              	.LBB235:
  42:../../../DaisySP/Source/Utility/dsp.h **** #ifdef __arm__
 582              		.loc 14 42 5 view .LVU118
  44:../../../DaisySP/Source/Utility/dsp.h **** #else
 583              		.loc 14 44 5 view .LVU119
  48:../../../DaisySP/Source/Utility/dsp.h **** }
 584              		.loc 14 48 5 view .LVU120
  48:../../../DaisySP/Source/Utility/dsp.h **** }
 585              		.loc 14 48 5 is_stmt 0 view .LVU121
 586              	.LBE235:
 587              	.LBE237:
 588              	.LBB238:
 589              	.LBI229:
  51:../../../DaisySP/Source/Utility/dsp.h **** {
 590              		.loc 14 51 14 is_stmt 1 view .LVU122
 591              	.LBB232:
  53:../../../DaisySP/Source/Utility/dsp.h **** #ifdef __arm__
 592              		.loc 14 53 5 view .LVU123
  55:../../../DaisySP/Source/Utility/dsp.h **** #else
 593              		.loc 14 55 5 view .LVU124
  59:../../../DaisySP/Source/Utility/dsp.h **** }
 594              		.loc 14 59 5 view .LVU125
  59:../../../DaisySP/Source/Utility/dsp.h **** }
 595              		.loc 14 59 5 is_stmt 0 view .LVU126
 596              	.LBE232:
 597              	.LBE238:
 598              	.LBE257:
 599              	.LBB258:
 600              	.LBI251:
  67:../../../DaisySP/Source/Synthesis/oscillator.h ****     {
 601              		.loc 2 67 17 is_stmt 1 view .LVU127
 602              	.LBB253:
  69:../../../DaisySP/Source/Synthesis/oscillator.h ****         phase_inc_ = CalcPhaseInc(f);
 603              		.loc 2 69 9 view .LVU128
 604              	.LBE253:
 605              	.LBE258:
 606              	.LBB259:
 607              	.LBB244:
  27:oscillator.cpp ****     
ARM GAS  C:\Users\Miguel\AppData\Local\Temp\ccTW1OPO.s 			page 34


 608              		.loc 12 27 11 is_stmt 0 view .LVU129
 609 0132 9FED48CA 		vldr.32	s24, .L31+28
 610              	.LBE244:
 611              	.LBE259:
 612              	.LBB260:
 613              	.LBB254:
 614              		.loc 2 70 34 view .LVU130
 615 0136 B0EE670A 		vmov.f32	s0, s15
 616              	.LVL39:
  69:../../../DaisySP/Source/Synthesis/oscillator.h ****         phase_inc_ = CalcPhaseInc(f);
 617              		.loc 2 69 20 view .LVU131
 618 013a C5ED027A 		vstr.32	s15, [r5, #8]
 619              		.loc 2 70 9 is_stmt 1 view .LVU132
 620              		.loc 2 70 34 is_stmt 0 view .LVU133
 621 013e FFF7FEFF 		bl	_ZN7daisysp10Oscillator12CalcPhaseIncEf
 622              	.LVL40:
 623              		.loc 2 70 34 view .LVU134
 624              	.LBE254:
 625              	.LBE260:
 626              	.LBB261:
 627              	.LBB245:
  27:oscillator.cpp ****     
 628              		.loc 12 27 30 view .LVU135
 629 0142 B8EECEEA 		vcvt.f32.s32	s28, s28
 630              	.LVL41:
  27:oscillator.cpp ****     
 631              		.loc 12 27 30 view .LVU136
 632              	.LBE245:
 633              	.LBE261:
 634              	.LBB262:
 635              	.LBB255:
 636              		.loc 2 70 20 view .LVU137
 637 0146 85ED070A 		vstr.32	s0, [r5, #28]
 638              	.LVL42:
 639              		.loc 2 70 20 view .LVU138
 640              	.LBE255:
 641              	.LBE262:
  70:oscillator.cpp ****         tick.SetFreq(convertValue(knobTickFrequency, 1.0f, 5.0f));
 642              		.loc 12 70 9 is_stmt 1 view .LVU139
 643              	.LBB263:
 644              	.LBI263:
  71:../../../DaisySP/Source/Synthesis/oscillator.h ****     }
  72:../../../DaisySP/Source/Synthesis/oscillator.h **** 
  73:../../../DaisySP/Source/Synthesis/oscillator.h **** 
  74:../../../DaisySP/Source/Synthesis/oscillator.h ****     /** Sets the amplitude of the waveform.
  75:../../../DaisySP/Source/Synthesis/oscillator.h ****     */
  76:../../../DaisySP/Source/Synthesis/oscillator.h ****     inline void SetAmp(const float a) { amp_ = a; }
 645              		.loc 2 76 17 view .LVU140
 646              	.LBB264:
 647              		.loc 2 76 41 view .LVU141
 648              	.LBE264:
 649              	.LBE263:
 650              	.LBB266:
 651              	.LBB246:
  30:oscillator.cpp ****     
 652              		.loc 12 30 75 is_stmt 0 view .LVU142
 653 014a B0EE490B 		vmov.f64	d0, d9
ARM GAS  C:\Users\Miguel\AppData\Local\Temp\ccTW1OPO.s 			page 35


 654              	.LBE246:
 655              	.LBE266:
  70:oscillator.cpp ****         tick.SetFreq(convertValue(knobTickFrequency, 1.0f, 5.0f));
 656              		.loc 12 70 19 view .LVU143
 657 014e 6EEE8AEA 		vmul.f32	s29, s29, s20
 658              	.LVL43:
  71:oscillator.cpp ****         env.SetTime(ADSR_SEG_ATTACK, convertValue(knobAttack, 1.0f, 5.0f));
 659              		.loc 12 71 21 view .LVU144
 660 0152 4248     		ldr	r0, .L31+36
 661              	.LBB267:
 662              	.LBB247:
  27:oscillator.cpp ****     
 663              		.loc 12 27 11 view .LVU145
 664 0154 8EEE0C7A 		vdiv.f32	s14, s28, s24
 665              	.LBE247:
 666              	.LBE267:
 667              	.LBB268:
 668              	.LBB265:
 669              		.loc 2 76 46 view .LVU146
 670 0158 C5ED01EA 		vstr.32	s29, [r5, #4]
 671              	.LVL44:
 672              		.loc 2 76 46 view .LVU147
 673              	.LBE265:
 674              	.LBE268:
  71:oscillator.cpp ****         env.SetTime(ADSR_SEG_ATTACK, convertValue(knobAttack, 1.0f, 5.0f));
 675              		.loc 12 71 9 is_stmt 1 view .LVU148
 676              	.LBB269:
 677              	.LBI239:
  22:oscillator.cpp ****     int min_value = 0;
 678              		.loc 12 22 7 view .LVU149
 679              	.LBB248:
  23:oscillator.cpp ****     int max_value = 65534;
 680              		.loc 12 23 5 view .LVU150
  24:oscillator.cpp ****     
 681              		.loc 12 24 5 view .LVU151
  27:oscillator.cpp ****     
 682              		.loc 12 27 5 view .LVU152
  30:oscillator.cpp ****     
 683              		.loc 12 30 5 view .LVU153
 684              	.LBB241:
 685              	.LBI241:
 415:c:\program files\daisytoolchain\arm-none-eabi\include\c++\10.2.1\cmath ****     {
 686              		.loc 13 415 5 view .LVU154
 687              	.LBB242:
 688              		.loc 13 418 17 is_stmt 0 view .LVU155
 689 015c B7EEC77A 		vcvt.f64.f32	d7, s14
 690              	.LVL45:
 691              		.loc 13 418 17 view .LVU156
 692 0160 27EE077B 		vmul.f64	d7, d7, d7
 693              	.LBE242:
 694              	.LBE241:
  30:oscillator.cpp ****     
 695              		.loc 12 30 75 view .LVU157
 696 0164 A7EE0B0B 		vfma.f64	d0, d7, d11
 697              	.LVL46:
  32:oscillator.cpp **** }
 698              		.loc 12 32 5 is_stmt 1 view .LVU158
ARM GAS  C:\Users\Miguel\AppData\Local\Temp\ccTW1OPO.s 			page 36


  32:oscillator.cpp **** }
 699              		.loc 12 32 5 is_stmt 0 view .LVU159
 700              	.LBE248:
 701              	.LBE269:
  71:oscillator.cpp ****         env.SetTime(ADSR_SEG_ATTACK, convertValue(knobAttack, 1.0f, 5.0f));
 702              		.loc 12 71 21 view .LVU160
 703 0168 B7EEC00B 		vcvt.f32.f64	s0, d0
 704 016c FFF7FEFF 		bl	_ZN7daisysp5Metro7SetFreqEf
 705              	.LVL47:
  72:oscillator.cpp ****         env.SetTime(ADSR_SEG_DECAY, convertValue(knobDecay, 1.0f, 5.0f));
 706              		.loc 12 72 9 is_stmt 1 view .LVU161
 707              	.LBB270:
 708              	.LBI270:
  22:oscillator.cpp ****     int min_value = 0;
 709              		.loc 12 22 7 view .LVU162
 710              	.LBB271:
  23:oscillator.cpp ****     int max_value = 65534;
 711              		.loc 12 23 5 view .LVU163
  24:oscillator.cpp ****     
 712              		.loc 12 24 5 view .LVU164
  27:oscillator.cpp ****     
 713              		.loc 12 27 5 view .LVU165
  30:oscillator.cpp ****     
 714              		.loc 12 30 5 view .LVU166
 715              	.LBB272:
 716              	.LBI272:
 415:c:\program files\daisytoolchain\arm-none-eabi\include\c++\10.2.1\cmath ****     {
 717              		.loc 13 415 5 view .LVU167
 718              	.LBE272:
  27:oscillator.cpp ****     
 719              		.loc 12 27 30 is_stmt 0 view .LVU168
 720 0170 F8EEEDDA 		vcvt.f32.s32	s27, s27
 721              	.LVL48:
  30:oscillator.cpp ****     
 722              		.loc 12 30 75 view .LVU169
 723 0174 B0EE490B 		vmov.f64	d0, d9
 724              	.LBE271:
 725              	.LBE270:
  72:oscillator.cpp ****         env.SetTime(ADSR_SEG_DECAY, convertValue(knobDecay, 1.0f, 5.0f));
 726              		.loc 12 72 20 view .LVU170
 727 0178 0121     		movs	r1, #1
 728 017a 3A48     		ldr	r0, .L31+44
 729              	.LBB276:
 730              	.LBB275:
  27:oscillator.cpp ****     
 731              		.loc 12 27 11 view .LVU171
 732 017c 8DEE8C7A 		vdiv.f32	s14, s27, s24
 733              	.LBB274:
 734              	.LBB273:
 735              		.loc 13 418 17 view .LVU172
 736 0180 B7EEC77A 		vcvt.f64.f32	d7, s14
 737              	.LVL49:
 738              		.loc 13 418 17 view .LVU173
 739 0184 27EE077B 		vmul.f64	d7, d7, d7
 740              	.LBE273:
 741              	.LBE274:
  30:oscillator.cpp ****     
ARM GAS  C:\Users\Miguel\AppData\Local\Temp\ccTW1OPO.s 			page 37


 742              		.loc 12 30 75 view .LVU174
 743 0188 A7EE0B0B 		vfma.f64	d0, d7, d11
 744              	.LVL50:
  32:oscillator.cpp **** }
 745              		.loc 12 32 5 is_stmt 1 view .LVU175
  32:oscillator.cpp **** }
 746              		.loc 12 32 5 is_stmt 0 view .LVU176
 747              	.LBE275:
 748              	.LBE276:
  72:oscillator.cpp ****         env.SetTime(ADSR_SEG_DECAY, convertValue(knobDecay, 1.0f, 5.0f));
 749              		.loc 12 72 20 view .LVU177
 750 018c B7EEC00B 		vcvt.f32.f64	s0, d0
 751 0190 FFF7FEFF 		bl	_ZN7daisysp4Adsr7SetTimeEif
 752              	.LVL51:
  73:oscillator.cpp ****         env.SetSustainLevel(convertValue(knobSustain, 0.0f, 1.0f));
 753              		.loc 12 73 9 is_stmt 1 view .LVU178
 754              	.LBB277:
 755              	.LBI277:
  22:oscillator.cpp ****     int min_value = 0;
 756              		.loc 12 22 7 view .LVU179
 757              	.LBB278:
  23:oscillator.cpp ****     int max_value = 65534;
 758              		.loc 12 23 5 view .LVU180
  24:oscillator.cpp ****     
 759              		.loc 12 24 5 view .LVU181
  27:oscillator.cpp ****     
 760              		.loc 12 27 5 view .LVU182
  30:oscillator.cpp ****     
 761              		.loc 12 30 5 view .LVU183
 762              	.LBB279:
 763              	.LBI279:
 415:c:\program files\daisytoolchain\arm-none-eabi\include\c++\10.2.1\cmath ****     {
 764              		.loc 13 415 5 view .LVU184
 765              	.LBE279:
  27:oscillator.cpp ****     
 766              		.loc 12 27 30 is_stmt 0 view .LVU185
 767 0194 B8EECDDA 		vcvt.f32.s32	s26, s26
 768              	.LVL52:
  27:oscillator.cpp ****     
 769              		.loc 12 27 30 view .LVU186
 770              	.LBE278:
 771              	.LBE277:
  73:oscillator.cpp ****         env.SetSustainLevel(convertValue(knobSustain, 0.0f, 1.0f));
 772              		.loc 12 73 20 view .LVU187
 773 0198 0221     		movs	r1, #2
 774 019a 3248     		ldr	r0, .L31+44
 775              	.LBB283:
 776              	.LBB282:
  27:oscillator.cpp ****     
 777              		.loc 12 27 11 view .LVU188
 778 019c 8DEE0C7A 		vdiv.f32	s14, s26, s24
 779              	.LBB281:
 780              	.LBB280:
 781              		.loc 13 418 17 view .LVU189
 782 01a0 B7EEC77A 		vcvt.f64.f32	d7, s14
 783              	.LVL53:
 784              		.loc 13 418 17 view .LVU190
ARM GAS  C:\Users\Miguel\AppData\Local\Temp\ccTW1OPO.s 			page 38


 785 01a4 27EE077B 		vmul.f64	d7, d7, d7
 786              	.LBE280:
 787              	.LBE281:
  30:oscillator.cpp ****     
 788              		.loc 12 30 75 view .LVU191
 789 01a8 A7EE0B9B 		vfma.f64	d9, d7, d11
 790              	.LVL54:
  32:oscillator.cpp **** }
 791              		.loc 12 32 5 is_stmt 1 view .LVU192
  32:oscillator.cpp **** }
 792              		.loc 12 32 5 is_stmt 0 view .LVU193
 793              	.LBE282:
 794              	.LBE283:
  73:oscillator.cpp ****         env.SetSustainLevel(convertValue(knobSustain, 0.0f, 1.0f));
 795              		.loc 12 73 20 view .LVU194
 796 01ac B7EEC90B 		vcvt.f32.f64	s0, d9
 797 01b0 FFF7FEFF 		bl	_ZN7daisysp4Adsr7SetTimeEif
 798              	.LVL55:
  74:oscillator.cpp **** 
 799              		.loc 12 74 9 is_stmt 1 view .LVU195
 800              	.LBB284:
 801              	.LBI284:
  22:oscillator.cpp ****     int min_value = 0;
 802              		.loc 12 22 7 view .LVU196
 803              	.LBB285:
  23:oscillator.cpp ****     int max_value = 65534;
 804              		.loc 12 23 5 view .LVU197
  24:oscillator.cpp ****     
 805              		.loc 12 24 5 view .LVU198
  27:oscillator.cpp ****     
 806              		.loc 12 27 5 view .LVU199
  30:oscillator.cpp ****     
 807              		.loc 12 30 5 view .LVU200
 808              	.LBB286:
 809              	.LBI286:
 415:c:\program files\daisytoolchain\arm-none-eabi\include\c++\10.2.1\cmath ****     {
 810              		.loc 13 415 5 view .LVU201
 811              	.LBE286:
  27:oscillator.cpp ****     
 812              		.loc 12 27 30 is_stmt 0 view .LVU202
 813 01b4 F8EEECCA 		vcvt.f32.s32	s25, s25
 814              	.LVL56:
  30:oscillator.cpp ****     
 815              		.loc 12 30 75 view .LVU203
 816 01b8 9FED1F7B 		vldr.64	d7, .L31
  27:oscillator.cpp ****     
 817              		.loc 12 27 11 view .LVU204
 818 01bc 8CEE8C6A 		vdiv.f32	s12, s25, s24
 819              	.LBB288:
 820              	.LBB287:
 821              		.loc 13 418 17 view .LVU205
 822 01c0 B7EEC66A 		vcvt.f64.f32	d6, s12
 823              	.LVL57:
 824              		.loc 13 418 17 view .LVU206
 825              	.LBE287:
 826              	.LBE288:
  30:oscillator.cpp ****     
ARM GAS  C:\Users\Miguel\AppData\Local\Temp\ccTW1OPO.s 			page 39


 827              		.loc 12 30 75 view .LVU207
 828 01c4 A6EE067B 		vfma.f64	d7, d6, d6
  30:oscillator.cpp ****     
 829              		.loc 12 30 77 view .LVU208
 830 01c8 B7EEC77B 		vcvt.f32.f64	s14, d7
 831              	.LVL58:
  32:oscillator.cpp **** }
 832              		.loc 12 32 5 is_stmt 1 view .LVU209
  32:oscillator.cpp **** }
 833              		.loc 12 32 5 is_stmt 0 view .LVU210
 834              	.LBE285:
 835              	.LBE284:
 836              	.LBB289:
 837              	.LBI183:
  74:../../../DaisySP/Source/Control/adsr.h ****     {
 838              		.loc 1 74 17 is_stmt 1 view .LVU211
 839              	.LBB186:
  76:../../../DaisySP/Source/Control/adsr.h ****                                        : (sus_level > 1.f) ? 1.f : sus_level;
 840              		.loc 1 76 9 view .LVU212
  76:../../../DaisySP/Source/Control/adsr.h ****                                        : (sus_level > 1.f) ? 1.f : sus_level;
 841              		.loc 1 76 40 is_stmt 0 view .LVU213
 842 01cc B5EEC07A 		vcmpe.f32	s14, #0
 843 01d0 F1EE10FA 		vmrs	APSR_nzcv, FPSCR
 844 01d4 3FF626AF 		bhi	.L30
 845 01d8 9FED257A 		vldr.32	s14, .L31+56
 846              	.LVL59:
  76:../../../DaisySP/Source/Control/adsr.h ****                                        : (sus_level > 1.f) ? 1.f : sus_level;
 847              		.loc 1 76 40 view .LVU214
 848 01dc 28E7     		b	.L12
 849              	.LVL60:
 850              	.L24:
  76:../../../DaisySP/Source/Control/adsr.h ****                                        : (sus_level > 1.f) ? 1.f : sus_level;
 851              		.loc 1 76 40 view .LVU215
 852              	.LBE186:
 853              	.LBE289:
 854              	.LBB290:
 855              	.LBB197:
  80:oscillator.cpp ****         }
  81:oscillator.cpp ****         else 
  82:oscillator.cpp ****         {
  83:oscillator.cpp ****             float sig = env_out * osc_out;
 856              		.loc 12 83 13 is_stmt 1 view .LVU216
 857              	.LBB198:
 858              	.LBB199:
  27:oscillator.cpp ****     
 859              		.loc 12 27 30 is_stmt 0 view .LVU217
 860 01de DDED037A 		vldr.32	s15, [sp, #12]	@ int
 861              	.LBE199:
 862              	.LBE198:
  84:oscillator.cpp ****             reverb.SetFeedback(convertValue(knobVerbVolume, 0.0f, 1.0f));
  85:oscillator.cpp ****             reverb.SetLpFreq(convertValue(knobVerbFrequence, 1000.0f, 36000.0f));
  86:oscillator.cpp ****             reverb.Process(sig, sig, &out[LEFT], &out[RIGHT]);  
 863              		.loc 12 86 27 view .LVU218
 864 01e2 05AA     		add	r2, sp, #20
 865              	.LBB208:
 866              	.LBB209:
  39:../../../DaisySP/DaisySP-LGPL/Source/Effects/reverbsc.h ****     /** Initializes the reverb module, and sets the sample_rate at which the Process function will 
ARM GAS  C:\Users\Miguel\AppData\Local\Temp\ccTW1OPO.s 			page 40


  40:../../../DaisySP/DaisySP-LGPL/Source/Effects/reverbsc.h ****         Returns 0 if all good, or 1 if it runs out of delay times exceed maximum allowed.
  41:../../../DaisySP/DaisySP-LGPL/Source/Effects/reverbsc.h ****     */
  42:../../../DaisySP/DaisySP-LGPL/Source/Effects/reverbsc.h ****     int Init(float sample_rate);
  43:../../../DaisySP/DaisySP-LGPL/Source/Effects/reverbsc.h **** 
  44:../../../DaisySP/DaisySP-LGPL/Source/Effects/reverbsc.h ****     /** Process the input through the reverb, and updates values of out1, and out2 with the new pro
  45:../../../DaisySP/DaisySP-LGPL/Source/Effects/reverbsc.h ****     */
  46:../../../DaisySP/DaisySP-LGPL/Source/Effects/reverbsc.h ****     int Process(const float &in1, const float &in2, float *out1, float *out2);
  47:../../../DaisySP/DaisySP-LGPL/Source/Effects/reverbsc.h **** 
  48:../../../DaisySP/DaisySP-LGPL/Source/Effects/reverbsc.h ****     /** controls the reverb time. reverb tail becomes infinite when set to 1.0
  49:../../../DaisySP/DaisySP-LGPL/Source/Effects/reverbsc.h ****         \param fb - sets reverb time. range: 0.0 to 1.0
  50:../../../DaisySP/DaisySP-LGPL/Source/Effects/reverbsc.h ****     */
  51:../../../DaisySP/DaisySP-LGPL/Source/Effects/reverbsc.h ****     inline void SetFeedback(const float &fb) { feedback_ = fb; }
 867              		.loc 5 51 58 view .LVU219
 868 01e4 2348     		ldr	r0, .L31+60
 869              	.LBE209:
 870              	.LBE208:
  83:oscillator.cpp ****             reverb.SetFeedback(convertValue(knobVerbVolume, 0.0f, 1.0f));
 871              		.loc 12 83 33 view .LVU220
 872 01e6 2AEE088A 		vmul.f32	s16, s20, s16
 873              	.LVL61:
 874              	.LBB212:
 875              	.LBB203:
  27:oscillator.cpp ****     
 876              		.loc 12 27 30 view .LVU221
 877 01ea F8EEE76A 		vcvt.f32.s32	s13, s15
 878              	.LBE203:
 879              	.LBE212:
 880              		.loc 12 86 27 view .LVU222
 881 01ee 0097     		str	r7, [sp]
 882              	.LBB213:
 883              	.LBB210:
 884              		.loc 5 51 58 view .LVU223
 885 01f0 80ED007A 		vstr.32	s14, [r0]
 886              	.LBE210:
 887              	.LBE213:
 888              	.LBE197:
 889              	.LBE290:
 890              	.LBE297:
  50:oscillator.cpp ****     {
 891              		.loc 12 50 35 view .LVU224
 892 01f4 0236     		adds	r6, r6, #2
 893              	.LVL62:
 894              	.LBB298:
 895              	.LBB291:
 896              	.LBB221:
 897              		.loc 12 86 27 view .LVU225
 898 01f6 2346     		mov	r3, r4
 899 01f8 1146     		mov	r1, r2
 900              	.LBB214:
 901              	.LBB204:
  27:oscillator.cpp ****     
 902              		.loc 12 27 11 view .LVU226
 903 01fa C6EEA47A 		vdiv.f32	s15, s13, s9
 904              	.LBE204:
 905              	.LBE214:
  83:oscillator.cpp ****             reverb.SetFeedback(convertValue(knobVerbVolume, 0.0f, 1.0f));
 906              		.loc 12 83 19 view .LVU227
ARM GAS  C:\Users\Miguel\AppData\Local\Temp\ccTW1OPO.s 			page 41


 907 01fe 8DED058A 		vstr.32	s16, [sp, #20]
  84:oscillator.cpp ****             reverb.SetLpFreq(convertValue(knobVerbFrequence, 1000.0f, 36000.0f));
 908              		.loc 12 84 13 is_stmt 1 view .LVU228
 909              	.LVL63:
  84:oscillator.cpp ****             reverb.SetLpFreq(convertValue(knobVerbFrequence, 1000.0f, 36000.0f));
 910              		.loc 12 84 13 is_stmt 0 view .LVU229
 911              	.LBE221:
 912              	.LBE291:
 913              	.LBE298:
 914              	.LBE303:
  23:oscillator.cpp ****     int max_value = 65534;
 915              		.loc 12 23 5 is_stmt 1 view .LVU230
  24:oscillator.cpp ****     
 916              		.loc 12 24 5 view .LVU231
  27:oscillator.cpp ****     
 917              		.loc 12 27 5 view .LVU232
  30:oscillator.cpp ****     
 918              		.loc 12 30 5 view .LVU233
  32:oscillator.cpp **** }
 919              		.loc 12 32 5 view .LVU234
 920              	.LBB304:
 921              	.LBB299:
 922              	.LBB292:
 923              	.LBB222:
 924              	.LBB215:
 925              	.LBI208:
 926              		.loc 5 51 17 view .LVU235
 927              	.LBB211:
 928              		.loc 5 51 48 view .LVU236
 929              		.loc 5 51 48 is_stmt 0 view .LVU237
 930              	.LBE211:
 931              	.LBE215:
  85:oscillator.cpp ****             reverb.Process(sig, sig, &out[LEFT], &out[RIGHT]);  
 932              		.loc 12 85 13 is_stmt 1 view .LVU238
 933              	.LBB216:
 934              	.LBI198:
  22:oscillator.cpp ****     int min_value = 0;
 935              		.loc 12 22 7 view .LVU239
 936              	.LBB205:
  23:oscillator.cpp ****     int max_value = 65534;
 937              		.loc 12 23 5 view .LVU240
  24:oscillator.cpp ****     
 938              		.loc 12 24 5 view .LVU241
  27:oscillator.cpp ****     
 939              		.loc 12 27 5 view .LVU242
  30:oscillator.cpp ****     
 940              		.loc 12 30 5 view .LVU243
 941              	.LBB200:
 942              	.LBI200:
 415:c:\program files\daisytoolchain\arm-none-eabi\include\c++\10.2.1\cmath ****     {
 943              		.loc 13 415 5 view .LVU244
 944              	.LBE200:
 945              	.LBE205:
 946              	.LBE216:
 947              	.LBE222:
 948              	.LBE292:
 949              	.LBE299:
ARM GAS  C:\Users\Miguel\AppData\Local\Temp\ccTW1OPO.s 			page 42


  50:oscillator.cpp ****     {
 950              		.loc 12 50 25 is_stmt 0 view .LVU245
 951 0202 0834     		adds	r4, r4, #8
 952 0204 0837     		adds	r7, r7, #8
 953              	.LBB300:
 954              	.LBB293:
 955              	.LBB223:
 956              	.LBB217:
 957              	.LBB206:
  30:oscillator.cpp ****     
 958              		.loc 12 30 75 view .LVU246
 959 0206 9FED0E3B 		vldr.64	d3, .L31+8
 960 020a 9FED0F5B 		vldr.64	d5, .L31+16
 961              	.LBB202:
 962              	.LBB201:
 963              		.loc 13 418 17 view .LVU247
 964 020e B7EEE77A 		vcvt.f64.f32	d7, s15
 965              	.LVL64:
 966              		.loc 13 418 17 view .LVU248
 967 0212 27EE077B 		vmul.f64	d7, d7, d7
 968              	.LBE201:
 969              	.LBE202:
  30:oscillator.cpp ****     
 970              		.loc 12 30 75 view .LVU249
 971 0216 A7EE035B 		vfma.f64	d5, d7, d3
 972              	.LVL65:
  32:oscillator.cpp **** }
 973              		.loc 12 32 5 is_stmt 1 view .LVU250
  32:oscillator.cpp **** }
 974              		.loc 12 32 5 is_stmt 0 view .LVU251
 975              	.LBE206:
 976              	.LBE217:
 977              	.LBB218:
 978              	.LBI218:
  52:../../../DaisySP/DaisySP-LGPL/Source/Effects/reverbsc.h ****     /** controls the internal dampening filter's cutoff frequency.
  53:../../../DaisySP/DaisySP-LGPL/Source/Effects/reverbsc.h ****         \param freq - low pass frequency. range: 0.0 to sample_rate / 2
  54:../../../DaisySP/DaisySP-LGPL/Source/Effects/reverbsc.h ****     */
  55:../../../DaisySP/DaisySP-LGPL/Source/Effects/reverbsc.h ****     inline void SetLpFreq(const float &freq) { lpfreq_ = freq; }
 979              		.loc 5 55 17 is_stmt 1 view .LVU252
 980              	.LBB219:
 981              		.loc 5 55 48 view .LVU253
 982              	.LBE219:
 983              	.LBE218:
 984              	.LBB220:
 985              	.LBB207:
  30:oscillator.cpp ****     
 986              		.loc 12 30 77 is_stmt 0 view .LVU254
 987 021a B7EEC56B 		vcvt.f32.f64	s12, d5
 988 021e 80ED016A 		vstr.32	s12, [r0, #4]
 989              	.LVL66:
  30:oscillator.cpp ****     
 990              		.loc 12 30 77 view .LVU255
 991              	.LBE207:
 992              	.LBE220:
 993              		.loc 12 86 13 is_stmt 1 view .LVU256
 994              		.loc 12 86 27 is_stmt 0 view .LVU257
 995 0222 FFF7FEFF 		bl	_ZN7daisysp8ReverbSc7ProcessERKfS2_PfS3_
ARM GAS  C:\Users\Miguel\AppData\Local\Temp\ccTW1OPO.s 			page 43


 996              	.LVL67:
 997              	.LBE223:
 998              	.LBE293:
 999              	.LBE300:
  50:oscillator.cpp ****     {
 1000              		.loc 12 50 5 is_stmt 1 view .LVU258
  50:oscillator.cpp ****     {
 1001              		.loc 12 50 25 view .LVU259
 1002 0226 B145     		cmp	r9, r6
 1003 0228 3FF625AF 		bhi	.L17
 1004              	.LVL68:
 1005              	.L29:
  50:oscillator.cpp ****     {
 1006              		.loc 12 50 25 is_stmt 0 view .LVU260
 1007              	.LBE304:
  87:oscillator.cpp ****         }
  88:oscillator.cpp **** 
  89:oscillator.cpp ****        
  90:oscillator.cpp ****         
  91:oscillator.cpp ****     }
  92:oscillator.cpp **** }
 1008              		.loc 12 92 1 view .LVU261
 1009 022c 06B0     		add	sp, sp, #24
 1010              		.cfi_def_cfa_offset 88
 1011              		@ sp needed
 1012 022e BDEC0E8B 		vldm	sp!, {d8-d14}
 1013              		.cfi_restore 92
 1014              		.cfi_restore 93
 1015              		.cfi_restore 90
 1016              		.cfi_restore 91
 1017              		.cfi_restore 88
 1018              		.cfi_restore 89
 1019              		.cfi_restore 86
 1020              		.cfi_restore 87
 1021              		.cfi_restore 84
 1022              		.cfi_restore 85
 1023              		.cfi_restore 82
 1024              		.cfi_restore 83
 1025              		.cfi_restore 80
 1026              		.cfi_restore 81
 1027              		.cfi_def_cfa_offset 32
 1028              	.LVL69:
 1029              		.loc 12 92 1 view .LVU262
 1030 0232 BDE8F087 		pop	{r4, r5, r6, r7, r8, r9, r10, pc}
 1031              	.LVL70:
 1032              	.L26:
 1033              		.cfi_def_cfa_offset 0
 1034              		.cfi_restore 4
 1035              		.cfi_restore 5
 1036              		.cfi_restore 6
 1037              		.cfi_restore 7
 1038              		.cfi_restore 8
 1039              		.cfi_restore 9
 1040              		.cfi_restore 10
 1041              		.cfi_restore 14
 1042              		.loc 12 92 1 view .LVU263
 1043 0236 7047     		bx	lr
ARM GAS  C:\Users\Miguel\AppData\Local\Temp\ccTW1OPO.s 			page 44


 1044              	.L32:
 1045              		.align	3
 1046              	.L31:
 1047 0238 00000000 		.word	0
 1048 023c 00000000 		.word	0
 1049 0240 00000000 		.word	0
 1050 0244 0017E140 		.word	1088493312
 1051 0248 00000000 		.word	0
 1052 024c 00408F40 		.word	1083129856
 1053 0250 00000000 		.word	.LANCHOR4
 1054 0254 00FE7F47 		.word	1199570432
 1055 0258 CDCC4C3D 		.word	1028443341
 1056 025c 00000000 		.word	.LANCHOR0
 1057 0260 18000000 		.word	.LANCHOR2+24
 1058 0264 00000000 		.word	.LANCHOR3
 1059 0268 00007042 		.word	1114636288
 1060 026c 00000000 		.word	0
 1061 0270 0AD723BC 		.word	-1138501878
 1062 0274 00000000 		.word	_ZL6reverb
 1063 0278 00000000 		.word	.LANCHOR1
 1064              		.cfi_endproc
 1065              	.LFE4848:
 1067              		.section	.text._Z12convertValueiff,"ax",%progbits
 1068              		.align	1
 1069              		.p2align 2,,3
 1070              		.global	_Z12convertValueiff
 1071              		.syntax unified
 1072              		.thumb
 1073              		.thumb_func
 1074              		.fpu fpv5-d16
 1076              	_Z12convertValueiff:
 1077              	.LVL71:
 1078              	.LFB4846:
  22:oscillator.cpp ****     int min_value = 0;
 1079              		.loc 12 22 61 is_stmt 1 view -0
 1080              		.cfi_startproc
 1081              		@ args = 0, pretend = 0, frame = 0
 1082              		@ frame_needed = 0, uses_anonymous_args = 0
 1083              		@ link register save eliminated.
  23:oscillator.cpp ****     int max_value = 65534;
 1084              		.loc 12 23 5 view .LVU265
  24:oscillator.cpp ****     
 1085              		.loc 12 24 5 view .LVU266
  27:oscillator.cpp ****     
 1086              		.loc 12 27 5 view .LVU267
  30:oscillator.cpp ****     
 1087              		.loc 12 30 5 view .LVU268
 1088              	.LBB305:
 1089              	.LBI305:
 415:c:\program files\daisytoolchain\arm-none-eabi\include\c++\10.2.1\cmath ****     {
 1090              		.loc 13 415 5 view .LVU269
 1091              	.LBE305:
  27:oscillator.cpp ****     
 1092              		.loc 12 27 30 is_stmt 0 view .LVU270
 1093 0000 07EE900A 		vmov	s15, r0	@ int
  27:oscillator.cpp ****     
 1094              		.loc 12 27 11 view .LVU271
ARM GAS  C:\Users\Miguel\AppData\Local\Temp\ccTW1OPO.s 			page 45


 1095 0004 DFED0A6A 		vldr.32	s13, .L34
  30:oscillator.cpp ****     
 1096              		.loc 12 30 36 view .LVU272
 1097 0008 30EEC06A 		vsub.f32	s12, s1, s0
  27:oscillator.cpp ****     
 1098              		.loc 12 27 30 view .LVU273
 1099 000c F8EEE77A 		vcvt.f32.s32	s15, s15
  30:oscillator.cpp ****     
 1100              		.loc 12 30 77 view .LVU274
 1101 0010 B7EEC00A 		vcvt.f64.f32	d0, s0
 1102              	.LVL72:
  27:oscillator.cpp ****     
 1103              		.loc 12 27 11 view .LVU275
 1104 0014 87EEA67A 		vdiv.f32	s14, s15, s13
 1105              	.LVL73:
  30:oscillator.cpp ****     
 1106              		.loc 12 30 36 view .LVU276
 1107 0018 B7EEC66A 		vcvt.f64.f32	d6, s12
 1108              	.LBB307:
 1109              	.LBB306:
 1110              		.loc 13 418 17 view .LVU277
 1111 001c B7EEC77A 		vcvt.f64.f32	d7, s14
 1112              	.LVL74:
 1113              		.loc 13 418 17 view .LVU278
 1114 0020 27EE077B 		vmul.f64	d7, d7, d7
 1115              	.LBE306:
 1116              	.LBE307:
  30:oscillator.cpp ****     
 1117              		.loc 12 30 75 view .LVU279
 1118 0024 A6EE070B 		vfma.f64	d0, d6, d7
 1119              	.LVL75:
  32:oscillator.cpp **** }
 1120              		.loc 12 32 5 is_stmt 1 view .LVU280
  33:oscillator.cpp **** 
 1121              		.loc 12 33 1 is_stmt 0 view .LVU281
 1122 0028 B7EEC00B 		vcvt.f32.f64	s0, d0
 1123              	.LVL76:
  33:oscillator.cpp **** 
 1124              		.loc 12 33 1 view .LVU282
 1125 002c 7047     		bx	lr
 1126              	.L35:
 1127 002e 00BF     		.align	2
 1128              	.L34:
 1129 0030 00FE7F47 		.word	1199570432
 1130              		.cfi_endproc
 1131              	.LFE4846:
 1133              		.section	.text._Z14changeWaveFormv,"ax",%progbits
 1134              		.align	1
 1135              		.p2align 2,,3
 1136              		.global	_Z14changeWaveFormv
 1137              		.syntax unified
 1138              		.thumb
 1139              		.thumb_func
 1140              		.fpu fpv5-d16
 1142              	_Z14changeWaveFormv:
 1143              	.LFB4847:
  36:oscillator.cpp ****     switch(toggleWaveForm.Read())
ARM GAS  C:\Users\Miguel\AppData\Local\Temp\ccTW1OPO.s 			page 46


 1144              		.loc 12 36 1 is_stmt 1 view -0
 1145              		.cfi_startproc
 1146              		@ args = 0, pretend = 0, frame = 0
 1147              		@ frame_needed = 0, uses_anonymous_args = 0
  37:oscillator.cpp ****     {
 1148              		.loc 12 37 5 view .LVU284
 1149              	.LVL77:
 1150              	.LBB318:
 1151              	.LBI318:
  22:../../../libDaisy/src/hid/switch3.h **** 
  23:../../../libDaisy/src/hid/switch3.h ****     void Init(dsy_gpio_pin pina, dsy_gpio_pin pinb)
  24:../../../libDaisy/src/hid/switch3.h ****     {
  25:../../../libDaisy/src/hid/switch3.h ****         pina_gpio_.pin  = pina;
  26:../../../libDaisy/src/hid/switch3.h ****         pina_gpio_.mode = DSY_GPIO_MODE_INPUT;
  27:../../../libDaisy/src/hid/switch3.h ****         pina_gpio_.pull = DSY_GPIO_PULLUP;
  28:../../../libDaisy/src/hid/switch3.h ****         dsy_gpio_init(&pina_gpio_);
  29:../../../libDaisy/src/hid/switch3.h **** 
  30:../../../libDaisy/src/hid/switch3.h ****         pinb_gpio_.pin  = pinb;
  31:../../../libDaisy/src/hid/switch3.h ****         pinb_gpio_.mode = DSY_GPIO_MODE_INPUT;
  32:../../../libDaisy/src/hid/switch3.h ****         pinb_gpio_.pull = DSY_GPIO_PULLUP;
  33:../../../libDaisy/src/hid/switch3.h ****         dsy_gpio_init(&pinb_gpio_);
  34:../../../libDaisy/src/hid/switch3.h ****     }
  35:../../../libDaisy/src/hid/switch3.h **** 
  36:../../../libDaisy/src/hid/switch3.h ****     int Read()
 1152              		.loc 6 36 9 view .LVU285
 1153              	.LBB319:
  37:../../../libDaisy/src/hid/switch3.h ****     {
  38:../../../libDaisy/src/hid/switch3.h ****         if(!dsy_gpio_read(&pina_gpio_))
 1154              		.loc 6 38 9 view .LVU286
 1155              	.LBE319:
 1156              	.LBE318:
  36:oscillator.cpp ****     switch(toggleWaveForm.Read())
 1157              		.loc 12 36 1 is_stmt 0 view .LVU287
 1158 0000 08B5     		push	{r3, lr}
 1159              		.cfi_def_cfa_offset 8
 1160              		.cfi_offset 3, -8
 1161              		.cfi_offset 14, -4
 1162              	.LBB330:
 1163              	.LBB326:
 1164              		.loc 6 38 26 view .LVU288
 1165 0002 0948     		ldr	r0, .L41
 1166 0004 FFF7FEFF 		bl	dsy_gpio_read
 1167              	.LVL78:
 1168              		.loc 6 38 9 view .LVU289
 1169 0008 18B9     		cbnz	r0, .L37
 1170              	.LVL79:
 1171              		.loc 6 38 9 view .LVU290
 1172              	.LBE326:
 1173              	.LBE330:
  39:oscillator.cpp ****         case Switch3::POS_CENTER: osc.SetWaveform(osc.WAVE_POLYBLEP_SAW); break;
 1174              		.loc 12 39 9 is_stmt 1 view .LVU291
  39:oscillator.cpp ****         case Switch3::POS_CENTER: osc.SetWaveform(osc.WAVE_POLYBLEP_SAW); break;
 1175              		.loc 12 39 31 view .LVU292
 1176              	.LBB331:
 1177              	.LBI331:
  77:../../../DaisySP/Source/Synthesis/oscillator.h ****     /** Sets the waveform to be synthesized by the Process() function.
  78:../../../DaisySP/Source/Synthesis/oscillator.h ****     */
ARM GAS  C:\Users\Miguel\AppData\Local\Temp\ccTW1OPO.s 			page 47


  79:../../../DaisySP/Source/Synthesis/oscillator.h ****     inline void SetWaveform(const uint8_t wf)
 1178              		.loc 2 79 17 view .LVU293
 1179              	.LBB332:
  80:../../../DaisySP/Source/Synthesis/oscillator.h ****     {
  81:../../../DaisySP/Source/Synthesis/oscillator.h ****         waveform_ = wf < WAVE_LAST ? wf : WAVE_SIN;
 1180              		.loc 2 81 9 view .LVU294
 1181              		.loc 2 81 19 is_stmt 0 view .LVU295
 1182 000a 084B     		ldr	r3, .L41+4
 1183 000c 0422     		movs	r2, #4
 1184 000e 1A70     		strb	r2, [r3]
 1185              	.LBE332:
 1186              	.LBE331:
  43:oscillator.cpp **** 
 1187              		.loc 12 43 1 view .LVU296
 1188 0010 08BD     		pop	{r3, pc}
 1189              	.LVL80:
 1190              	.L37:
 1191              	.LBB333:
 1192              	.LBB327:
 1193              	.LBB320:
 1194              	.LBI320:
  36:../../../libDaisy/src/hid/switch3.h ****     {
 1195              		.loc 6 36 9 is_stmt 1 view .LVU297
 1196              	.LBB321:
  39:../../../libDaisy/src/hid/switch3.h ****             return POS_UP;
  40:../../../libDaisy/src/hid/switch3.h ****         if(!dsy_gpio_read(&pinb_gpio_))
 1197              		.loc 6 40 9 view .LVU298
 1198              		.loc 6 40 26 is_stmt 0 view .LVU299
 1199 0012 0748     		ldr	r0, .L41+8
 1200 0014 FFF7FEFF 		bl	dsy_gpio_read
 1201              	.LVL81:
 1202              	.LBE321:
 1203              	.LBE320:
 1204              	.LBE327:
 1205              	.LBE333:
 1206              	.LBB334:
 1207              	.LBB335:
 1208              		.loc 2 81 19 view .LVU300
 1209 0018 044B     		ldr	r3, .L41+4
 1210              	.LBE335:
 1211              	.LBE334:
 1212              	.LBB337:
 1213              	.LBB328:
 1214              	.LBB324:
 1215              	.LBB322:
 1216              		.loc 6 40 9 view .LVU301
 1217 001a 10B1     		cbz	r0, .L39
 1218              	.LVL82:
 1219              		.loc 6 40 9 view .LVU302
 1220              	.LBE322:
 1221              	.LBE324:
 1222              	.LBE328:
 1223              	.LBE337:
  40:oscillator.cpp ****         case Switch3::POS_DOWN: osc.SetWaveform(osc.WAVE_TRI); break;
 1224              		.loc 12 40 9 is_stmt 1 view .LVU303
  40:oscillator.cpp ****         case Switch3::POS_DOWN: osc.SetWaveform(osc.WAVE_TRI); break;
 1225              		.loc 12 40 35 view .LVU304
ARM GAS  C:\Users\Miguel\AppData\Local\Temp\ccTW1OPO.s 			page 48


 1226              	.LBB338:
 1227              	.LBI338:
  79:../../../DaisySP/Source/Synthesis/oscillator.h ****     {
 1228              		.loc 2 79 17 view .LVU305
 1229              	.LBB339:
 1230              		.loc 2 81 9 view .LVU306
 1231              		.loc 2 81 19 is_stmt 0 view .LVU307
 1232 001c 0622     		movs	r2, #6
 1233 001e 1A70     		strb	r2, [r3]
 1234              	.LBE339:
 1235              	.LBE338:
  43:oscillator.cpp **** 
 1236              		.loc 12 43 1 view .LVU308
 1237 0020 08BD     		pop	{r3, pc}
 1238              	.LVL83:
 1239              	.L39:
 1240              	.LBB340:
 1241              	.LBB329:
 1242              	.LBB325:
 1243              	.LBB323:
  41:../../../libDaisy/src/hid/switch3.h ****             return POS_DOWN;
 1244              		.loc 6 41 13 is_stmt 1 view .LVU309
 1245              		.loc 6 41 13 is_stmt 0 view .LVU310
 1246              	.LBE323:
 1247              	.LBE325:
 1248              	.LBE329:
 1249              	.LBE340:
  41:oscillator.cpp ****     }
 1250              		.loc 12 41 9 is_stmt 1 view .LVU311
  41:oscillator.cpp ****     }
 1251              		.loc 12 41 33 view .LVU312
 1252              	.LBB341:
 1253              	.LBI334:
  79:../../../DaisySP/Source/Synthesis/oscillator.h ****     {
 1254              		.loc 2 79 17 view .LVU313
 1255              	.LBB336:
 1256              		.loc 2 81 9 view .LVU314
 1257              		.loc 2 81 19 is_stmt 0 view .LVU315
 1258 0022 0122     		movs	r2, #1
 1259 0024 1A70     		strb	r2, [r3]
 1260              	.LVL84:
 1261              		.loc 2 81 19 view .LVU316
 1262              	.LBE336:
 1263              	.LBE341:
  43:oscillator.cpp **** 
 1264              		.loc 12 43 1 view .LVU317
 1265 0026 08BD     		pop	{r3, pc}
 1266              	.L42:
 1267              		.align	2
 1268              	.L41:
 1269 0028 00000000 		.word	.LANCHOR5
 1270 002c 00000000 		.word	.LANCHOR4
 1271 0030 04000000 		.word	.LANCHOR5+4
 1272              		.cfi_endproc
 1273              	.LFE4847:
 1275              		.section	.rodata.main.str1.4,"aMS",%progbits,1
 1276              		.align	2
ARM GAS  C:\Users\Miguel\AppData\Local\Temp\ccTW1OPO.s 			page 49


 1277              	.LC2:
 1278 0000 496E7075 		.ascii	"Input 1: %d\000"
 1278      7420313A 
 1278      20256400 
 1279              		.section	.text.startup.main,"ax",%progbits
 1280              		.align	1
 1281              		.p2align 2,,3
 1282              		.global	main
 1283              		.syntax unified
 1284              		.thumb
 1285              		.thumb_func
 1286              		.fpu fpv5-d16
 1288              	main:
 1289              	.LFB4849:
  93:oscillator.cpp **** 
  94:oscillator.cpp **** int main(void)
  95:oscillator.cpp **** {
 1290              		.loc 12 95 1 is_stmt 1 view -0
 1291              		.cfi_startproc
 1292              		@ Volatile: function does not return.
 1293              		@ args = 0, pretend = 0, frame = 176
 1294              		@ frame_needed = 0, uses_anonymous_args = 0
  96:oscillator.cpp ****     // initialize seed hardware and oscillator daisysp module
  97:oscillator.cpp ****     
  98:oscillator.cpp ****     hw.Configure();
 1295              		.loc 12 98 5 view .LVU319
  95:oscillator.cpp ****     // initialize seed hardware and oscillator daisysp module
 1296              		.loc 12 95 1 is_stmt 0 view .LVU320
 1297 0000 80B5     		push	{r7, lr}
 1298              		.cfi_def_cfa_offset 8
 1299              		.cfi_offset 7, -8
 1300              		.cfi_offset 14, -4
 1301              		.loc 12 98 17 view .LVU321
 1302 0002 7748     		ldr	r0, .L46
  95:oscillator.cpp ****     // initialize seed hardware and oscillator daisysp module
 1303              		.loc 12 95 1 view .LVU322
 1304 0004 ACB0     		sub	sp, sp, #176
 1305              		.cfi_def_cfa_offset 184
 1306              		.loc 12 98 17 view .LVU323
 1307 0006 FFF7FEFF 		bl	_ZN5daisy9DaisySeed9ConfigureEv
 1308              	.LVL85:
  99:oscillator.cpp ****     hw.Init();
 1309              		.loc 12 99 5 is_stmt 1 view .LVU324
 1310              		.loc 12 99 12 is_stmt 0 view .LVU325
 1311 000a 0021     		movs	r1, #0
 1312 000c 7448     		ldr	r0, .L46
 1313              	.LBB362:
 1314              	.LBB363:
  53:../../../DaisySP/Source/Synthesis/oscillator.h ****         freq_      = 100.0f;
 1315              		.loc 2 53 27 view .LVU326
 1316 000e B7EE008A 		vmov.f32	s16, #1.0e+0
 1317              	.LBE363:
 1318              	.LBE362:
 1319              		.loc 12 99 12 view .LVU327
 1320 0012 FFF7FEFF 		bl	_ZN5daisy9DaisySeed4InitEb
 1321              	.LVL86:
 100:oscillator.cpp **** 
ARM GAS  C:\Users\Miguel\AppData\Local\Temp\ccTW1OPO.s 			page 50


 101:oscillator.cpp ****     toggleWaveForm.Init(seed::D29, seed::D30);
 1322              		.loc 12 101 5 is_stmt 1 view .LVU328
 1323              	.LBB371:
 1324              	.LBI371:
  23:../../../libDaisy/src/hid/switch3.h ****     {
 1325              		.loc 6 23 10 view .LVU329
 1326              	.LBB372:
  25:../../../libDaisy/src/hid/switch3.h ****         pina_gpio_.mode = DSY_GPIO_MODE_INPUT;
 1327              		.loc 6 25 9 view .LVU330
  26:../../../libDaisy/src/hid/switch3.h ****         pina_gpio_.pull = DSY_GPIO_PULLUP;
 1328              		.loc 6 26 9 view .LVU331
  27:../../../libDaisy/src/hid/switch3.h ****         dsy_gpio_init(&pina_gpio_);
 1329              		.loc 6 27 9 view .LVU332
  25:../../../libDaisy/src/hid/switch3.h ****         pina_gpio_.mode = DSY_GPIO_MODE_INPUT;
 1330              		.loc 6 25 25 is_stmt 0 view .LVU333
 1331 0016 734C     		ldr	r4, .L46+4
 1332 0018 734B     		ldr	r3, .L46+8
 1333              	.LBE372:
 1334              	.LBE371:
 1335              	.LBB377:
 1336              	.LBB364:
  55:../../../DaisySP/Source/Synthesis/oscillator.h ****         pw_        = 0.5f;
 1337              		.loc 2 55 20 view .LVU334
 1338 001a 4FF07C56 		mov	r6, #1056964608
 1339              	.LBE364:
 1340              	.LBE377:
 1341              	.LBB378:
 1342              	.LBB373:
  28:../../../libDaisy/src/hid/switch3.h **** 
 1343              		.loc 6 28 22 view .LVU335
 1344 001e 2046     		mov	r0, r4
 1345              	.LBE373:
 1346              	.LBE378:
 1347              	.LBB379:
 1348              	.LBB365:
  52:../../../DaisySP/Source/Synthesis/oscillator.h ****         sr_recip_  = 1.0f / sample_rate;
 1349              		.loc 2 52 20 view .LVU336
 1350 0020 724D     		ldr	r5, .L46+12
 1351              	.LBE365:
 1352              	.LBE379:
 1353              	.LBB380:
 1354              	.LBB374:
  25:../../../libDaisy/src/hid/switch3.h ****         pina_gpio_.mode = DSY_GPIO_MODE_INPUT;
 1355              		.loc 6 25 25 view .LVU337
 1356 0022 2360     		str	r3, [r4]
  28:../../../libDaisy/src/hid/switch3.h **** 
 1357              		.loc 6 28 9 is_stmt 1 view .LVU338
 1358              	.LBE374:
 1359              	.LBE380:
 1360              	.LBB381:
 1361              	.LBB366:
  59:../../../DaisySP/Source/Synthesis/oscillator.h ****         eoc_       = true;
 1362              		.loc 2 59 20 is_stmt 0 view .LVU339
 1363 0024 4FF00008 		mov	r8, #0
 1364              	.LBE366:
 1365              	.LBE381:
 1366              	.LBB382:
ARM GAS  C:\Users\Miguel\AppData\Local\Temp\ccTW1OPO.s 			page 51


 1367              	.LBB375:
  28:../../../libDaisy/src/hid/switch3.h **** 
 1368              		.loc 6 28 22 view .LVU340
 1369 0028 FFF7FEFF 		bl	dsy_gpio_init
 1370              	.LVL87:
  30:../../../libDaisy/src/hid/switch3.h ****         pinb_gpio_.mode = DSY_GPIO_MODE_INPUT;
 1371              		.loc 6 30 9 is_stmt 1 view .LVU341
  31:../../../libDaisy/src/hid/switch3.h ****         pinb_gpio_.pull = DSY_GPIO_PULLUP;
 1372              		.loc 6 31 9 view .LVU342
  32:../../../libDaisy/src/hid/switch3.h ****         dsy_gpio_init(&pinb_gpio_);
 1373              		.loc 6 32 9 view .LVU343
  30:../../../libDaisy/src/hid/switch3.h ****         pinb_gpio_.mode = DSY_GPIO_MODE_INPUT;
 1374              		.loc 6 30 25 is_stmt 0 view .LVU344
 1375 002c 2046     		mov	r0, r4
 1376 002e 704B     		ldr	r3, .L46+16
 1377              	.LBE375:
 1378              	.LBE382:
 102:oscillator.cpp ****     
 103:oscillator.cpp ****     AdcChannelConfig adcConfig[8];
 104:oscillator.cpp **** 
 105:oscillator.cpp ****     adcConfig[0].InitSingle(hw.GetPin(20));
 106:oscillator.cpp ****     adcConfig[1].InitSingle(hw.GetPin(21));
 107:oscillator.cpp ****     adcConfig[2].InitSingle(hw.GetPin(19));
 108:oscillator.cpp ****     adcConfig[3].InitSingle(hw.GetPin(18));
 109:oscillator.cpp ****     adcConfig[4].InitSingle(hw.GetPin(17));
 110:oscillator.cpp ****     adcConfig[5].InitSingle(hw.GetPin(16));
 111:oscillator.cpp ****     adcConfig[6].InitSingle(hw.GetPin(22));
 112:oscillator.cpp ****     adcConfig[7].InitSingle(hw.GetPin(23));
 113:oscillator.cpp **** 
 114:oscillator.cpp ****    
 115:oscillator.cpp ****     hw.adc.Init(adcConfig, 8);
 116:oscillator.cpp ****     hw.adc.Start();
 117:oscillator.cpp ****     hw.StartLog();
 118:oscillator.cpp **** 
 119:oscillator.cpp ****     hw.SetAudioBlockSize(4);
 120:oscillator.cpp ****     sample_rate = hw.AudioSampleRate();
 1379              		.loc 12 120 17 view .LVU345
 1380 0030 704C     		ldr	r4, .L46+20
 1381              	.LBB383:
 1382              	.LBB376:
  30:../../../libDaisy/src/hid/switch3.h ****         pinb_gpio_.mode = DSY_GPIO_MODE_INPUT;
 1383              		.loc 6 30 25 view .LVU346
 1384 0032 40F8043F 		str	r3, [r0, #4]!
  33:../../../libDaisy/src/hid/switch3.h ****     }
 1385              		.loc 6 33 9 is_stmt 1 view .LVU347
  33:../../../libDaisy/src/hid/switch3.h ****     }
 1386              		.loc 6 33 22 is_stmt 0 view .LVU348
 1387 0036 FFF7FEFF 		bl	dsy_gpio_init
 1388              	.LVL88:
  33:../../../libDaisy/src/hid/switch3.h ****     }
 1389              		.loc 6 33 22 view .LVU349
 1390              	.LBE376:
 1391              	.LBE383:
 103:oscillator.cpp **** 
 1392              		.loc 12 103 5 is_stmt 1 view .LVU350
 105:oscillator.cpp ****     adcConfig[1].InitSingle(hw.GetPin(21));
 1393              		.loc 12 105 5 view .LVU351
ARM GAS  C:\Users\Miguel\AppData\Local\Temp\ccTW1OPO.s 			page 52


 105:oscillator.cpp ****     adcConfig[1].InitSingle(hw.GetPin(21));
 1394              		.loc 12 105 28 is_stmt 0 view .LVU352
 1395 003a 1420     		movs	r0, #20
 1396 003c FFF7FEFF 		bl	_ZN5daisy9DaisySeed6GetPinEh
 1397              	.LVL89:
 1398 0040 0346     		mov	r3, r0	@ movhi
 1399 0042 0222     		movs	r2, #2
 1400 0044 08A8     		add	r0, sp, #32
 1401 0046 ADF80030 		strh	r3, [sp]	@ movhi
 1402 004a 0099     		ldr	r1, [sp]
 1403 004c FFF7FEFF 		bl	_ZN5daisy16AdcChannelConfig10InitSingleE12dsy_gpio_pinNS0_15ConversionSpeedE
 1404              	.LVL90:
 106:oscillator.cpp ****     adcConfig[2].InitSingle(hw.GetPin(19));
 1405              		.loc 12 106 5 is_stmt 1 view .LVU353
 106:oscillator.cpp ****     adcConfig[2].InitSingle(hw.GetPin(19));
 1406              		.loc 12 106 28 is_stmt 0 view .LVU354
 1407 0050 1520     		movs	r0, #21
 1408 0052 FFF7FEFF 		bl	_ZN5daisy9DaisySeed6GetPinEh
 1409              	.LVL91:
 1410 0056 0346     		mov	r3, r0	@ movhi
 1411 0058 0222     		movs	r2, #2
 1412 005a 0DF13200 		add	r0, sp, #50
 1413 005e ADF80430 		strh	r3, [sp, #4]	@ movhi
 1414 0062 0199     		ldr	r1, [sp, #4]
 1415 0064 FFF7FEFF 		bl	_ZN5daisy16AdcChannelConfig10InitSingleE12dsy_gpio_pinNS0_15ConversionSpeedE
 1416              	.LVL92:
 107:oscillator.cpp ****     adcConfig[3].InitSingle(hw.GetPin(18));
 1417              		.loc 12 107 5 is_stmt 1 view .LVU355
 107:oscillator.cpp ****     adcConfig[3].InitSingle(hw.GetPin(18));
 1418              		.loc 12 107 28 is_stmt 0 view .LVU356
 1419 0068 1320     		movs	r0, #19
 1420 006a FFF7FEFF 		bl	_ZN5daisy9DaisySeed6GetPinEh
 1421              	.LVL93:
 1422 006e 0346     		mov	r3, r0	@ movhi
 1423 0070 0222     		movs	r2, #2
 1424 0072 11A8     		add	r0, sp, #68
 1425 0074 ADF80830 		strh	r3, [sp, #8]	@ movhi
 1426 0078 0299     		ldr	r1, [sp, #8]
 1427 007a FFF7FEFF 		bl	_ZN5daisy16AdcChannelConfig10InitSingleE12dsy_gpio_pinNS0_15ConversionSpeedE
 1428              	.LVL94:
 108:oscillator.cpp ****     adcConfig[4].InitSingle(hw.GetPin(17));
 1429              		.loc 12 108 5 is_stmt 1 view .LVU357
 108:oscillator.cpp ****     adcConfig[4].InitSingle(hw.GetPin(17));
 1430              		.loc 12 108 28 is_stmt 0 view .LVU358
 1431 007e 1220     		movs	r0, #18
 1432 0080 FFF7FEFF 		bl	_ZN5daisy9DaisySeed6GetPinEh
 1433              	.LVL95:
 1434 0084 0346     		mov	r3, r0	@ movhi
 1435 0086 0222     		movs	r2, #2
 1436 0088 0DF15600 		add	r0, sp, #86
 1437 008c ADF80C30 		strh	r3, [sp, #12]	@ movhi
 1438 0090 0399     		ldr	r1, [sp, #12]
 1439 0092 FFF7FEFF 		bl	_ZN5daisy16AdcChannelConfig10InitSingleE12dsy_gpio_pinNS0_15ConversionSpeedE
 1440              	.LVL96:
 109:oscillator.cpp ****     adcConfig[5].InitSingle(hw.GetPin(16));
 1441              		.loc 12 109 5 is_stmt 1 view .LVU359
 109:oscillator.cpp ****     adcConfig[5].InitSingle(hw.GetPin(16));
ARM GAS  C:\Users\Miguel\AppData\Local\Temp\ccTW1OPO.s 			page 53


 1442              		.loc 12 109 28 is_stmt 0 view .LVU360
 1443 0096 1120     		movs	r0, #17
 1444 0098 FFF7FEFF 		bl	_ZN5daisy9DaisySeed6GetPinEh
 1445              	.LVL97:
 1446 009c 0346     		mov	r3, r0	@ movhi
 1447 009e 0222     		movs	r2, #2
 1448 00a0 1AA8     		add	r0, sp, #104
 1449 00a2 ADF81030 		strh	r3, [sp, #16]	@ movhi
 1450 00a6 0499     		ldr	r1, [sp, #16]
 1451 00a8 FFF7FEFF 		bl	_ZN5daisy16AdcChannelConfig10InitSingleE12dsy_gpio_pinNS0_15ConversionSpeedE
 1452              	.LVL98:
 110:oscillator.cpp ****     adcConfig[6].InitSingle(hw.GetPin(22));
 1453              		.loc 12 110 5 is_stmt 1 view .LVU361
 110:oscillator.cpp ****     adcConfig[6].InitSingle(hw.GetPin(22));
 1454              		.loc 12 110 28 is_stmt 0 view .LVU362
 1455 00ac 1020     		movs	r0, #16
 1456 00ae FFF7FEFF 		bl	_ZN5daisy9DaisySeed6GetPinEh
 1457              	.LVL99:
 1458 00b2 0346     		mov	r3, r0	@ movhi
 1459 00b4 0222     		movs	r2, #2
 1460 00b6 0DF17A00 		add	r0, sp, #122
 1461 00ba ADF81430 		strh	r3, [sp, #20]	@ movhi
 1462 00be 0599     		ldr	r1, [sp, #20]
 1463 00c0 FFF7FEFF 		bl	_ZN5daisy16AdcChannelConfig10InitSingleE12dsy_gpio_pinNS0_15ConversionSpeedE
 1464              	.LVL100:
 111:oscillator.cpp ****     adcConfig[7].InitSingle(hw.GetPin(23));
 1465              		.loc 12 111 5 is_stmt 1 view .LVU363
 111:oscillator.cpp ****     adcConfig[7].InitSingle(hw.GetPin(23));
 1466              		.loc 12 111 28 is_stmt 0 view .LVU364
 1467 00c4 1620     		movs	r0, #22
 1468 00c6 FFF7FEFF 		bl	_ZN5daisy9DaisySeed6GetPinEh
 1469              	.LVL101:
 1470 00ca 0346     		mov	r3, r0	@ movhi
 1471 00cc 0222     		movs	r2, #2
 1472 00ce 23A8     		add	r0, sp, #140
 1473 00d0 ADF81830 		strh	r3, [sp, #24]	@ movhi
 1474 00d4 0699     		ldr	r1, [sp, #24]
 1475 00d6 FFF7FEFF 		bl	_ZN5daisy16AdcChannelConfig10InitSingleE12dsy_gpio_pinNS0_15ConversionSpeedE
 1476              	.LVL102:
 112:oscillator.cpp **** 
 1477              		.loc 12 112 5 is_stmt 1 view .LVU365
 112:oscillator.cpp **** 
 1478              		.loc 12 112 28 is_stmt 0 view .LVU366
 1479 00da 1720     		movs	r0, #23
 1480 00dc FFF7FEFF 		bl	_ZN5daisy9DaisySeed6GetPinEh
 1481              	.LVL103:
 1482 00e0 0346     		mov	r3, r0	@ movhi
 1483 00e2 0222     		movs	r2, #2
 1484 00e4 0DF19E00 		add	r0, sp, #158
 1485 00e8 ADF81C30 		strh	r3, [sp, #28]	@ movhi
 1486 00ec 0799     		ldr	r1, [sp, #28]
 1487 00ee FFF7FEFF 		bl	_ZN5daisy16AdcChannelConfig10InitSingleE12dsy_gpio_pinNS0_15ConversionSpeedE
 1488              	.LVL104:
 115:oscillator.cpp ****     hw.adc.Start();
 1489              		.loc 12 115 5 is_stmt 1 view .LVU367
 115:oscillator.cpp ****     hw.adc.Start();
 1490              		.loc 12 115 16 is_stmt 0 view .LVU368
ARM GAS  C:\Users\Miguel\AppData\Local\Temp\ccTW1OPO.s 			page 54


 1491 00f2 0822     		movs	r2, #8
 1492 00f4 0423     		movs	r3, #4
 1493 00f6 08A9     		add	r1, sp, #32
 1494 00f8 3F48     		ldr	r0, .L46+24
 1495 00fa FFF7FEFF 		bl	_ZN5daisy9AdcHandle4InitEPNS_16AdcChannelConfigEjNS0_12OverSamplingE
 1496              	.LVL105:
 116:oscillator.cpp ****     hw.StartLog();
 1497              		.loc 12 116 5 is_stmt 1 view .LVU369
 116:oscillator.cpp ****     hw.StartLog();
 1498              		.loc 12 116 17 is_stmt 0 view .LVU370
 1499 00fe 3E48     		ldr	r0, .L46+24
 1500 0100 FFF7FEFF 		bl	_ZN5daisy9AdcHandle5StartEv
 1501              	.LVL106:
 117:oscillator.cpp **** 
 1502              		.loc 12 117 5 is_stmt 1 view .LVU371
 1503              	.LBB384:
 1504              	.LBI384:
  23:../../../libDaisy/src/daisy_seed.h **** 
  24:../../../libDaisy/src/daisy_seed.h ****     /** This function used to provide a pre-initialization configuraiton 
  25:../../../libDaisy/src/daisy_seed.h ****      *  it has since been deprecated, and does nothing.
  26:../../../libDaisy/src/daisy_seed.h ****      */
  27:../../../libDaisy/src/daisy_seed.h ****     void Configure();
  28:../../../libDaisy/src/daisy_seed.h **** 
  29:../../../libDaisy/src/daisy_seed.h ****     /** 
  30:../../../libDaisy/src/daisy_seed.h ****     Initializes the Daisy Seed and the following peripherals:
  31:../../../libDaisy/src/daisy_seed.h ****     SDRAM, QSPI, 24-bit 48kHz Audio via AK4556, Internal USB,
  32:../../../libDaisy/src/daisy_seed.h ****     as well as the built-in LED and Testpoint.
  33:../../../libDaisy/src/daisy_seed.h **** 
  34:../../../libDaisy/src/daisy_seed.h ****     ADCs, DACs, and other special peripherals (such as I2C, SPI, etc.)
  35:../../../libDaisy/src/daisy_seed.h ****     can be initialized using their specific initializers within libdaisy
  36:../../../libDaisy/src/daisy_seed.h ****     for a specific application.
  37:../../../libDaisy/src/daisy_seed.h ****     */
  38:../../../libDaisy/src/daisy_seed.h ****     void Init(bool boost = false);
  39:../../../libDaisy/src/daisy_seed.h **** 
  40:../../../libDaisy/src/daisy_seed.h ****     /** 
  41:../../../libDaisy/src/daisy_seed.h ****     Deinitializes all peripherals automatically handled by `Init`.
  42:../../../libDaisy/src/daisy_seed.h ****     */
  43:../../../libDaisy/src/daisy_seed.h ****     void DeInit();
  44:../../../libDaisy/src/daisy_seed.h **** 
  45:../../../libDaisy/src/daisy_seed.h ****     /** 
  46:../../../libDaisy/src/daisy_seed.h ****     Wait some ms before going on.
  47:../../../libDaisy/src/daisy_seed.h ****     \param del Delay time in ms.
  48:../../../libDaisy/src/daisy_seed.h ****     */
  49:../../../libDaisy/src/daisy_seed.h ****     void DelayMs(size_t del);
  50:../../../libDaisy/src/daisy_seed.h **** 
  51:../../../libDaisy/src/daisy_seed.h ****     /** 
  52:../../../libDaisy/src/daisy_seed.h ****     Returns the gpio_pin corresponding to the index 0-31.
  53:../../../libDaisy/src/daisy_seed.h ****     For the given GPIO on the Daisy Seed (labeled 1-32 in docs).
  54:../../../libDaisy/src/daisy_seed.h ****     */
  55:../../../libDaisy/src/daisy_seed.h ****     static dsy_gpio_pin GetPin(uint8_t pin_idx);
  56:../../../libDaisy/src/daisy_seed.h **** 
  57:../../../libDaisy/src/daisy_seed.h ****     /** Begins the audio for the seeds builtin audio.
  58:../../../libDaisy/src/daisy_seed.h ****     the specified callback will get called whenever
  59:../../../libDaisy/src/daisy_seed.h ****     new data is ready to be prepared.
  60:../../../libDaisy/src/daisy_seed.h ****     */
  61:../../../libDaisy/src/daisy_seed.h ****     void StartAudio(AudioHandle::InterleavingAudioCallback cb);
  62:../../../libDaisy/src/daisy_seed.h **** 
ARM GAS  C:\Users\Miguel\AppData\Local\Temp\ccTW1OPO.s 			page 55


  63:../../../libDaisy/src/daisy_seed.h ****     /** Begins the audio for the seeds builtin audio.
  64:../../../libDaisy/src/daisy_seed.h ****     the specified callback will get called whenever
  65:../../../libDaisy/src/daisy_seed.h ****     new data is ready to be prepared.
  66:../../../libDaisy/src/daisy_seed.h ****     This will use the newer non-interleaved callback.
  67:../../../libDaisy/src/daisy_seed.h ****     */
  68:../../../libDaisy/src/daisy_seed.h ****     void StartAudio(AudioHandle::AudioCallback cb);
  69:../../../libDaisy/src/daisy_seed.h **** 
  70:../../../libDaisy/src/daisy_seed.h ****     /** Changes to a new interleaved callback
  71:../../../libDaisy/src/daisy_seed.h ****      */
  72:../../../libDaisy/src/daisy_seed.h ****     void ChangeAudioCallback(AudioHandle::InterleavingAudioCallback cb);
  73:../../../libDaisy/src/daisy_seed.h **** 
  74:../../../libDaisy/src/daisy_seed.h ****     /** Changes to a new multichannel callback
  75:../../../libDaisy/src/daisy_seed.h ****      */
  76:../../../libDaisy/src/daisy_seed.h ****     void ChangeAudioCallback(AudioHandle::AudioCallback cb);
  77:../../../libDaisy/src/daisy_seed.h **** 
  78:../../../libDaisy/src/daisy_seed.h ****     /** Stops the audio if it is running. */
  79:../../../libDaisy/src/daisy_seed.h ****     void StopAudio();
  80:../../../libDaisy/src/daisy_seed.h **** 
  81:../../../libDaisy/src/daisy_seed.h ****     /** Updates the Audio Sample Rate, and reinitializes.
  82:../../../libDaisy/src/daisy_seed.h ****      ** Audio must be stopped for this to work.
  83:../../../libDaisy/src/daisy_seed.h ****      */
  84:../../../libDaisy/src/daisy_seed.h ****     void SetAudioSampleRate(SaiHandle::Config::SampleRate samplerate);
  85:../../../libDaisy/src/daisy_seed.h **** 
  86:../../../libDaisy/src/daisy_seed.h ****     /** Returns the audio sample rate in Hz as a floating point number.
  87:../../../libDaisy/src/daisy_seed.h ****      */
  88:../../../libDaisy/src/daisy_seed.h ****     float AudioSampleRate();
  89:../../../libDaisy/src/daisy_seed.h **** 
  90:../../../libDaisy/src/daisy_seed.h ****     /** Sets the number of samples processed per channel by the audio callback.
  91:../../../libDaisy/src/daisy_seed.h ****      */
  92:../../../libDaisy/src/daisy_seed.h ****     void SetAudioBlockSize(size_t blocksize);
  93:../../../libDaisy/src/daisy_seed.h **** 
  94:../../../libDaisy/src/daisy_seed.h ****     /** Returns the number of samples per channel in a block of audio. */
  95:../../../libDaisy/src/daisy_seed.h ****     size_t AudioBlockSize();
  96:../../../libDaisy/src/daisy_seed.h **** 
  97:../../../libDaisy/src/daisy_seed.h ****     /** Returns the rate in Hz that the Audio callback is called */
  98:../../../libDaisy/src/daisy_seed.h ****     float AudioCallbackRate() const;
  99:../../../libDaisy/src/daisy_seed.h **** 
 100:../../../libDaisy/src/daisy_seed.h ****     /** Returns the SAI Handle for the Daisy Seed 
 101:../../../libDaisy/src/daisy_seed.h ****      *  This can be useful when adding a secondary codec,
 102:../../../libDaisy/src/daisy_seed.h ****      *  the result of this function can be passed to the audio reinit 
 103:../../../libDaisy/src/daisy_seed.h ****      *  with an SAI2 configuration
 104:../../../libDaisy/src/daisy_seed.h ****      */
 105:../../../libDaisy/src/daisy_seed.h ****     const SaiHandle& AudioSaiHandle() const;
 106:../../../libDaisy/src/daisy_seed.h **** 
 107:../../../libDaisy/src/daisy_seed.h ****     /** Sets the state of the built in LED
 108:../../../libDaisy/src/daisy_seed.h ****      */
 109:../../../libDaisy/src/daisy_seed.h ****     void SetLed(bool state);
 110:../../../libDaisy/src/daisy_seed.h **** 
 111:../../../libDaisy/src/daisy_seed.h ****     /** Sets the state of the test point near pin 10
 112:../../../libDaisy/src/daisy_seed.h ****      */
 113:../../../libDaisy/src/daisy_seed.h ****     void SetTestPoint(bool state);
 114:../../../libDaisy/src/daisy_seed.h **** 
 115:../../../libDaisy/src/daisy_seed.h ****     /** Print formatted debug log message
 116:../../../libDaisy/src/daisy_seed.h ****      */
 117:../../../libDaisy/src/daisy_seed.h ****     template <typename... VA>
 118:../../../libDaisy/src/daisy_seed.h ****     static void Print(const char* format, VA... va)
 119:../../../libDaisy/src/daisy_seed.h ****     {
ARM GAS  C:\Users\Miguel\AppData\Local\Temp\ccTW1OPO.s 			page 56


 120:../../../libDaisy/src/daisy_seed.h ****         Log::Print(format, va...);
 121:../../../libDaisy/src/daisy_seed.h ****     }
 122:../../../libDaisy/src/daisy_seed.h **** 
 123:../../../libDaisy/src/daisy_seed.h ****     /** Print formatted debug log message with automatic line termination
 124:../../../libDaisy/src/daisy_seed.h ****     */
 125:../../../libDaisy/src/daisy_seed.h ****     template <typename... VA>
 126:../../../libDaisy/src/daisy_seed.h ****     static void PrintLine(const char* format, VA... va)
 127:../../../libDaisy/src/daisy_seed.h ****     {
 128:../../../libDaisy/src/daisy_seed.h ****         Log::PrintLine(format, va...);
 129:../../../libDaisy/src/daisy_seed.h ****     }
 130:../../../libDaisy/src/daisy_seed.h **** 
 131:../../../libDaisy/src/daisy_seed.h ****     /** Start the logging session. Optionally wait for terminal connection before proceeding.
 132:../../../libDaisy/src/daisy_seed.h ****     */
 133:../../../libDaisy/src/daisy_seed.h ****     static void StartLog(bool wait_for_pc = false)
 1505              		.loc 7 133 17 view .LVU372
 1506              	.LBB385:
 134:../../../libDaisy/src/daisy_seed.h ****     {
 135:../../../libDaisy/src/daisy_seed.h ****         Log::StartLog(wait_for_pc);
 1507              		.loc 7 135 9 view .LVU373
 1508              		.loc 7 135 22 is_stmt 0 view .LVU374
 1509 0104 0020     		movs	r0, #0
 1510 0106 FFF7FEFF 		bl	_ZN5daisy6LoggerILNS_17LoggerDestinationE1EE8StartLogEb
 1511              	.LVL107:
 1512              		.loc 7 135 22 view .LVU375
 1513              	.LBE385:
 1514              	.LBE384:
 119:oscillator.cpp ****     sample_rate = hw.AudioSampleRate();
 1515              		.loc 12 119 5 is_stmt 1 view .LVU376
 119:oscillator.cpp ****     sample_rate = hw.AudioSampleRate();
 1516              		.loc 12 119 25 is_stmt 0 view .LVU377
 1517 010a 0421     		movs	r1, #4
 1518 010c 3448     		ldr	r0, .L46
 1519 010e FFF7FEFF 		bl	_ZN5daisy9DaisySeed17SetAudioBlockSizeEj
 1520              	.LVL108:
 1521              		.loc 12 120 5 is_stmt 1 view .LVU378
 1522              		.loc 12 120 37 is_stmt 0 view .LVU379
 1523 0112 3348     		ldr	r0, .L46
 1524 0114 FFF7FEFF 		bl	_ZN5daisy9DaisySeed15AudioSampleRateEv
 1525              	.LVL109:
 1526 0118 F0EE407A 		vmov.f32	s15, s0
 1527              	.LBB386:
 1528              	.LBB367:
  54:../../../DaisySP/Source/Synthesis/oscillator.h ****         amp_       = 0.5f;
 1529              		.loc 2 54 20 view .LVU380
 1530 011c 9FED377A 		vldr.32	s14, .L46+28
  57:../../../DaisySP/Source/Synthesis/oscillator.h ****         phase_inc_ = CalcPhaseInc(freq_);
 1531              		.loc 2 57 20 view .LVU381
 1532 0120 0023     		movs	r3, #0
  58:../../../DaisySP/Source/Synthesis/oscillator.h ****         waveform_  = WAVE_SIN;
 1533              		.loc 2 58 34 view .LVU382
 1534 0122 2846     		mov	r0, r5
 1535              	.LBE367:
 1536              	.LBE386:
 121:oscillator.cpp ****     osc.Init(sample_rate);
 122:oscillator.cpp ****     // lfo.Init(20.0f);
 123:oscillator.cpp ****     env.Init(sample_rate);
 1537              		.loc 12 123 13 view .LVU383
ARM GAS  C:\Users\Miguel\AppData\Local\Temp\ccTW1OPO.s 			page 57


 1538 0124 364F     		ldr	r7, .L46+32
 1539              	.LBB387:
 1540              	.LBB368:
  53:../../../DaisySP/Source/Synthesis/oscillator.h ****         freq_      = 100.0f;
 1541              		.loc 2 53 27 view .LVU384
 1542 0126 C8EE276A 		vdiv.f32	s13, s16, s15
  54:../../../DaisySP/Source/Synthesis/oscillator.h ****         amp_       = 0.5f;
 1543              		.loc 2 54 20 view .LVU385
 1544 012a 85ED027A 		vstr.32	s14, [r5, #8]
 1545              	.LBE368:
 1546              	.LBE387:
 120:oscillator.cpp ****     osc.Init(sample_rate);
 1547              		.loc 12 120 17 view .LVU386
 1548 012e C4ED007A 		vstr.32	s15, [r4]
 121:oscillator.cpp ****     // lfo.Init(20.0f);
 1549              		.loc 12 121 5 is_stmt 1 view .LVU387
 1550              	.LVL110:
 1551              	.LBB388:
 1552              	.LBI362:
  50:../../../DaisySP/Source/Synthesis/oscillator.h ****     {
 1553              		.loc 2 50 10 view .LVU388
 1554              	.LBB369:
  52:../../../DaisySP/Source/Synthesis/oscillator.h ****         sr_recip_  = 1.0f / sample_rate;
 1555              		.loc 2 52 9 view .LVU389
  52:../../../DaisySP/Source/Synthesis/oscillator.h ****         sr_recip_  = 1.0f / sample_rate;
 1556              		.loc 2 52 20 is_stmt 0 view .LVU390
 1557 0132 C5ED047A 		vstr.32	s15, [r5, #16]
  53:../../../DaisySP/Source/Synthesis/oscillator.h ****         freq_      = 100.0f;
 1558              		.loc 2 53 9 is_stmt 1 view .LVU391
  57:../../../DaisySP/Source/Synthesis/oscillator.h ****         phase_inc_ = CalcPhaseInc(freq_);
 1559              		.loc 2 57 20 is_stmt 0 view .LVU392
 1560 0136 AB61     		str	r3, [r5, #24]	@ float
  55:../../../DaisySP/Source/Synthesis/oscillator.h ****         pw_        = 0.5f;
 1561              		.loc 2 55 20 view .LVU393
 1562 0138 6E60     		str	r6, [r5, #4]	@ float
  58:../../../DaisySP/Source/Synthesis/oscillator.h ****         waveform_  = WAVE_SIN;
 1563              		.loc 2 58 34 view .LVU394
 1564 013a B0EE470A 		vmov.f32	s0, s14
 1565              	.LVL111:
  56:../../../DaisySP/Source/Synthesis/oscillator.h ****         phase_     = 0.0f;
 1566              		.loc 2 56 20 view .LVU395
 1567 013e EE60     		str	r6, [r5, #12]	@ float
  53:../../../DaisySP/Source/Synthesis/oscillator.h ****         freq_      = 100.0f;
 1568              		.loc 2 53 20 view .LVU396
 1569 0140 C5ED056A 		vstr.32	s13, [r5, #20]
  54:../../../DaisySP/Source/Synthesis/oscillator.h ****         amp_       = 0.5f;
 1570              		.loc 2 54 9 is_stmt 1 view .LVU397
  55:../../../DaisySP/Source/Synthesis/oscillator.h ****         pw_        = 0.5f;
 1571              		.loc 2 55 9 view .LVU398
  56:../../../DaisySP/Source/Synthesis/oscillator.h ****         phase_     = 0.0f;
 1572              		.loc 2 56 9 view .LVU399
  57:../../../DaisySP/Source/Synthesis/oscillator.h ****         phase_inc_ = CalcPhaseInc(freq_);
 1573              		.loc 2 57 9 view .LVU400
  58:../../../DaisySP/Source/Synthesis/oscillator.h ****         waveform_  = WAVE_SIN;
 1574              		.loc 2 58 9 view .LVU401
  58:../../../DaisySP/Source/Synthesis/oscillator.h ****         waveform_  = WAVE_SIN;
 1575              		.loc 2 58 34 is_stmt 0 view .LVU402
ARM GAS  C:\Users\Miguel\AppData\Local\Temp\ccTW1OPO.s 			page 58


 1576 0144 FFF7FEFF 		bl	_ZN7daisysp10Oscillator12CalcPhaseIncEf
 1577              	.LVL112:
  58:../../../DaisySP/Source/Synthesis/oscillator.h ****         waveform_  = WAVE_SIN;
 1578              		.loc 2 58 34 view .LVU403
 1579 0148 F0EE407A 		vmov.f32	s15, s0
  61:../../../DaisySP/Source/Synthesis/oscillator.h ****     }
 1580              		.loc 2 61 20 view .LVU404
 1581 014c 40F20113 		movw	r3, #257
 1582              	.LBE369:
 1583              	.LBE388:
 1584              		.loc 12 123 13 view .LVU405
 1585 0150 0121     		movs	r1, #1
 1586 0152 3846     		mov	r0, r7
 1587 0154 94ED000A 		vldr.32	s0, [r4]
 1588              	.LBB389:
 1589              	.LBB370:
  61:../../../DaisySP/Source/Synthesis/oscillator.h ****     }
 1590              		.loc 2 61 20 view .LVU406
 1591 0158 2B85     		strh	r3, [r5, #40]	@ movhi
  58:../../../DaisySP/Source/Synthesis/oscillator.h ****         waveform_  = WAVE_SIN;
 1592              		.loc 2 58 20 view .LVU407
 1593 015a C5ED077A 		vstr.32	s15, [r5, #28]
  59:../../../DaisySP/Source/Synthesis/oscillator.h ****         eoc_       = true;
 1594              		.loc 2 59 9 is_stmt 1 view .LVU408
  59:../../../DaisySP/Source/Synthesis/oscillator.h ****         eoc_       = true;
 1595              		.loc 2 59 20 is_stmt 0 view .LVU409
 1596 015e 85F80080 		strb	r8, [r5]
  60:../../../DaisySP/Source/Synthesis/oscillator.h ****         eor_       = true;
 1597              		.loc 2 60 9 is_stmt 1 view .LVU410
  61:../../../DaisySP/Source/Synthesis/oscillator.h ****     }
 1598              		.loc 2 61 9 view .LVU411
 1599              	.LVL113:
  61:../../../DaisySP/Source/Synthesis/oscillator.h ****     }
 1600              		.loc 2 61 9 is_stmt 0 view .LVU412
 1601              	.LBE370:
 1602              	.LBE389:
 1603              		.loc 12 123 5 is_stmt 1 view .LVU413
 1604              		.loc 12 123 13 is_stmt 0 view .LVU414
 1605 0162 FFF7FEFF 		bl	_ZN7daisysp4Adsr4InitEfi
 1606              	.LVL114:
 124:oscillator.cpp **** 
 125:oscillator.cpp ****     // Set up metro to pulse x second
 126:oscillator.cpp ****     tick.Init(1.0f, sample_rate);
 1607              		.loc 12 126 5 is_stmt 1 view .LVU415
 1608              		.loc 12 126 14 is_stmt 0 view .LVU416
 1609 0166 D4ED000A 		vldr.32	s1, [r4]
 1610 016a B0EE480A 		vmov.f32	s0, s16
 1611 016e 2548     		ldr	r0, .L46+36
 1612 0170 FFF7FEFF 		bl	_ZN7daisysp5Metro4InitEff
 1613              	.LVL115:
 127:oscillator.cpp **** 
 128:oscillator.cpp ****     //Set envelope parameters
 129:oscillator.cpp ****     env.SetTime(ADSR_SEG_ATTACK, 1.0f);
 1614              		.loc 12 129 5 is_stmt 1 view .LVU417
 1615              		.loc 12 129 16 is_stmt 0 view .LVU418
 1616 0174 3846     		mov	r0, r7
 1617 0176 B0EE480A 		vmov.f32	s0, s16
ARM GAS  C:\Users\Miguel\AppData\Local\Temp\ccTW1OPO.s 			page 59


 1618 017a 0121     		movs	r1, #1
 1619 017c FFF7FEFF 		bl	_ZN7daisysp4Adsr7SetTimeEif
 1620              	.LVL116:
 130:oscillator.cpp ****     env.SetTime(ADSR_SEG_DECAY, 1.0f);
 1621              		.loc 12 130 5 is_stmt 1 view .LVU419
 1622              		.loc 12 130 16 is_stmt 0 view .LVU420
 1623 0180 0221     		movs	r1, #2
 1624 0182 3846     		mov	r0, r7
 1625 0184 B0EE480A 		vmov.f32	s0, s16
 1626 0188 FFF7FEFF 		bl	_ZN7daisysp4Adsr7SetTimeEif
 1627              	.LVL117:
 131:oscillator.cpp **** 
 132:oscillator.cpp ****     env.SetSustainLevel(.50);
 1628              		.loc 12 132 5 is_stmt 1 view .LVU421
 1629              	.LBB390:
 1630              	.LBI390:
  74:../../../DaisySP/Source/Control/adsr.h ****     {
 1631              		.loc 1 74 17 view .LVU422
 1632              	.LBB391:
  76:../../../DaisySP/Source/Control/adsr.h ****                                        : (sus_level > 1.f) ? 1.f : sus_level;
 1633              		.loc 1 76 9 view .LVU423
 1634              		.loc 1 78 9 view .LVU424
 1635              	.LBE391:
 1636              	.LBE390:
 1637              	.LBB393:
 1638              	.LBB394:
  69:../../../DaisySP/Source/Synthesis/oscillator.h ****         phase_inc_ = CalcPhaseInc(f);
 1639              		.loc 2 69 20 is_stmt 0 view .LVU425
 1640 018c 9FED1E0A 		vldr.32	s0, .L46+40
  70:../../../DaisySP/Source/Synthesis/oscillator.h ****     }
 1641              		.loc 2 70 34 view .LVU426
 1642 0190 2846     		mov	r0, r5
 1643              	.LBE394:
 1644              	.LBE393:
 1645              	.LBB398:
 1646              	.LBB392:
 1647              		.loc 1 78 20 view .LVU427
 1648 0192 3E60     		str	r6, [r7]	@ float
 1649              	.LVL118:
 1650              		.loc 1 78 20 view .LVU428
 1651              	.LBE392:
 1652              	.LBE398:
 133:oscillator.cpp **** 
 134:oscillator.cpp ****     // Set parameters for oscillator
 135:oscillator.cpp ****     osc.SetWaveform(osc.WAVE_SIN);
 1653              		.loc 12 135 5 is_stmt 1 view .LVU429
 1654              	.LBB399:
 1655              	.LBI399:
  79:../../../DaisySP/Source/Synthesis/oscillator.h ****     {
 1656              		.loc 2 79 17 view .LVU430
 1657              	.LBB400:
 1658              		.loc 2 81 9 view .LVU431
 1659              		.loc 2 81 19 is_stmt 0 view .LVU432
 1660 0194 85F80080 		strb	r8, [r5]
 1661              	.LVL119:
 1662              		.loc 2 81 19 view .LVU433
 1663              	.LBE400:
ARM GAS  C:\Users\Miguel\AppData\Local\Temp\ccTW1OPO.s 			page 60


 1664              	.LBE399:
 136:oscillator.cpp ****     osc.SetFreq(440);
 1665              		.loc 12 136 5 is_stmt 1 view .LVU434
 1666              	.LBB401:
 1667              	.LBI393:
  67:../../../DaisySP/Source/Synthesis/oscillator.h ****     {
 1668              		.loc 2 67 17 view .LVU435
 1669              	.LBB395:
  69:../../../DaisySP/Source/Synthesis/oscillator.h ****         phase_inc_ = CalcPhaseInc(f);
 1670              		.loc 2 69 9 view .LVU436
 1671              	.LBE395:
 1672              	.LBE401:
 137:oscillator.cpp ****     osc.SetAmp(0.5);
 138:oscillator.cpp **** 
 139:oscillator.cpp ****     // Set parameters for reverb
 140:oscillator.cpp ****     reverb.Init(sample_rate);
 1673              		.loc 12 140 16 is_stmt 0 view .LVU437
 1674 0198 1C4F     		ldr	r7, .L46+44
 1675              	.LBB402:
 1676              	.LBB396:
  69:../../../DaisySP/Source/Synthesis/oscillator.h ****         phase_inc_ = CalcPhaseInc(f);
 1677              		.loc 2 69 20 view .LVU438
 1678 019a 85ED020A 		vstr.32	s0, [r5, #8]
  70:../../../DaisySP/Source/Synthesis/oscillator.h ****     }
 1679              		.loc 2 70 9 is_stmt 1 view .LVU439
  70:../../../DaisySP/Source/Synthesis/oscillator.h ****     }
 1680              		.loc 2 70 34 is_stmt 0 view .LVU440
 1681 019e FFF7FEFF 		bl	_ZN7daisysp10Oscillator12CalcPhaseIncEf
 1682              	.LVL120:
 1683 01a2 F0EE407A 		vmov.f32	s15, s0
 1684              	.LBE396:
 1685              	.LBE402:
 1686              		.loc 12 140 16 view .LVU441
 1687 01a6 3846     		mov	r0, r7
 1688 01a8 94ED000A 		vldr.32	s0, [r4]
 1689              	.LBB403:
 1690              	.LBB404:
  76:../../../DaisySP/Source/Synthesis/oscillator.h ****     /** Sets the waveform to be synthesized by the Process() function.
 1691              		.loc 2 76 46 view .LVU442
 1692 01ac 6E60     		str	r6, [r5, #4]	@ float
 1693              	.LBE404:
 1694              	.LBE403:
 1695              	.LBB406:
 1696              	.LBB397:
  70:../../../DaisySP/Source/Synthesis/oscillator.h ****     }
 1697              		.loc 2 70 20 view .LVU443
 1698 01ae C5ED077A 		vstr.32	s15, [r5, #28]
 1699              	.LVL121:
  70:../../../DaisySP/Source/Synthesis/oscillator.h ****     }
 1700              		.loc 2 70 20 view .LVU444
 1701              	.LBE397:
 1702              	.LBE406:
 137:oscillator.cpp ****     osc.SetAmp(0.5);
 1703              		.loc 12 137 5 is_stmt 1 view .LVU445
 1704              	.LBB407:
 1705              	.LBI403:
  76:../../../DaisySP/Source/Synthesis/oscillator.h ****     /** Sets the waveform to be synthesized by the Process() function.
ARM GAS  C:\Users\Miguel\AppData\Local\Temp\ccTW1OPO.s 			page 61


 1706              		.loc 2 76 17 view .LVU446
 1707              	.LBB405:
  76:../../../DaisySP/Source/Synthesis/oscillator.h ****     /** Sets the waveform to be synthesized by the Process() function.
 1708              		.loc 2 76 41 view .LVU447
  76:../../../DaisySP/Source/Synthesis/oscillator.h ****     /** Sets the waveform to be synthesized by the Process() function.
 1709              		.loc 2 76 41 is_stmt 0 view .LVU448
 1710              	.LBE405:
 1711              	.LBE407:
 1712              		.loc 12 140 5 is_stmt 1 view .LVU449
 1713              		.loc 12 140 16 is_stmt 0 view .LVU450
 1714 01b2 FFF7FEFF 		bl	_ZN7daisysp8ReverbSc4InitEf
 1715              	.LVL122:
 141:oscillator.cpp ****     reverb.SetFeedback(0.1f);
 1716              		.loc 12 141 5 is_stmt 1 view .LVU451
 1717              	.LBB408:
 1718              	.LBI408:
  51:../../../DaisySP/DaisySP-LGPL/Source/Effects/reverbsc.h ****     /** controls the internal dampening filter's cutoff frequency.
 1719              		.loc 5 51 17 view .LVU452
 1720              	.LBB409:
  51:../../../DaisySP/DaisySP-LGPL/Source/Effects/reverbsc.h ****     /** controls the internal dampening filter's cutoff frequency.
 1721              		.loc 5 51 48 view .LVU453
  51:../../../DaisySP/DaisySP-LGPL/Source/Effects/reverbsc.h ****     /** controls the internal dampening filter's cutoff frequency.
 1722              		.loc 5 51 58 is_stmt 0 view .LVU454
 1723 01b6 164A     		ldr	r2, .L46+48
 1724              	.LBE409:
 1725              	.LBE408:
 1726              	.LBB411:
 1727              	.LBB412:
 1728              		.loc 5 55 56 view .LVU455
 1729 01b8 164B     		ldr	r3, .L46+52
 1730              	.LBE412:
 1731              	.LBE411:
 142:oscillator.cpp ****     reverb.SetLpFreq(18000.0f);
 143:oscillator.cpp **** 
 144:oscillator.cpp ****     // start callback
 145:oscillator.cpp ****     hw.StartAudio(AudioCallback);
 1732              		.loc 12 145 18 view .LVU456
 1733 01ba 1749     		ldr	r1, .L46+56
 1734 01bc 0848     		ldr	r0, .L46
 1735              	.LBB414:
 1736              	.LBB410:
  51:../../../DaisySP/DaisySP-LGPL/Source/Effects/reverbsc.h ****     /** controls the internal dampening filter's cutoff frequency.
 1737              		.loc 5 51 58 view .LVU457
 1738 01be 3A60     		str	r2, [r7]	@ float
 1739              	.LVL123:
  51:../../../DaisySP/DaisySP-LGPL/Source/Effects/reverbsc.h ****     /** controls the internal dampening filter's cutoff frequency.
 1740              		.loc 5 51 58 view .LVU458
 1741              	.LBE410:
 1742              	.LBE414:
 142:oscillator.cpp ****     reverb.SetLpFreq(18000.0f);
 1743              		.loc 12 142 5 is_stmt 1 view .LVU459
 1744              	.LBB415:
 1745              	.LBI411:
 1746              		.loc 5 55 17 view .LVU460
 1747              	.LBB413:
 1748              		.loc 5 55 48 view .LVU461
 1749              		.loc 5 55 56 is_stmt 0 view .LVU462
ARM GAS  C:\Users\Miguel\AppData\Local\Temp\ccTW1OPO.s 			page 62


 1750 01c0 7B60     		str	r3, [r7, #4]	@ float
 1751              	.LVL124:
 1752              		.loc 5 55 56 view .LVU463
 1753              	.LBE413:
 1754              	.LBE415:
 1755              		.loc 12 145 5 is_stmt 1 view .LVU464
 1756              		.loc 12 145 18 is_stmt 0 view .LVU465
 1757 01c2 FFF7FEFF 		bl	_ZN5daisy9DaisySeed10StartAudioEPFvPKfPfjE
 1758              	.LVL125:
 1759              	.L44:
 146:oscillator.cpp **** 
 147:oscillator.cpp ****     while(1) 
 1760              		.loc 12 147 5 is_stmt 1 discriminator 1 view .LVU466
 148:oscillator.cpp ****     {
 149:oscillator.cpp ****         changeWaveForm();
 1761              		.loc 12 149 9 discriminator 1 view .LVU467
 1762              		.loc 12 149 23 is_stmt 0 discriminator 1 view .LVU468
 1763 01c6 FFF7FEFF 		bl	_Z14changeWaveFormv
 1764              	.LVL126:
 150:oscillator.cpp ****         hw.PrintLine("Input 1: %d", sample_rate);      
 1765              		.loc 12 150 9 is_stmt 1 discriminator 1 view .LVU469
 1766              	.LBB416:
 1767              	.LBI416:
 126:../../../libDaisy/src/daisy_seed.h ****     {
 1768              		.loc 7 126 17 discriminator 1 view .LVU470
 1769              	.LBB417:
 128:../../../libDaisy/src/daisy_seed.h ****     }
 1770              		.loc 7 128 23 is_stmt 0 discriminator 1 view .LVU471
 1771 01ca D4ED007A 		vldr.32	s15, [r4]
 1772 01ce 1348     		ldr	r0, .L46+60
 1773 01d0 B7EEE77A 		vcvt.f64.f32	d7, s15
 1774 01d4 53EC172B 		vmov	r2, r3, d7
 1775 01d8 FFF7FEFF 		bl	_ZN5daisy6LoggerILNS_17LoggerDestinationE1EE9PrintLineEPKcz
 1776              	.LVL127:
 128:../../../libDaisy/src/daisy_seed.h ****     }
 1777              		.loc 7 128 23 discriminator 1 view .LVU472
 1778 01dc F3E7     		b	.L44
 1779              	.L47:
 1780 01de 00BF     		.align	2
 1781              	.L46:
 1782 01e0 00000000 		.word	.LANCHOR2
 1783 01e4 00000000 		.word	.LANCHOR5
 1784 01e8 010E0001 		.word	16780801
 1785 01ec 00000000 		.word	.LANCHOR4
 1786 01f0 010F0001 		.word	16781057
 1787 01f4 00000000 		.word	.LANCHOR6
 1788 01f8 18000000 		.word	.LANCHOR2+24
 1789 01fc 0000C842 		.word	1120403456
 1790 0200 00000000 		.word	.LANCHOR3
 1791 0204 00000000 		.word	.LANCHOR0
 1792 0208 0000DC43 		.word	1138491392
 1793 020c 00000000 		.word	_ZL6reverb
 1794 0210 CDCCCC3D 		.word	1036831949
 1795 0214 00A08C46 		.word	1183621120
 1796 0218 00000000 		.word	_ZL13AudioCallbackPKfPfj
 1797 021c 00000000 		.word	.LC2
 1798              	.LBE417:
ARM GAS  C:\Users\Miguel\AppData\Local\Temp\ccTW1OPO.s 			page 63


 1799              	.LBE416:
 1800              		.cfi_endproc
 1801              	.LFE4849:
 1803              		.section	.text.startup._GLOBAL__sub_I_gate,"ax",%progbits
 1804              		.align	1
 1805              		.p2align 2,,3
 1806              		.syntax unified
 1807              		.thumb
 1808              		.thumb_func
 1809              		.fpu fpv5-d16
 1811              	_GLOBAL__sub_I_gate:
 1812              	.LFB5414:
 151:oscillator.cpp ****     }
 152:oscillator.cpp **** }
 1813              		.loc 12 152 1 is_stmt 1 view -0
 1814              		.cfi_startproc
 1815              		@ args = 0, pretend = 0, frame = 0
 1816              		@ frame_needed = 0, uses_anonymous_args = 0
 1817              	.LBB454:
 1818              	.LBI454:
 1819              		.loc 12 152 1 view .LVU474
 1820              	.LVL128:
 1821              	.LBB455:
 1822              	.LBB456:
 1823              	.LBI456:
  21:../../../libDaisy/src/daisy_seed.h ****     ~DaisySeed() {}
 1824              		.loc 7 21 5 view .LVU475
 1825              	.LBB457:
 1826              	.LBB458:
 1827              	.LBI458:
 1828              		.file 15 "../../../libDaisy/src/per/qspi.h"
   1:../../../libDaisy/src/per/qspi.h **** #ifndef DSY_QSPI
   2:../../../libDaisy/src/per/qspi.h **** #define DSY_QSPI /**< Macro */
   3:../../../libDaisy/src/per/qspi.h **** 
   4:../../../libDaisy/src/per/qspi.h **** #ifndef UNIT_TEST // for unit tests, a dummy implementation
   5:../../../libDaisy/src/per/qspi.h **** 
   6:../../../libDaisy/src/per/qspi.h **** #include <cstdint>
   7:../../../libDaisy/src/per/qspi.h **** #include "daisy_core.h" // Added for dsy_gpio_pin typedef
   8:../../../libDaisy/src/per/qspi.h **** 
   9:../../../libDaisy/src/per/qspi.h **** #define DSY_QSPI_TEXT       \
  10:../../../libDaisy/src/per/qspi.h ****     __attribute__((section( \
  11:../../../libDaisy/src/per/qspi.h ****         ".qspiflash_text"))) /**< used for reading memory in memory_mapped mode. */
  12:../../../libDaisy/src/per/qspi.h **** #define DSY_QSPI_DATA       \
  13:../../../libDaisy/src/per/qspi.h ****     __attribute__((section( \
  14:../../../libDaisy/src/per/qspi.h ****         ".qspiflash_data"))) /**< used for reading memory in memory_mapped mode. */
  15:../../../libDaisy/src/per/qspi.h **** #define DSY_QSPI_BSS        \
  16:../../../libDaisy/src/per/qspi.h ****     __attribute__((section( \
  17:../../../libDaisy/src/per/qspi.h ****         ".qspiflash_bss"))) /**< used for reading memory in memory_mapped mode. */
  18:../../../libDaisy/src/per/qspi.h **** 
  19:../../../libDaisy/src/per/qspi.h **** namespace daisy
  20:../../../libDaisy/src/per/qspi.h **** {
  21:../../../libDaisy/src/per/qspi.h **** /** @addtogroup serial
  22:../../../libDaisy/src/per/qspi.h **** @{
  23:../../../libDaisy/src/per/qspi.h **** */
  24:../../../libDaisy/src/per/qspi.h **** 
  25:../../../libDaisy/src/per/qspi.h **** /** 
  26:../../../libDaisy/src/per/qspi.h ****  Driver for QSPI peripheral to interface with external flash memory. \n 
ARM GAS  C:\Users\Miguel\AppData\Local\Temp\ccTW1OPO.s 			page 64


  27:../../../libDaisy/src/per/qspi.h ****     Currently supported QSPI Devices: \n 
  28:../../../libDaisy/src/per/qspi.h ****     * IS25LP080D
  29:../../../libDaisy/src/per/qspi.h **** */
  30:../../../libDaisy/src/per/qspi.h **** class QSPIHandle
  31:../../../libDaisy/src/per/qspi.h **** {
  32:../../../libDaisy/src/per/qspi.h ****   public:
  33:../../../libDaisy/src/per/qspi.h ****     enum Result
  34:../../../libDaisy/src/per/qspi.h ****     {
  35:../../../libDaisy/src/per/qspi.h ****         OK = 0,
  36:../../../libDaisy/src/per/qspi.h ****         ERR
  37:../../../libDaisy/src/per/qspi.h ****     };
  38:../../../libDaisy/src/per/qspi.h **** 
  39:../../../libDaisy/src/per/qspi.h ****     /** Indicates the current status of the module. 
  40:../../../libDaisy/src/per/qspi.h ****          *  Warnings are indicated by a leading W.
  41:../../../libDaisy/src/per/qspi.h ****          *  Errors are indicated by a leading E and cause an immediate exit.
  42:../../../libDaisy/src/per/qspi.h ****          * 
  43:../../../libDaisy/src/per/qspi.h ****          *  \param GOOD - No errors have been reported.
  44:../../../libDaisy/src/per/qspi.h ****          *  \param E_HAL_ERROR - HAL code did not return HAL_OK.
  45:../../../libDaisy/src/per/qspi.h ****          *  \param E_SWITCHING_MODES - An error was encountered while switching QSPI peripheral mod
  46:../../../libDaisy/src/per/qspi.h ****          *  \param E_INVALID_MODE - QSPI should not be written to while the program is executing fr
  47:../../../libDaisy/src/per/qspi.h ****          */
  48:../../../libDaisy/src/per/qspi.h ****     enum Status
  49:../../../libDaisy/src/per/qspi.h ****     {
  50:../../../libDaisy/src/per/qspi.h ****         GOOD = 0,
  51:../../../libDaisy/src/per/qspi.h ****         E_HAL_ERROR,
  52:../../../libDaisy/src/per/qspi.h ****         E_SWITCHING_MODES,
  53:../../../libDaisy/src/per/qspi.h ****         E_INVALID_MODE,
  54:../../../libDaisy/src/per/qspi.h ****     };
  55:../../../libDaisy/src/per/qspi.h **** 
  56:../../../libDaisy/src/per/qspi.h ****     /** Configuration structure for interfacing with QSPI Driver */
  57:../../../libDaisy/src/per/qspi.h ****     struct Config
  58:../../../libDaisy/src/per/qspi.h ****     {
  59:../../../libDaisy/src/per/qspi.h ****         /** Flash Devices supported. (Both of these are more-or-less the same, just different sizes
  60:../../../libDaisy/src/per/qspi.h ****         enum Device
  61:../../../libDaisy/src/per/qspi.h ****         {
  62:../../../libDaisy/src/per/qspi.h ****             IS25LP080D,  /**< & */
  63:../../../libDaisy/src/per/qspi.h ****             IS25LP064A,  /**< & */
  64:../../../libDaisy/src/per/qspi.h ****             DEVICE_LAST, /**< & */
  65:../../../libDaisy/src/per/qspi.h ****         };
  66:../../../libDaisy/src/per/qspi.h **** 
  67:../../../libDaisy/src/per/qspi.h ****         /** 
  68:../../../libDaisy/src/per/qspi.h ****         Modes of operation.
  69:../../../libDaisy/src/per/qspi.h ****         Memory Mapped mode: QSPI configured so that the QSPI can be
  70:../../../libDaisy/src/per/qspi.h ****         read from starting address 0x90000000. Writing is not
  71:../../../libDaisy/src/per/qspi.h ****         possible in this mode. \n 
  72:../../../libDaisy/src/per/qspi.h ****         Indirect Polling mode: Device driver enabled. 
  73:../../../libDaisy/src/per/qspi.h ****         */
  74:../../../libDaisy/src/per/qspi.h ****         enum Mode
  75:../../../libDaisy/src/per/qspi.h ****         {
  76:../../../libDaisy/src/per/qspi.h ****             MEMORY_MAPPED,    /**< & */
  77:../../../libDaisy/src/per/qspi.h ****             INDIRECT_POLLING, /**< & */
  78:../../../libDaisy/src/per/qspi.h ****             MODE_LAST,
  79:../../../libDaisy/src/per/qspi.h ****         };
  80:../../../libDaisy/src/per/qspi.h **** 
  81:../../../libDaisy/src/per/qspi.h ****         //SCK,  CE# (active low)
  82:../../../libDaisy/src/per/qspi.h ****         struct
  83:../../../libDaisy/src/per/qspi.h ****         {
ARM GAS  C:\Users\Miguel\AppData\Local\Temp\ccTW1OPO.s 			page 65


  84:../../../libDaisy/src/per/qspi.h ****             dsy_gpio_pin io0; /**< & */
  85:../../../libDaisy/src/per/qspi.h ****             dsy_gpio_pin io1; /**< & */
  86:../../../libDaisy/src/per/qspi.h ****             dsy_gpio_pin io2; /**< & */
  87:../../../libDaisy/src/per/qspi.h ****             dsy_gpio_pin io3; /**< & */
  88:../../../libDaisy/src/per/qspi.h ****             dsy_gpio_pin clk; /**< & */
  89:../../../libDaisy/src/per/qspi.h ****             dsy_gpio_pin ncs; /**< & */
  90:../../../libDaisy/src/per/qspi.h ****         } pin_config;
  91:../../../libDaisy/src/per/qspi.h **** 
  92:../../../libDaisy/src/per/qspi.h ****         Device device;
  93:../../../libDaisy/src/per/qspi.h ****         Mode   mode;
  94:../../../libDaisy/src/per/qspi.h ****     };
  95:../../../libDaisy/src/per/qspi.h **** 
  96:../../../libDaisy/src/per/qspi.h ****     /** 
  97:../../../libDaisy/src/per/qspi.h ****         Initializes QSPI peripheral, and Resets, and prepares memory for access.
  98:../../../libDaisy/src/per/qspi.h ****         \param config should be populated with the mode, device and pin_config before calling this 
  99:../../../libDaisy/src/per/qspi.h ****         \return Result::OK or Result::ERR
 100:../../../libDaisy/src/per/qspi.h ****         */
 101:../../../libDaisy/src/per/qspi.h ****     Result Init(const Config& config);
 102:../../../libDaisy/src/per/qspi.h **** 
 103:../../../libDaisy/src/per/qspi.h ****     /** Returns the current config. */
 104:../../../libDaisy/src/per/qspi.h ****     const Config& GetConfig() const;
 105:../../../libDaisy/src/per/qspi.h **** 
 106:../../../libDaisy/src/per/qspi.h ****     // Couldn't this just be called before anything else in init? That
 107:../../../libDaisy/src/per/qspi.h ****     // would make manually calling it unnecessary.
 108:../../../libDaisy/src/per/qspi.h ****     /** 
 109:../../../libDaisy/src/per/qspi.h ****         Deinitializes the peripheral
 110:../../../libDaisy/src/per/qspi.h ****         This should be called before reinitializing QSPI in a different mode.
 111:../../../libDaisy/src/per/qspi.h ****         \return Result::OK or Result::ERR
 112:../../../libDaisy/src/per/qspi.h ****         */
 113:../../../libDaisy/src/per/qspi.h ****     Result DeInit();
 114:../../../libDaisy/src/per/qspi.h **** 
 115:../../../libDaisy/src/per/qspi.h ****     /** 
 116:../../../libDaisy/src/per/qspi.h ****         Writes a single page to to the specified address on the QSPI chip.
 117:../../../libDaisy/src/per/qspi.h ****         For IS25LP*, page size is 256 bytes.
 118:../../../libDaisy/src/per/qspi.h ****         \param address Address to write to
 119:../../../libDaisy/src/per/qspi.h ****         \param size Buffer size
 120:../../../libDaisy/src/per/qspi.h ****         \param buffer Buffer to write
 121:../../../libDaisy/src/per/qspi.h ****         \return Result::OK or Result::ERR
 122:../../../libDaisy/src/per/qspi.h ****         */
 123:../../../libDaisy/src/per/qspi.h ****     Result WritePage(uint32_t address, uint32_t size, uint8_t* buffer);
 124:../../../libDaisy/src/per/qspi.h **** 
 125:../../../libDaisy/src/per/qspi.h ****     /** 
 126:../../../libDaisy/src/per/qspi.h ****         Writes data in buffer to to the QSPI. Starting at address to address+size 
 127:../../../libDaisy/src/per/qspi.h ****         \param address Address to write to
 128:../../../libDaisy/src/per/qspi.h ****         \param size Buffer size
 129:../../../libDaisy/src/per/qspi.h ****         \param buffer Buffer to write
 130:../../../libDaisy/src/per/qspi.h ****         \return Result::OK or Result::ERR
 131:../../../libDaisy/src/per/qspi.h ****         */
 132:../../../libDaisy/src/per/qspi.h ****     Result Write(uint32_t address, uint32_t size, uint8_t* buffer);
 133:../../../libDaisy/src/per/qspi.h **** 
 134:../../../libDaisy/src/per/qspi.h ****     /** 
 135:../../../libDaisy/src/per/qspi.h ****         Erases the area specified on the chip.
 136:../../../libDaisy/src/per/qspi.h ****         Erasures will happen by 4K, 32K or 64K increments.
 137:../../../libDaisy/src/per/qspi.h ****         Smallest erase possible is 4kB at a time. (on IS25LP*)
 138:../../../libDaisy/src/per/qspi.h ****         \param start_addr Address to begin erasing from
 139:../../../libDaisy/src/per/qspi.h ****         \param end_addr  Address to stop erasing at
 140:../../../libDaisy/src/per/qspi.h ****         \return Result::OK or Result::ERR
ARM GAS  C:\Users\Miguel\AppData\Local\Temp\ccTW1OPO.s 			page 66


 141:../../../libDaisy/src/per/qspi.h ****         */
 142:../../../libDaisy/src/per/qspi.h ****     Result Erase(uint32_t start_addr, uint32_t end_addr);
 143:../../../libDaisy/src/per/qspi.h **** 
 144:../../../libDaisy/src/per/qspi.h ****     /**  
 145:../../../libDaisy/src/per/qspi.h ****          Erases a single sector of the chip.  
 146:../../../libDaisy/src/per/qspi.h ****         TODO: Document the size of this function. 
 147:../../../libDaisy/src/per/qspi.h ****         \param address Address of sector to erase
 148:../../../libDaisy/src/per/qspi.h ****         \return Result::OK or Result::ERR
 149:../../../libDaisy/src/per/qspi.h ****         */
 150:../../../libDaisy/src/per/qspi.h ****     Result EraseSector(uint32_t address);
 151:../../../libDaisy/src/per/qspi.h **** 
 152:../../../libDaisy/src/per/qspi.h ****     /** Returns the current class status. Useful for debugging.
 153:../../../libDaisy/src/per/qspi.h ****      *  \returns Status
 154:../../../libDaisy/src/per/qspi.h ****      */
 155:../../../libDaisy/src/per/qspi.h ****     Status GetStatus();
 156:../../../libDaisy/src/per/qspi.h **** 
 157:../../../libDaisy/src/per/qspi.h ****     /** Returns a pointer to the actual memory used 
 158:../../../libDaisy/src/per/qspi.h ****      *  The memory at this address is read-only
 159:../../../libDaisy/src/per/qspi.h ****      *  to write to it use the Write function.
 160:../../../libDaisy/src/per/qspi.h ****      * 
 161:../../../libDaisy/src/per/qspi.h ****      *  \param offset returns the pointer starting this 
 162:../../../libDaisy/src/per/qspi.h ****      *                many bytes into the memory
 163:../../../libDaisy/src/per/qspi.h ****     */
 164:../../../libDaisy/src/per/qspi.h ****     void* GetData(uint32_t offset = 0);
 165:../../../libDaisy/src/per/qspi.h **** 
 166:../../../libDaisy/src/per/qspi.h ****     QSPIHandle() : pimpl_(nullptr) {}
 1829              		.loc 15 166 5 view .LVU476
 1830              	.LBE458:
 1831              	.LBE457:
 1832              	.LBE456:
 1833              	.LBE455:
 1834              	.LBE454:
 1835              		.loc 12 152 1 is_stmt 0 view .LVU477
 1836 0000 38B5     		push	{r3, r4, r5, lr}
 1837              		.cfi_def_cfa_offset 16
 1838              		.cfi_offset 3, -16
 1839              		.cfi_offset 4, -12
 1840              		.cfi_offset 5, -8
 1841              		.cfi_offset 14, -4
 1842              	.LBB495:
 1843              	.LBB493:
 1844              	.LBB479:
 1845              	.LBB477:
 1846              	.LBB463:
 1847              	.LBB459:
 1848              	.LBB460:
 1849              		.loc 15 166 34 view .LVU478
 1850 0002 1E48     		ldr	r0, .L50
 1851 0004 0025     		movs	r5, #0
 1852              	.LBE460:
 1853              	.LBE459:
 1854              	.LBE463:
 1855              	.LBE477:
 1856              	.LBE479:
  12:oscillator.cpp **** static Oscillator osc, lfo;
 1857              		.loc 12 12 19 view .LVU479
 1858 0006 1E4C     		ldr	r4, .L50+4
ARM GAS  C:\Users\Miguel\AppData\Local\Temp\ccTW1OPO.s 			page 67


 1859 0008 1E49     		ldr	r1, .L50+8
 1860 000a 2246     		mov	r2, r4
 1861              	.LBB480:
 1862              	.LBB478:
 1863              	.LBB464:
 1864              	.LBB462:
 1865              	.LBB461:
 1866              		.loc 15 166 34 view .LVU480
 1867 000c 0560     		str	r5, [r0]
 1868              	.LVL129:
 1869              		.loc 15 166 34 view .LVU481
 1870              	.LBE461:
 1871              	.LBE462:
 1872              	.LBE464:
 1873              	.LBB465:
 1874              	.LBI465:
  95:../../../libDaisy/src/hid/audio.h ****     ~AudioHandle() {}
 1875              		.loc 11 95 5 is_stmt 1 view .LVU482
 1876              	.LBB466:
 1877              	.LBB467:
  95:../../../libDaisy/src/hid/audio.h ****     ~AudioHandle() {}
 1878              		.loc 11 95 35 is_stmt 0 view .LVU483
 1879 000e 4561     		str	r5, [r0, #20]
 1880              	.LVL130:
  95:../../../libDaisy/src/hid/audio.h ****     ~AudioHandle() {}
 1881              		.loc 11 95 35 view .LVU484
 1882              	.LBE467:
 1883              	.LBE466:
 1884              	.LBE465:
 1885              	.LBB468:
 1886              	.LBI468:
 109:../../../libDaisy/src/per/adc.h ****     ~AdcHandle() {}
 1887              		.loc 10 109 5 is_stmt 1 view .LVU485
 109:../../../libDaisy/src/per/adc.h ****     ~AdcHandle() {}
 1888              		.loc 10 109 5 is_stmt 0 view .LVU486
 1889              	.LBE468:
 1890              	.LBB469:
 1891              	.LBI469:
 1892              		.file 16 "../../../libDaisy/src/per/dac.h"
   1:../../../libDaisy/src/per/dac.h **** #pragma once
   2:../../../libDaisy/src/per/dac.h **** #ifndef DSY_DAC_H
   3:../../../libDaisy/src/per/dac.h **** #define DSY_DAC_H
   4:../../../libDaisy/src/per/dac.h **** 
   5:../../../libDaisy/src/per/dac.h **** #include "daisy_core.h"
   6:../../../libDaisy/src/per/dac.h **** 
   7:../../../libDaisy/src/per/dac.h **** namespace daisy
   8:../../../libDaisy/src/per/dac.h **** {
   9:../../../libDaisy/src/per/dac.h **** /** @brief DAC handle for Built-in DAC Peripheral 
  10:../../../libDaisy/src/per/dac.h ****  *  @ingroup per_analog
  11:../../../libDaisy/src/per/dac.h ****  ** 
  12:../../../libDaisy/src/per/dac.h ****  ** For now only Normal Mode is supported,
  13:../../../libDaisy/src/per/dac.h ****  ** Sample and hold mode provides reduced power consumption, but requires a bit more setup.
  14:../../../libDaisy/src/per/dac.h ****  **
  15:../../../libDaisy/src/per/dac.h ****  ** For now connecting the DAC through other internal peripherals is also not supported.
  16:../../../libDaisy/src/per/dac.h ****  **
  17:../../../libDaisy/src/per/dac.h ****  ** Since the DAC channels have dedicated pins we don't need to pass in a pin config like with
  18:../../../libDaisy/src/per/dac.h ****  ** other modules. However, it is still important to not try to use the DAC pins for anything else.
ARM GAS  C:\Users\Miguel\AppData\Local\Temp\ccTW1OPO.s 			page 68


  19:../../../libDaisy/src/per/dac.h ****  ** DAC Channel 1 is on PA4, and DAC Channel 2 is on PA5
  20:../../../libDaisy/src/per/dac.h ****  ***/
  21:../../../libDaisy/src/per/dac.h **** class DacHandle
  22:../../../libDaisy/src/per/dac.h **** {
  23:../../../libDaisy/src/per/dac.h ****   public:
  24:../../../libDaisy/src/per/dac.h ****     /** Return Values for the DacHandle class */
  25:../../../libDaisy/src/per/dac.h ****     enum class Result
  26:../../../libDaisy/src/per/dac.h ****     {
  27:../../../libDaisy/src/per/dac.h ****         OK,
  28:../../../libDaisy/src/per/dac.h ****         ERR,
  29:../../../libDaisy/src/per/dac.h ****     };
  30:../../../libDaisy/src/per/dac.h **** 
  31:../../../libDaisy/src/per/dac.h ****     /** Selects which channel(s) will be configured for use. */
  32:../../../libDaisy/src/per/dac.h ****     enum class Channel
  33:../../../libDaisy/src/per/dac.h ****     {
  34:../../../libDaisy/src/per/dac.h ****         ONE,
  35:../../../libDaisy/src/per/dac.h ****         TWO,
  36:../../../libDaisy/src/per/dac.h ****         BOTH,
  37:../../../libDaisy/src/per/dac.h ****     };
  38:../../../libDaisy/src/per/dac.h **** 
  39:../../../libDaisy/src/per/dac.h ****     /** Sets the Mode for the DAC channels.
  40:../../../libDaisy/src/per/dac.h ****      **
  41:../../../libDaisy/src/per/dac.h ****      ** Polling mode uses the blocking mode to transmit a single value at a time.
  42:../../../libDaisy/src/per/dac.h ****      **
  43:../../../libDaisy/src/per/dac.h ****      ** DMA mode uses a buffer, and periodically transmits it triggering a 
  44:../../../libDaisy/src/per/dac.h ****      ** callback to fill the buffer when it is ready for more samples.
  45:../../../libDaisy/src/per/dac.h ****      ***/
  46:../../../libDaisy/src/per/dac.h ****     enum class Mode
  47:../../../libDaisy/src/per/dac.h ****     {
  48:../../../libDaisy/src/per/dac.h ****         POLLING,
  49:../../../libDaisy/src/per/dac.h ****         DMA,
  50:../../../libDaisy/src/per/dac.h ****     };
  51:../../../libDaisy/src/per/dac.h **** 
  52:../../../libDaisy/src/per/dac.h ****     /** Sets the number of bits per sample transmitted out of the DAC.
  53:../../../libDaisy/src/per/dac.h ****      ** The output range will be: 0V - VDDA
  54:../../../libDaisy/src/per/dac.h ****      ** The resolution will be roughly: bitdepth / (VDDA - 0V) 
  55:../../../libDaisy/src/per/dac.h ****      ***/
  56:../../../libDaisy/src/per/dac.h ****     enum class BitDepth
  57:../../../libDaisy/src/per/dac.h ****     {
  58:../../../libDaisy/src/per/dac.h ****         BITS_8,
  59:../../../libDaisy/src/per/dac.h ****         BITS_12
  60:../../../libDaisy/src/per/dac.h ****     };
  61:../../../libDaisy/src/per/dac.h **** 
  62:../../../libDaisy/src/per/dac.h ****     /** Sets whether the DAC output is buffered for higher drive ability. */
  63:../../../libDaisy/src/per/dac.h ****     enum class BufferState
  64:../../../libDaisy/src/per/dac.h ****     {
  65:../../../libDaisy/src/per/dac.h ****         ENABLED,
  66:../../../libDaisy/src/per/dac.h ****         DISABLED,
  67:../../../libDaisy/src/per/dac.h ****     };
  68:../../../libDaisy/src/per/dac.h **** 
  69:../../../libDaisy/src/per/dac.h ****     /** Configuration structure for initializing the DAC structure. */
  70:../../../libDaisy/src/per/dac.h ****     struct Config
  71:../../../libDaisy/src/per/dac.h ****     {
  72:../../../libDaisy/src/per/dac.h ****         /** Target Samplerate in Hz used to configure the internal 
  73:../../../libDaisy/src/per/dac.h ****          ** timebase for DMA mode. Does nothing in POLLING mode.
  74:../../../libDaisy/src/per/dac.h ****          ** If the value is 0 at Init time this will default to 48000Hz 
  75:../../../libDaisy/src/per/dac.h ****          ** otherwise the driver will attempt meet the target.*/
ARM GAS  C:\Users\Miguel\AppData\Local\Temp\ccTW1OPO.s 			page 69


  76:../../../libDaisy/src/per/dac.h ****         uint32_t target_samplerate;
  77:../../../libDaisy/src/per/dac.h **** 
  78:../../../libDaisy/src/per/dac.h ****         Channel     chn;
  79:../../../libDaisy/src/per/dac.h ****         Mode        mode;
  80:../../../libDaisy/src/per/dac.h ****         BitDepth    bitdepth;
  81:../../../libDaisy/src/per/dac.h ****         BufferState buff_state;
  82:../../../libDaisy/src/per/dac.h ****     };
  83:../../../libDaisy/src/per/dac.h **** 
  84:../../../libDaisy/src/per/dac.h ****     DacHandle() : pimpl_(nullptr) {}
 1893              		.loc 16 84 5 is_stmt 1 view .LVU487
 1894              	.LBB470:
 1895              	.LBB471:
 1896              		.loc 16 84 33 is_stmt 0 view .LVU488
 1897 0010 0562     		str	r5, [r0, #32]
 1898              	.LVL131:
 1899              		.loc 16 84 33 view .LVU489
 1900              	.LBE471:
 1901              	.LBE470:
 1902              	.LBE469:
 1903              	.LBB472:
 1904              	.LBI472:
  40:../../../libDaisy/src/hid/usb.h **** 
 1905              		.loc 9 40 5 is_stmt 1 view .LVU490
  40:../../../libDaisy/src/hid/usb.h **** 
 1906              		.loc 9 40 5 is_stmt 0 view .LVU491
 1907              	.LBE472:
 1908              	.LBB473:
 1909              	.LBI473:
  96:../../../libDaisy/src/sys/system.h ****     ~System() {}
 1910              		.loc 8 96 5 is_stmt 1 view .LVU492
  96:../../../libDaisy/src/sys/system.h ****     ~System() {}
 1911              		.loc 8 96 5 is_stmt 0 view .LVU493
 1912              	.LBE473:
 1913              	.LBB474:
 1914              	.LBI474:
 1915              		.file 17 "../../../libDaisy/src/per/sai.h"
   1:../../../libDaisy/src/per/sai.h **** #pragma once
   2:../../../libDaisy/src/per/sai.h **** #ifndef DSY_SAI_H
   3:../../../libDaisy/src/per/sai.h **** #define DSY_SAI_H
   4:../../../libDaisy/src/per/sai.h **** 
   5:../../../libDaisy/src/per/sai.h **** #include "daisy_core.h"
   6:../../../libDaisy/src/per/sai.h **** 
   7:../../../libDaisy/src/per/sai.h **** namespace daisy
   8:../../../libDaisy/src/per/sai.h **** {
   9:../../../libDaisy/src/per/sai.h **** /** 
  10:../../../libDaisy/src/per/sai.h ****  * Support for I2S Audio Protocol with different bit-depth, samplerate options
  11:../../../libDaisy/src/per/sai.h ****  * Allows for master or slave, as well as freedom of selecting direction, 
  12:../../../libDaisy/src/per/sai.h ****  * and other behavior for each peripheral, and block.
  13:../../../libDaisy/src/per/sai.h ****  * 
  14:../../../libDaisy/src/per/sai.h ****  * DMA Transfer commands must use buffers located within non-cached memory or use cache maintenance
  15:../../../libDaisy/src/per/sai.h ****  * To declare an unitialized global element in the DMA memory section:
  16:../../../libDaisy/src/per/sai.h ****  *    int32_t DSY_DMA_BUFFER_SECTOR my_buffer[96];
  17:../../../libDaisy/src/per/sai.h ****  *
  18:../../../libDaisy/src/per/sai.h ****  * Callback functions will be called once per half of the buffer. In the above example, 
  19:../../../libDaisy/src/per/sai.h ****  * the callback function would be called once for every 48 samples.
  20:../../../libDaisy/src/per/sai.h ****  * 
  21:../../../libDaisy/src/per/sai.h ****  * Use SAI Handle like this:
ARM GAS  C:\Users\Miguel\AppData\Local\Temp\ccTW1OPO.s 			page 70


  22:../../../libDaisy/src/per/sai.h ****  * 
  23:../../../libDaisy/src/per/sai.h ****  *  SaiHandle::Config sai_config;
  24:../../../libDaisy/src/per/sai.h ****  *  sai_config.periph          = SaiHandle::Config::Peripheral::SAI_1;
  25:../../../libDaisy/src/per/sai.h ****  *  sai_config.sr              = SaiHandle::Config::SampleRate::SAI_48KHZ;
  26:../../../libDaisy/src/per/sai.h ****  *  sai_config.bit_depth       = SaiHandle::Config::BitDepth::SAI_24BIT;
  27:../../../libDaisy/src/per/sai.h ****  *  sai_config.a_sync          = SaiHandle::Config::Sync::MASTER;
  28:../../../libDaisy/src/per/sai.h ****  *  sai_config.b_sync          = SaiHandle::Config::Sync::SLAVE;
  29:../../../libDaisy/src/per/sai.h ****  *  sai_config.a_dir           = SaiHandle::Config::Direction::RECEIVE;
  30:../../../libDaisy/src/per/sai.h ****  *  sai_config.b_dir           = SaiHandle::Config::Direction::TRANSMIT;
  31:../../../libDaisy/src/per/sai.h ****  *  sai_config.pin_config.fs   = {DSY_GPIOE, 4};
  32:../../../libDaisy/src/per/sai.h ****  *  sai_config.pin_config.mclk = {DSY_GPIOE, 2};
  33:../../../libDaisy/src/per/sai.h ****  *  sai_config.pin_config.sck  = {DSY_GPIOE, 5};
  34:../../../libDaisy/src/per/sai.h ****  *  sai_config.pin_config.sa   = {DSY_GPIOE, 6};
  35:../../../libDaisy/src/per/sai.h ****  *  sai_config.pin_config.sb   = {DSY_GPIOE, 3};
  36:../../../libDaisy/src/per/sai.h ****  *  // Then Initialize
  37:../../../libDaisy/src/per/sai.h ****  *  SaiHandle sai;
  38:../../../libDaisy/src/per/sai.h ****  *  sai.Init(sai_config);
  39:../../../libDaisy/src/per/sai.h ****  *  // Now you can use it:
  40:../../../libDaisy/src/per/sai.h ****  *  sai.StartDma(. . .);
  41:../../../libDaisy/src/per/sai.h ****  */
  42:../../../libDaisy/src/per/sai.h **** class SaiHandle
  43:../../../libDaisy/src/per/sai.h **** {
  44:../../../libDaisy/src/per/sai.h ****   public:
  45:../../../libDaisy/src/per/sai.h ****     /** Contains settings for initialising an SAI Interface */
  46:../../../libDaisy/src/per/sai.h ****     struct Config
  47:../../../libDaisy/src/per/sai.h ****     {
  48:../../../libDaisy/src/per/sai.h ****         /** Specifies the internal peripheral to use (mapped to different hardware pins) */
  49:../../../libDaisy/src/per/sai.h ****         enum class Peripheral
  50:../../../libDaisy/src/per/sai.h ****         {
  51:../../../libDaisy/src/per/sai.h ****             SAI_1,
  52:../../../libDaisy/src/per/sai.h ****             SAI_2,
  53:../../../libDaisy/src/per/sai.h ****         };
  54:../../../libDaisy/src/per/sai.h **** 
  55:../../../libDaisy/src/per/sai.h ****         /** Rate at which samples will be streaming to/from the device. */
  56:../../../libDaisy/src/per/sai.h ****         enum class SampleRate
  57:../../../libDaisy/src/per/sai.h ****         {
  58:../../../libDaisy/src/per/sai.h ****             SAI_8KHZ,
  59:../../../libDaisy/src/per/sai.h ****             SAI_16KHZ,
  60:../../../libDaisy/src/per/sai.h ****             SAI_32KHZ,
  61:../../../libDaisy/src/per/sai.h ****             SAI_48KHZ,
  62:../../../libDaisy/src/per/sai.h ****             SAI_96KHZ,
  63:../../../libDaisy/src/per/sai.h ****         };
  64:../../../libDaisy/src/per/sai.h **** 
  65:../../../libDaisy/src/per/sai.h ****         /** Bit Depth that the hardware expects to be transferred to/from the device. */
  66:../../../libDaisy/src/per/sai.h ****         enum class BitDepth
  67:../../../libDaisy/src/per/sai.h ****         {
  68:../../../libDaisy/src/per/sai.h ****             SAI_16BIT,
  69:../../../libDaisy/src/per/sai.h ****             SAI_24BIT,
  70:../../../libDaisy/src/per/sai.h ****             SAI_32BIT,
  71:../../../libDaisy/src/per/sai.h ****         };
  72:../../../libDaisy/src/per/sai.h **** 
  73:../../../libDaisy/src/per/sai.h ****         /** Specifies whether a particular block is the master or the slave 
  74:../../../libDaisy/src/per/sai.h ****          ** If both are set to slave, no MCLK signal will be used, and it is
  75:../../../libDaisy/src/per/sai.h ****          ** expected that the codec will have its own xtal.
  76:../../../libDaisy/src/per/sai.h ****          */
  77:../../../libDaisy/src/per/sai.h ****         enum class Sync
  78:../../../libDaisy/src/per/sai.h ****         {
ARM GAS  C:\Users\Miguel\AppData\Local\Temp\ccTW1OPO.s 			page 71


  79:../../../libDaisy/src/per/sai.h ****             MASTER,
  80:../../../libDaisy/src/per/sai.h ****             SLAVE,
  81:../../../libDaisy/src/per/sai.h ****         };
  82:../../../libDaisy/src/per/sai.h **** 
  83:../../../libDaisy/src/per/sai.h ****         /** Specifies the direction for each peripheral block. */
  84:../../../libDaisy/src/per/sai.h ****         enum class Direction
  85:../../../libDaisy/src/per/sai.h ****         {
  86:../../../libDaisy/src/per/sai.h ****             TRANSMIT,
  87:../../../libDaisy/src/per/sai.h ****             RECEIVE,
  88:../../../libDaisy/src/per/sai.h ****         };
  89:../../../libDaisy/src/per/sai.h **** 
  90:../../../libDaisy/src/per/sai.h ****         Peripheral periph;
  91:../../../libDaisy/src/per/sai.h ****         struct
  92:../../../libDaisy/src/per/sai.h ****         {
  93:../../../libDaisy/src/per/sai.h ****             dsy_gpio_pin mclk, fs, sck, sa, sb;
  94:../../../libDaisy/src/per/sai.h ****         } pin_config;
  95:../../../libDaisy/src/per/sai.h ****         SampleRate sr;
  96:../../../libDaisy/src/per/sai.h ****         BitDepth   bit_depth;
  97:../../../libDaisy/src/per/sai.h ****         Sync       a_sync, b_sync;
  98:../../../libDaisy/src/per/sai.h ****         Direction  a_dir, b_dir;
  99:../../../libDaisy/src/per/sai.h ****     };
 100:../../../libDaisy/src/per/sai.h **** 
 101:../../../libDaisy/src/per/sai.h ****     /** Return values for SAI functions */
 102:../../../libDaisy/src/per/sai.h ****     enum class Result
 103:../../../libDaisy/src/per/sai.h ****     {
 104:../../../libDaisy/src/per/sai.h ****         OK,
 105:../../../libDaisy/src/per/sai.h ****         ERR,
 106:../../../libDaisy/src/per/sai.h ****     };
 107:../../../libDaisy/src/per/sai.h **** 
 108:../../../libDaisy/src/per/sai.h ****     SaiHandle() : pimpl_(nullptr) {}
 1916              		.loc 17 108 5 is_stmt 1 view .LVU494
 1917              	.LBB475:
 1918              	.LBB476:
 1919              		.loc 17 108 33 is_stmt 0 view .LVU495
 1920 0012 C563     		str	r5, [r0, #60]
 1921              	.LVL132:
 1922              		.loc 17 108 33 view .LVU496
 1923              	.LBE476:
 1924              	.LBE475:
 1925              	.LBE474:
 1926              	.LBE478:
 1927              	.LBE480:
  12:oscillator.cpp **** static Oscillator osc, lfo;
 1928              		.loc 12 12 19 view .LVU497
 1929 0014 FFF7FEFF 		bl	__aeabi_atexit
 1930              	.LVL133:
 1931              	.LBB481:
 1932              	.LBI481:
  23:../../../DaisySP/Source/Synthesis/oscillator.h ****     ~Oscillator() {}
 1933              		.loc 2 23 5 is_stmt 1 view .LVU498
  23:../../../DaisySP/Source/Synthesis/oscillator.h ****     ~Oscillator() {}
 1934              		.loc 2 23 5 is_stmt 0 view .LVU499
 1935              	.LBE481:
  13:oscillator.cpp **** static Adsr env;
 1936              		.loc 12 13 19 view .LVU500
 1937 0018 2246     		mov	r2, r4
 1938 001a 1B49     		ldr	r1, .L50+12
ARM GAS  C:\Users\Miguel\AppData\Local\Temp\ccTW1OPO.s 			page 72


 1939 001c 1B48     		ldr	r0, .L50+16
 1940 001e FFF7FEFF 		bl	__aeabi_atexit
 1941              	.LVL134:
 1942              	.LBB482:
 1943              	.LBI482:
  23:../../../DaisySP/Source/Synthesis/oscillator.h ****     ~Oscillator() {}
 1944              		.loc 2 23 5 is_stmt 1 view .LVU501
  23:../../../DaisySP/Source/Synthesis/oscillator.h ****     ~Oscillator() {}
 1945              		.loc 2 23 5 is_stmt 0 view .LVU502
 1946              	.LBE482:
  13:oscillator.cpp **** static Adsr env;
 1947              		.loc 12 13 24 view .LVU503
 1948 0022 2246     		mov	r2, r4
 1949 0024 1849     		ldr	r1, .L50+12
 1950 0026 1A48     		ldr	r0, .L50+20
 1951 0028 FFF7FEFF 		bl	__aeabi_atexit
 1952              	.LVL135:
 1953              	.LBB483:
 1954              	.LBI483:
  44:../../../DaisySP/Source/Control/adsr.h ****     ~Adsr() {}
 1955              		.loc 1 44 5 is_stmt 1 view .LVU504
 1956              	.LBB484:
 1957              	.LBB485:
  44:../../../DaisySP/Source/Control/adsr.h ****     ~Adsr() {}
 1958              		.loc 1 44 12 is_stmt 0 view .LVU505
 1959 002c 1948     		ldr	r0, .L50+24
 1960 002e 0023     		movs	r3, #0
 1961 0030 1949     		ldr	r1, .L50+28
 1962              	.LBE485:
 1963              	.LBE484:
 1964              	.LBE483:
  14:oscillator.cpp **** static Metro tick;
 1965              		.loc 12 14 13 view .LVU506
 1966 0032 2246     		mov	r2, r4
 1967              	.LBB488:
 1968              	.LBB487:
  44:../../../DaisySP/Source/Control/adsr.h ****     ~Adsr() {}
 1969              		.loc 1 44 12 view .LVU507
 1970 0034 8585     		strh	r5, [r0, #44]	@ movhi
 1971              	.LVL136:
 1972              	.LBB486:
  44:../../../DaisySP/Source/Control/adsr.h ****     ~Adsr() {}
 1973              		.loc 1 44 12 view .LVU508
 1974 0036 0360     		str	r3, [r0]	@ float
 1975 0038 4360     		str	r3, [r0, #4]	@ float
 1976 003a C360     		str	r3, [r0, #12]	@ float
 1977 003c C361     		str	r3, [r0, #28]	@ float
 1978 003e 0362     		str	r3, [r0, #32]	@ float
 1979 0040 4362     		str	r3, [r0, #36]	@ float
 1980 0042 8160     		str	r1, [r0, #8]	@ float
 1981 0044 0161     		str	r1, [r0, #16]	@ float
 1982 0046 4161     		str	r1, [r0, #20]	@ float
 1983 0048 8161     		str	r1, [r0, #24]	@ float
 1984              	.LBE486:
 1985              	.LBE487:
 1986              	.LBE488:
  14:oscillator.cpp **** static Metro tick;
ARM GAS  C:\Users\Miguel\AppData\Local\Temp\ccTW1OPO.s 			page 73


 1987              		.loc 12 14 13 view .LVU509
 1988 004a 1449     		ldr	r1, .L50+32
 1989 004c FFF7FEFF 		bl	__aeabi_atexit
 1990              	.LVL137:
 1991              	.LBB489:
 1992              	.LBI489:
  22:../../../DaisySP/Source/Utility/metro.h ****     ~Metro() {}
 1993              		.loc 4 22 5 is_stmt 1 view .LVU510
  22:../../../DaisySP/Source/Utility/metro.h ****     ~Metro() {}
 1994              		.loc 4 22 5 is_stmt 0 view .LVU511
 1995              	.LBE489:
  15:oscillator.cpp **** static Switch3 toggleWaveForm;
 1996              		.loc 12 15 14 view .LVU512
 1997 0050 2246     		mov	r2, r4
 1998 0052 1349     		ldr	r1, .L50+36
 1999 0054 1348     		ldr	r0, .L50+40
 2000 0056 FFF7FEFF 		bl	__aeabi_atexit
 2001              	.LVL138:
 2002              	.LBB490:
 2003              	.LBI490:
  20:../../../libDaisy/src/hid/switch3.h ****     ~Switch3() {}
 2004              		.loc 6 20 5 is_stmt 1 view .LVU513
  20:../../../libDaisy/src/hid/switch3.h ****     ~Switch3() {}
 2005              		.loc 6 20 5 is_stmt 0 view .LVU514
 2006              	.LBE490:
  16:oscillator.cpp **** static ReverbSc reverb;
 2007              		.loc 12 16 16 view .LVU515
 2008 005a 2246     		mov	r2, r4
 2009 005c 1249     		ldr	r1, .L50+44
 2010 005e 1348     		ldr	r0, .L50+48
 2011 0060 FFF7FEFF 		bl	__aeabi_atexit
 2012              	.LVL139:
 2013              	.LBB491:
 2014              	.LBI491:
  37:../../../DaisySP/DaisySP-LGPL/Source/Effects/reverbsc.h ****     ~ReverbSc() {}
 2015              		.loc 5 37 5 is_stmt 1 view .LVU516
  37:../../../DaisySP/DaisySP-LGPL/Source/Effects/reverbsc.h ****     ~ReverbSc() {}
 2016              		.loc 5 37 5 is_stmt 0 view .LVU517
 2017              	.LBE491:
  17:oscillator.cpp **** static CrossFade mixer;
 2018              		.loc 12 17 17 view .LVU518
 2019 0064 2246     		mov	r2, r4
 2020 0066 1249     		ldr	r1, .L50+52
 2021 0068 1248     		ldr	r0, .L50+56
 2022 006a FFF7FEFF 		bl	__aeabi_atexit
 2023              	.LVL140:
 2024              	.LBB492:
 2025              	.LBI492:
  44:../../../DaisySP/Source/Dynamics/crossfade.h ****     ~CrossFade() {}
 2026              		.loc 3 44 5 is_stmt 1 view .LVU519
  44:../../../DaisySP/Source/Dynamics/crossfade.h ****     ~CrossFade() {}
 2027              		.loc 3 44 5 is_stmt 0 view .LVU520
 2028              	.LBE492:
  18:oscillator.cpp **** bool gate;
 2029              		.loc 12 18 18 view .LVU521
 2030 006e 2246     		mov	r2, r4
 2031 0070 1149     		ldr	r1, .L50+60
ARM GAS  C:\Users\Miguel\AppData\Local\Temp\ccTW1OPO.s 			page 74


 2032 0072 1248     		ldr	r0, .L50+64
 2033              	.LBE493:
 2034              	.LBE495:
 2035              		.loc 12 152 1 view .LVU522
 2036 0074 BDE83840 		pop	{r3, r4, r5, lr}
 2037              		.cfi_restore 14
 2038              		.cfi_restore 5
 2039              		.cfi_restore 4
 2040              		.cfi_restore 3
 2041              		.cfi_def_cfa_offset 0
 2042              	.LBB496:
 2043              	.LBB494:
  18:oscillator.cpp **** bool gate;
 2044              		.loc 12 18 18 view .LVU523
 2045 0078 FFF7FEBF 		b	__aeabi_atexit
