ARM GAS  C:\Users\Miguel\AppData\Local\Temp\ccKdczwd.s 			page 1


   1              		.cpu cortex-m7
   2              		.eabi_attribute 28, 1
   3              		.eabi_attribute 20, 1
   4              		.eabi_attribute 21, 1
   5              		.eabi_attribute 23, 3
   6              		.eabi_attribute 24, 1
   7              		.eabi_attribute 25, 1
   8              		.eabi_attribute 26, 1
   9              		.eabi_attribute 30, 2
  10              		.eabi_attribute 34, 1
  11              		.eabi_attribute 18, 4
  12              		.file	"zoscillator.cpp"
  13              		.text
  14              	.Ltext0:
  15              		.cfi_sections	.debug_frame
  16              		.section	.text._ZN5daisy9DaisySeedD2Ev,"axG",%progbits,_ZN5daisy9DaisySeedD5Ev,comdat
  17              		.align	1
  18              		.p2align 2,,3
  19              		.weak	_ZN5daisy9DaisySeedD2Ev
  20              		.arch armv7e-m
  21              		.syntax unified
  22              		.thumb
  23              		.thumb_func
  24              		.fpu fpv5-d16
  26              	_ZN5daisy9DaisySeedD2Ev:
  27              	.LVL0:
  28              	.LFB2555:
  29              		.file 1 "../../../libDaisy/src/daisy_seed.h"
   1:../../../libDaisy/src/daisy_seed.h **** #pragma once
   2:../../../libDaisy/src/daisy_seed.h **** #ifndef DSY_SEED_H
   3:../../../libDaisy/src/daisy_seed.h **** #define DSY_SEED_H
   4:../../../libDaisy/src/daisy_seed.h **** 
   5:../../../libDaisy/src/daisy_seed.h **** #include "daisy.h"
   6:../../../libDaisy/src/daisy_seed.h **** 
   7:../../../libDaisy/src/daisy_seed.h **** //Uncomment this out if you're still using the rev2 hardware
   8:../../../libDaisy/src/daisy_seed.h **** //#define SEED_REV2
   9:../../../libDaisy/src/daisy_seed.h **** 
  10:../../../libDaisy/src/daisy_seed.h **** namespace daisy
  11:../../../libDaisy/src/daisy_seed.h **** {
  12:../../../libDaisy/src/daisy_seed.h **** /**
  13:../../../libDaisy/src/daisy_seed.h ****    @brief This is the higher-level interface for the Daisy board. \n 
  14:../../../libDaisy/src/daisy_seed.h ****     All basic peripheral configuration/initialization is setup here. \n
  15:../../../libDaisy/src/daisy_seed.h **** 
  16:../../../libDaisy/src/daisy_seed.h ****    @ingroup boards
  17:../../../libDaisy/src/daisy_seed.h **** */
  18:../../../libDaisy/src/daisy_seed.h **** class DaisySeed
  19:../../../libDaisy/src/daisy_seed.h **** {
  20:../../../libDaisy/src/daisy_seed.h ****   public:
  21:../../../libDaisy/src/daisy_seed.h ****     DaisySeed() {}
  22:../../../libDaisy/src/daisy_seed.h ****     ~DaisySeed() {}
  30              		.loc 1 22 5 view -0
  31              		.cfi_startproc
  32              		@ args = 0, pretend = 0, frame = 0
  33              		@ frame_needed = 0, uses_anonymous_args = 0
  34              		@ link register save eliminated.
  35              	.LBB91:
  36              	.LBI91:
ARM GAS  C:\Users\Miguel\AppData\Local\Temp\ccKdczwd.s 			page 2


  37              		.file 2 "../../../libDaisy/src/sys/system.h"
   1:../../../libDaisy/src/sys/system.h **** #ifndef DSY_SYSTEM_H
   2:../../../libDaisy/src/sys/system.h **** #define DSY_SYSTEM_H
   3:../../../libDaisy/src/sys/system.h **** 
   4:../../../libDaisy/src/sys/system.h **** #ifndef UNIT_TEST // for unit tests, a dummy implementation is provided below
   5:../../../libDaisy/src/sys/system.h **** 
   6:../../../libDaisy/src/sys/system.h **** #include <cstdint>
   7:../../../libDaisy/src/sys/system.h **** #include "per/tim.h"
   8:../../../libDaisy/src/sys/system.h **** 
   9:../../../libDaisy/src/sys/system.h **** namespace daisy
  10:../../../libDaisy/src/sys/system.h **** {
  11:../../../libDaisy/src/sys/system.h **** /** A handle for interacting with the Core System.
  12:../../../libDaisy/src/sys/system.h ****  ** This includes the Clock tree, MPU, global DMA initialization,
  13:../../../libDaisy/src/sys/system.h ****  ** cache handling, and any other necessary global initiailzation
  14:../../../libDaisy/src/sys/system.h ****  **
  15:../../../libDaisy/src/sys/system.h ****  ** @author shensley
  16:../../../libDaisy/src/sys/system.h ****  ** @ingroup system
  17:../../../libDaisy/src/sys/system.h ****  */
  18:../../../libDaisy/src/sys/system.h **** class System
  19:../../../libDaisy/src/sys/system.h **** {
  20:../../../libDaisy/src/sys/system.h ****   public:
  21:../../../libDaisy/src/sys/system.h ****     /** Contains settings for initializing the System */
  22:../../../libDaisy/src/sys/system.h ****     struct Config
  23:../../../libDaisy/src/sys/system.h ****     {
  24:../../../libDaisy/src/sys/system.h ****         /** Specifies the system clock frequency that feeds APB/AHB clocks, etc. */
  25:../../../libDaisy/src/sys/system.h ****         enum class SysClkFreq
  26:../../../libDaisy/src/sys/system.h ****         {
  27:../../../libDaisy/src/sys/system.h ****             FREQ_400MHZ,
  28:../../../libDaisy/src/sys/system.h ****             FREQ_480MHZ,
  29:../../../libDaisy/src/sys/system.h ****         };
  30:../../../libDaisy/src/sys/system.h **** 
  31:../../../libDaisy/src/sys/system.h ****         /** Method to call on the struct to set to defaults
  32:../../../libDaisy/src/sys/system.h ****          ** CPU Freq set to 400MHz
  33:../../../libDaisy/src/sys/system.h ****          ** Cache Enabled
  34:../../../libDaisy/src/sys/system.h ****          ** */
  35:../../../libDaisy/src/sys/system.h ****         void Defaults()
  36:../../../libDaisy/src/sys/system.h ****         {
  37:../../../libDaisy/src/sys/system.h ****             cpu_freq    = SysClkFreq::FREQ_400MHZ;
  38:../../../libDaisy/src/sys/system.h ****             use_dcache  = true;
  39:../../../libDaisy/src/sys/system.h ****             use_icache  = true;
  40:../../../libDaisy/src/sys/system.h ****             skip_clocks = false;
  41:../../../libDaisy/src/sys/system.h ****         }
  42:../../../libDaisy/src/sys/system.h **** 
  43:../../../libDaisy/src/sys/system.h ****         /** Method to call on the struct to set to boost mode:
  44:../../../libDaisy/src/sys/system.h ****          ** CPU Freq set to 480MHz
  45:../../../libDaisy/src/sys/system.h ****          ** Cache Enabled
  46:../../../libDaisy/src/sys/system.h ****          ** */
  47:../../../libDaisy/src/sys/system.h ****         void Boost()
  48:../../../libDaisy/src/sys/system.h ****         {
  49:../../../libDaisy/src/sys/system.h ****             cpu_freq    = SysClkFreq::FREQ_480MHZ;
  50:../../../libDaisy/src/sys/system.h ****             use_dcache  = true;
  51:../../../libDaisy/src/sys/system.h ****             use_icache  = true;
  52:../../../libDaisy/src/sys/system.h ****             skip_clocks = false;
  53:../../../libDaisy/src/sys/system.h ****         }
  54:../../../libDaisy/src/sys/system.h **** 
  55:../../../libDaisy/src/sys/system.h ****         SysClkFreq cpu_freq;
  56:../../../libDaisy/src/sys/system.h ****         bool       use_dcache;
ARM GAS  C:\Users\Miguel\AppData\Local\Temp\ccKdczwd.s 			page 3


  57:../../../libDaisy/src/sys/system.h ****         bool       use_icache;
  58:../../../libDaisy/src/sys/system.h ****         bool       skip_clocks;
  59:../../../libDaisy/src/sys/system.h ****     };
  60:../../../libDaisy/src/sys/system.h **** 
  61:../../../libDaisy/src/sys/system.h ****     /** Describes the different regions of memory available to the Daisy */
  62:../../../libDaisy/src/sys/system.h ****     enum MemoryRegion
  63:../../../libDaisy/src/sys/system.h ****     {
  64:../../../libDaisy/src/sys/system.h ****         INTERNAL_FLASH = 0,
  65:../../../libDaisy/src/sys/system.h ****         ITCMRAM,
  66:../../../libDaisy/src/sys/system.h ****         DTCMRAM,
  67:../../../libDaisy/src/sys/system.h ****         SRAM_D1,
  68:../../../libDaisy/src/sys/system.h ****         SRAM_D2,
  69:../../../libDaisy/src/sys/system.h ****         SRAM_D3,
  70:../../../libDaisy/src/sys/system.h ****         SDRAM,
  71:../../../libDaisy/src/sys/system.h ****         QSPI,
  72:../../../libDaisy/src/sys/system.h ****         INVALID_ADDRESS,
  73:../../../libDaisy/src/sys/system.h ****     };
  74:../../../libDaisy/src/sys/system.h **** 
  75:../../../libDaisy/src/sys/system.h ****     /** Bootloader struct for controlling bootloading parameters */
  76:../../../libDaisy/src/sys/system.h ****     struct BootInfo
  77:../../../libDaisy/src/sys/system.h ****     {
  78:../../../libDaisy/src/sys/system.h ****         enum class Type : uint32_t
  79:../../../libDaisy/src/sys/system.h ****         {
  80:../../../libDaisy/src/sys/system.h ****             INVALID      = 0x00000000,
  81:../../../libDaisy/src/sys/system.h ****             JUMP         = 0xDEADBEEF,
  82:../../../libDaisy/src/sys/system.h ****             SKIP_TIMEOUT = 0x5AFEB007,
  83:../../../libDaisy/src/sys/system.h ****             INF_TIMEOUT  = 0xB0074EFA,
  84:../../../libDaisy/src/sys/system.h ****         } status;
  85:../../../libDaisy/src/sys/system.h ****         uint32_t data;
  86:../../../libDaisy/src/sys/system.h ****         enum class Version : uint32_t
  87:../../../libDaisy/src/sys/system.h ****         {
  88:../../../libDaisy/src/sys/system.h ****             LT_v6_0 = 0, // Less than v6.0
  89:../../../libDaisy/src/sys/system.h ****             NONE,        // No bootloader present
  90:../../../libDaisy/src/sys/system.h ****             v6_0,        // v6.0
  91:../../../libDaisy/src/sys/system.h ****             v6_1,        // v6.1 or greater
  92:../../../libDaisy/src/sys/system.h ****             LAST
  93:../../../libDaisy/src/sys/system.h ****         } version;
  94:../../../libDaisy/src/sys/system.h ****     };
  95:../../../libDaisy/src/sys/system.h **** 
  96:../../../libDaisy/src/sys/system.h ****     System() {}
  97:../../../libDaisy/src/sys/system.h ****     ~System() {}
  38              		.loc 2 97 5 view .LVU1
  39              		.loc 2 97 5 is_stmt 0 view .LVU2
  40              	.LBE91:
  41              	.LBB92:
  42              	.LBI92:
  43              		.file 3 "../../../libDaisy/src/hid/usb.h"
   1:../../../libDaisy/src/hid/usb.h **** #pragma once
   2:../../../libDaisy/src/hid/usb.h **** #ifndef DSY_HID_USB_H
   3:../../../libDaisy/src/hid/usb.h **** #define DSY_HID_USB_H
   4:../../../libDaisy/src/hid/usb.h **** #include <stdint.h>
   5:../../../libDaisy/src/hid/usb.h **** #include <stdlib.h>
   6:../../../libDaisy/src/hid/usb.h **** 
   7:../../../libDaisy/src/hid/usb.h **** namespace daisy
   8:../../../libDaisy/src/hid/usb.h **** /** @addtogroup human_interface
   9:../../../libDaisy/src/hid/usb.h ****     @{
  10:../../../libDaisy/src/hid/usb.h **** */
ARM GAS  C:\Users\Miguel\AppData\Local\Temp\ccKdczwd.s 			page 4


  11:../../../libDaisy/src/hid/usb.h **** 
  12:../../../libDaisy/src/hid/usb.h **** {
  13:../../../libDaisy/src/hid/usb.h **** /** 
  14:../../../libDaisy/src/hid/usb.h ****     @brief Interface for initializing and using the USB Peripherals on the daisy
  15:../../../libDaisy/src/hid/usb.h ****     @author Stephen Hensley
  16:../../../libDaisy/src/hid/usb.h ****     @date December 2019
  17:../../../libDaisy/src/hid/usb.h **** */
  18:../../../libDaisy/src/hid/usb.h **** class UsbHandle
  19:../../../libDaisy/src/hid/usb.h **** {
  20:../../../libDaisy/src/hid/usb.h ****   public:
  21:../../../libDaisy/src/hid/usb.h ****     /** Return values for USBHandle Functions */
  22:../../../libDaisy/src/hid/usb.h ****     enum class Result
  23:../../../libDaisy/src/hid/usb.h ****     {
  24:../../../libDaisy/src/hid/usb.h ****         OK,
  25:../../../libDaisy/src/hid/usb.h ****         ERR,
  26:../../../libDaisy/src/hid/usb.h ****     };
  27:../../../libDaisy/src/hid/usb.h **** 
  28:../../../libDaisy/src/hid/usb.h ****     /** Specified which of the two USB Peripherals to initialize. */
  29:../../../libDaisy/src/hid/usb.h ****     enum UsbPeriph
  30:../../../libDaisy/src/hid/usb.h ****     {
  31:../../../libDaisy/src/hid/usb.h ****         FS_INTERNAL, /**< Internal pin */
  32:../../../libDaisy/src/hid/usb.h ****         FS_EXTERNAL, /**< FS External D+ pin is Pin 38 (GPIO32). FS External D- pin is Pin 37 (GPIO
  33:../../../libDaisy/src/hid/usb.h ****         FS_BOTH,     /**< Both */
  34:../../../libDaisy/src/hid/usb.h ****     };
  35:../../../libDaisy/src/hid/usb.h **** 
  36:../../../libDaisy/src/hid/usb.h **** 
  37:../../../libDaisy/src/hid/usb.h ****     /** Function called upon reception of a buffer */
  38:../../../libDaisy/src/hid/usb.h ****     typedef void (*ReceiveCallback)(uint8_t* buff, uint32_t* len);
  39:../../../libDaisy/src/hid/usb.h **** 
  40:../../../libDaisy/src/hid/usb.h ****     UsbHandle() {}
  41:../../../libDaisy/src/hid/usb.h **** 
  42:../../../libDaisy/src/hid/usb.h ****     ~UsbHandle() {}
  44              		.loc 3 42 5 is_stmt 1 view .LVU3
  45              		.loc 3 42 5 is_stmt 0 view .LVU4
  46              	.LBE92:
  47              	.LBB93:
  48              	.LBI93:
  49              		.file 4 "../../../libDaisy/src/per/adc.h"
   1:../../../libDaisy/src/per/adc.h **** #pragma once
   2:../../../libDaisy/src/per/adc.h **** #ifndef DSY_ADC_H
   3:../../../libDaisy/src/per/adc.h **** #define DSY_ADC_H /**< Macro */
   4:../../../libDaisy/src/per/adc.h **** #include <stdint.h>
   5:../../../libDaisy/src/per/adc.h **** #include <stdlib.h>
   6:../../../libDaisy/src/per/adc.h **** #include "daisy_core.h"
   7:../../../libDaisy/src/per/adc.h **** #include "per/gpio.h"
   8:../../../libDaisy/src/per/adc.h **** 
   9:../../../libDaisy/src/per/adc.h **** #define DSY_ADC_MAX_CHANNELS 16 /**< Maximum number of ADC channels */
  10:../../../libDaisy/src/per/adc.h **** 
  11:../../../libDaisy/src/per/adc.h **** namespace daisy
  12:../../../libDaisy/src/per/adc.h **** {
  13:../../../libDaisy/src/per/adc.h **** /** @addtogroup per_analog
  14:../../../libDaisy/src/per/adc.h ****     @{
  15:../../../libDaisy/src/per/adc.h **** */
  16:../../../libDaisy/src/per/adc.h **** 
  17:../../../libDaisy/src/per/adc.h **** /* While there may not be many configuration options here,
  18:../../../libDaisy/src/per/adc.h **** using a struct like this allows us to add more configuration
  19:../../../libDaisy/src/per/adc.h **** later without breaking existing functionality.
ARM GAS  C:\Users\Miguel\AppData\Local\Temp\ccKdczwd.s 			page 5


  20:../../../libDaisy/src/per/adc.h **** */
  21:../../../libDaisy/src/per/adc.h **** 
  22:../../../libDaisy/src/per/adc.h **** /** @brief   Configuration Structure for an ADC Channel 
  23:../../../libDaisy/src/per/adc.h ****  *  @details This can be used to configure a a single input, 
  24:../../../libDaisy/src/per/adc.h ****  *           or a multiplexed input, allowing up to 8 inputs on 
  25:../../../libDaisy/src/per/adc.h ****  *           one channel.
  26:../../../libDaisy/src/per/adc.h ****  *  @note    Sharing data lines to multiple muxes _is_ possible, but
  27:../../../libDaisy/src/per/adc.h ****  *           each channel sharing data lines must be set to the maximum
  28:../../../libDaisy/src/per/adc.h ****  *           number of channels, even if some multiplexers have fewer
  29:../../../libDaisy/src/per/adc.h ****  *           inputs connected.
  30:../../../libDaisy/src/per/adc.h **** */
  31:../../../libDaisy/src/per/adc.h **** struct AdcChannelConfig
  32:../../../libDaisy/src/per/adc.h **** {
  33:../../../libDaisy/src/per/adc.h ****     /** Which pin to use for multiplexing */
  34:../../../libDaisy/src/per/adc.h ****     enum MuxPin
  35:../../../libDaisy/src/per/adc.h ****     {
  36:../../../libDaisy/src/per/adc.h ****         MUX_SEL_0,    /**< & */
  37:../../../libDaisy/src/per/adc.h ****         MUX_SEL_1,    /**< & */
  38:../../../libDaisy/src/per/adc.h ****         MUX_SEL_2,    /**< & */
  39:../../../libDaisy/src/per/adc.h ****         MUX_SEL_LAST, /**< & */
  40:../../../libDaisy/src/per/adc.h ****     };
  41:../../../libDaisy/src/per/adc.h **** 
  42:../../../libDaisy/src/per/adc.h ****     /** \brief per channel conversion speed added to fixed time based on bitdepth, etc. */
  43:../../../libDaisy/src/per/adc.h ****     enum ConversionSpeed
  44:../../../libDaisy/src/per/adc.h ****     {
  45:../../../libDaisy/src/per/adc.h ****         SPEED_1CYCLES_5,
  46:../../../libDaisy/src/per/adc.h ****         SPEED_2CYCLES_5,
  47:../../../libDaisy/src/per/adc.h ****         SPEED_8CYCLES_5,
  48:../../../libDaisy/src/per/adc.h ****         SPEED_16CYCLES_5,
  49:../../../libDaisy/src/per/adc.h ****         SPEED_32CYCLES_5,
  50:../../../libDaisy/src/per/adc.h ****         SPEED_64CYCLES_5,
  51:../../../libDaisy/src/per/adc.h ****         SPEED_387CYCLES_5,
  52:../../../libDaisy/src/per/adc.h ****         SPEED_810CYCLES_5,
  53:../../../libDaisy/src/per/adc.h ****     };
  54:../../../libDaisy/src/per/adc.h **** 
  55:../../../libDaisy/src/per/adc.h ****     /** Initializes a single ADC pin as an ADC. 
  56:../../../libDaisy/src/per/adc.h ****     \param pin Pin to init.
  57:../../../libDaisy/src/per/adc.h ****     \param speed conversion speed for this pin defaults to 8.5 cycles
  58:../../../libDaisy/src/per/adc.h ****      */
  59:../../../libDaisy/src/per/adc.h ****     void InitSingle(dsy_gpio_pin pin, ConversionSpeed speed = SPEED_8CYCLES_5);
  60:../../../libDaisy/src/per/adc.h **** 
  61:../../../libDaisy/src/per/adc.h ****     /** 
  62:../../../libDaisy/src/per/adc.h ****     Initializes a single ADC pin as a Multiplexed ADC.
  63:../../../libDaisy/src/per/adc.h ****     Requires a CD405X Multiplexer connected to the pin.
  64:../../../libDaisy/src/per/adc.h ****     You only need to supply the mux pins that are required,
  65:../../../libDaisy/src/per/adc.h ****     e.g. a 4052 mux would only require mux_0 and mux_1.
  66:../../../libDaisy/src/per/adc.h ****     Internal Callbacks handle the pin addressing.
  67:../../../libDaisy/src/per/adc.h ****     \param adc_pin &
  68:../../../libDaisy/src/per/adc.h ****     \param mux_channels must be 1-8
  69:../../../libDaisy/src/per/adc.h ****     \param mux_0 First mux pin
  70:../../../libDaisy/src/per/adc.h ****     \param mux_1 Second mux pin
  71:../../../libDaisy/src/per/adc.h ****     \param mux_2 Third mux pin
  72:../../../libDaisy/src/per/adc.h ****     \param speed conversion speed for this pin defaults to 8.5 cycles
  73:../../../libDaisy/src/per/adc.h ****     */
  74:../../../libDaisy/src/per/adc.h ****     void InitMux(dsy_gpio_pin    adc_pin,
  75:../../../libDaisy/src/per/adc.h ****                  size_t          mux_channels,
  76:../../../libDaisy/src/per/adc.h ****                  dsy_gpio_pin    mux_0,
ARM GAS  C:\Users\Miguel\AppData\Local\Temp\ccKdczwd.s 			page 6


  77:../../../libDaisy/src/per/adc.h ****                  dsy_gpio_pin    mux_1 = {DSY_GPIOX, 0},
  78:../../../libDaisy/src/per/adc.h ****                  dsy_gpio_pin    mux_2 = {DSY_GPIOX, 0},
  79:../../../libDaisy/src/per/adc.h ****                  ConversionSpeed speed = SPEED_8CYCLES_5);
  80:../../../libDaisy/src/per/adc.h **** 
  81:../../../libDaisy/src/per/adc.h ****     dsy_gpio        pin_;                   /**< & */
  82:../../../libDaisy/src/per/adc.h ****     dsy_gpio        mux_pin_[MUX_SEL_LAST]; /**< & */
  83:../../../libDaisy/src/per/adc.h ****     uint8_t         mux_channels_;          /**< & */
  84:../../../libDaisy/src/per/adc.h ****     ConversionSpeed speed_;
  85:../../../libDaisy/src/per/adc.h **** };
  86:../../../libDaisy/src/per/adc.h **** 
  87:../../../libDaisy/src/per/adc.h **** /**
  88:../../../libDaisy/src/per/adc.h ****    @brief Handler for analog to digital conversion
  89:../../../libDaisy/src/per/adc.h **** */
  90:../../../libDaisy/src/per/adc.h **** class AdcHandle
  91:../../../libDaisy/src/per/adc.h **** {
  92:../../../libDaisy/src/per/adc.h ****   public:
  93:../../../libDaisy/src/per/adc.h ****     /** Supported oversampling amounts */
  94:../../../libDaisy/src/per/adc.h ****     enum OverSampling
  95:../../../libDaisy/src/per/adc.h ****     {
  96:../../../libDaisy/src/per/adc.h ****         OVS_NONE, /**< & */
  97:../../../libDaisy/src/per/adc.h ****         OVS_4,    /**< & */
  98:../../../libDaisy/src/per/adc.h ****         OVS_8,    /**< & */
  99:../../../libDaisy/src/per/adc.h ****         OVS_16,   /**< & */
 100:../../../libDaisy/src/per/adc.h ****         OVS_32,   /**< & */
 101:../../../libDaisy/src/per/adc.h ****         OVS_64,   /**< & */
 102:../../../libDaisy/src/per/adc.h ****         OVS_128,  /**< & */
 103:../../../libDaisy/src/per/adc.h ****         OVS_256,  /**< & */
 104:../../../libDaisy/src/per/adc.h ****         OVS_512,  /**< & */
 105:../../../libDaisy/src/per/adc.h ****         OVS_1024, /**< & */
 106:../../../libDaisy/src/per/adc.h ****         OVS_LAST, /**< & */
 107:../../../libDaisy/src/per/adc.h ****     };
 108:../../../libDaisy/src/per/adc.h **** 
 109:../../../libDaisy/src/per/adc.h ****     AdcHandle() {}
 110:../../../libDaisy/src/per/adc.h ****     ~AdcHandle() {}
  50              		.loc 4 110 5 is_stmt 1 view .LVU5
  51              		.loc 4 110 5 is_stmt 0 view .LVU6
  52              	.LBE93:
  53              	.LBB94:
  54              	.LBI94:
  55              		.file 5 "../../../libDaisy/src/hid/audio.h"
   1:../../../libDaisy/src/hid/audio.h **** #ifndef DSY_AUDIO_H
   2:../../../libDaisy/src/hid/audio.h **** #define DSY_AUDIO_H /**< & */
   3:../../../libDaisy/src/hid/audio.h **** 
   4:../../../libDaisy/src/hid/audio.h **** #include "per/sai.h"
   5:../../../libDaisy/src/hid/audio.h **** 
   6:../../../libDaisy/src/hid/audio.h **** namespace daisy
   7:../../../libDaisy/src/hid/audio.h **** {
   8:../../../libDaisy/src/hid/audio.h **** /** @brief Audio Engine Handle
   9:../../../libDaisy/src/hid/audio.h ****  *  @ingroup audio 
  10:../../../libDaisy/src/hid/audio.h ****  *  @details This class allows for higher level access to an audio engine.
  11:../../../libDaisy/src/hid/audio.h ****  *           If you're using a SOM like the DaisySeed or DaisyPatchSM (or any 
  12:../../../libDaisy/src/hid/audio.h ****  *            board that includes one of those objects) then the intialization
  13:../../../libDaisy/src/hid/audio.h ****  *            is already taken  care of.
  14:../../../libDaisy/src/hid/audio.h ****  *           If you're setting up your own custom hardware, or need to make changes
  15:../../../libDaisy/src/hid/audio.h ****  *           you will have to take the following steps:
  16:../../../libDaisy/src/hid/audio.h ****  *             1. Create and Initialize an SaiHandle or two depending on your requirements
  17:../../../libDaisy/src/hid/audio.h ****  *             2. Initialize the Audio Handle with the desired settings and the Initialized SaiHand
ARM GAS  C:\Users\Miguel\AppData\Local\Temp\ccKdczwd.s 			page 7


  18:../../../libDaisy/src/hid/audio.h ****  *             3. If the connected codec requires special configuration or initialization, do so
  19:../../../libDaisy/src/hid/audio.h ****  *             4. Write a callback method using either the AudioCallback or the InterleavingAudioCa
  20:../../../libDaisy/src/hid/audio.h ****  *             5. Start the Audio using one of the StartAudio function
  21:../../../libDaisy/src/hid/audio.h ****  */
  22:../../../libDaisy/src/hid/audio.h **** class AudioHandle
  23:../../../libDaisy/src/hid/audio.h **** {
  24:../../../libDaisy/src/hid/audio.h ****   public:
  25:../../../libDaisy/src/hid/audio.h ****     /** Manually configurable details about the Audio Engine */
  26:../../../libDaisy/src/hid/audio.h ****     /** TODO: Figure out how to get samplerate in here. */
  27:../../../libDaisy/src/hid/audio.h ****     struct Config
  28:../../../libDaisy/src/hid/audio.h ****     {
  29:../../../libDaisy/src/hid/audio.h ****         /** number of samples to process per callback */
  30:../../../libDaisy/src/hid/audio.h ****         size_t blocksize;
  31:../../../libDaisy/src/hid/audio.h **** 
  32:../../../libDaisy/src/hid/audio.h ****         /**< Sample rate of audio */
  33:../../../libDaisy/src/hid/audio.h ****         SaiHandle::Config::SampleRate samplerate;
  34:../../../libDaisy/src/hid/audio.h **** 
  35:../../../libDaisy/src/hid/audio.h ****         /** factor for adjustment before and after callback for hardware that may have extra headro
  36:../../../libDaisy/src/hid/audio.h ****         float postgain;
  37:../../../libDaisy/src/hid/audio.h **** 
  38:../../../libDaisy/src/hid/audio.h ****         /** factor for additional one-sided compensation to audio path for hardware that may
  39:../../../libDaisy/src/hid/audio.h ****          *  have unequal input/output ranges
  40:../../../libDaisy/src/hid/audio.h ****          */
  41:../../../libDaisy/src/hid/audio.h ****         float output_compensation;
  42:../../../libDaisy/src/hid/audio.h **** 
  43:../../../libDaisy/src/hid/audio.h ****         /** Sets default values for config struct */
  44:../../../libDaisy/src/hid/audio.h ****         Config()
  45:../../../libDaisy/src/hid/audio.h ****         : blocksize(48),
  46:../../../libDaisy/src/hid/audio.h ****           samplerate(SaiHandle::Config::SampleRate::SAI_48KHZ),
  47:../../../libDaisy/src/hid/audio.h ****           postgain(1.f),
  48:../../../libDaisy/src/hid/audio.h ****           output_compensation(1.f)
  49:../../../libDaisy/src/hid/audio.h ****         {
  50:../../../libDaisy/src/hid/audio.h ****         }
  51:../../../libDaisy/src/hid/audio.h ****     };
  52:../../../libDaisy/src/hid/audio.h **** 
  53:../../../libDaisy/src/hid/audio.h ****     enum class Result
  54:../../../libDaisy/src/hid/audio.h ****     {
  55:../../../libDaisy/src/hid/audio.h ****         OK,
  56:../../../libDaisy/src/hid/audio.h ****         ERR,
  57:../../../libDaisy/src/hid/audio.h ****     };
  58:../../../libDaisy/src/hid/audio.h **** 
  59:../../../libDaisy/src/hid/audio.h ****     /** Non-Interleaving input buffer
  60:../../../libDaisy/src/hid/audio.h ****      * Buffer arranged by float[chn][sample] 
  61:../../../libDaisy/src/hid/audio.h ****      * const so that the user can't modify the input
  62:../../../libDaisy/src/hid/audio.h ****      */
  63:../../../libDaisy/src/hid/audio.h ****     typedef const float* const* InputBuffer;
  64:../../../libDaisy/src/hid/audio.h **** 
  65:../../../libDaisy/src/hid/audio.h ****     /** Non-Interleaving output buffer
  66:../../../libDaisy/src/hid/audio.h ****      * Arranged by float[chn][sample] 
  67:../../../libDaisy/src/hid/audio.h ****      */
  68:../../../libDaisy/src/hid/audio.h ****     typedef float** OutputBuffer;
  69:../../../libDaisy/src/hid/audio.h **** 
  70:../../../libDaisy/src/hid/audio.h ****     /** Type for a Non-Interleaving audio callback 
  71:../../../libDaisy/src/hid/audio.h ****      * Non-Interleaving audio callbacks in daisy will be of this type
  72:../../../libDaisy/src/hid/audio.h ****      */
  73:../../../libDaisy/src/hid/audio.h ****     typedef void (*AudioCallback)(InputBuffer  in,
  74:../../../libDaisy/src/hid/audio.h ****                                   OutputBuffer out,
ARM GAS  C:\Users\Miguel\AppData\Local\Temp\ccKdczwd.s 			page 8


  75:../../../libDaisy/src/hid/audio.h ****                                   size_t       size);
  76:../../../libDaisy/src/hid/audio.h **** 
  77:../../../libDaisy/src/hid/audio.h ****     /** Interleaving Input buffer
  78:../../../libDaisy/src/hid/audio.h ****      ** audio is prepared as { L0, R0, L1, R1, . . . LN, RN }]
  79:../../../libDaisy/src/hid/audio.h ****      ** this is const, as the user shouldn't modify it
  80:../../../libDaisy/src/hid/audio.h ****     */
  81:../../../libDaisy/src/hid/audio.h ****     typedef const float* InterleavingInputBuffer;
  82:../../../libDaisy/src/hid/audio.h **** 
  83:../../../libDaisy/src/hid/audio.h ****     /** Interleaving Output buffer 
  84:../../../libDaisy/src/hid/audio.h ****      ** audio is prepared as { L0, R0, L1, R1, . . . LN, RN }
  85:../../../libDaisy/src/hid/audio.h ****     */
  86:../../../libDaisy/src/hid/audio.h ****     typedef float* InterleavingOutputBuffer;
  87:../../../libDaisy/src/hid/audio.h **** 
  88:../../../libDaisy/src/hid/audio.h ****     /** Interleaving Audio Callback 
  89:../../../libDaisy/src/hid/audio.h ****      * Interleaving audio callbacks in daisy must be of this type
  90:../../../libDaisy/src/hid/audio.h ****      */
  91:../../../libDaisy/src/hid/audio.h ****     typedef void (*InterleavingAudioCallback)(InterleavingInputBuffer  in,
  92:../../../libDaisy/src/hid/audio.h ****                                               InterleavingOutputBuffer out,
  93:../../../libDaisy/src/hid/audio.h ****                                               size_t                   size);
  94:../../../libDaisy/src/hid/audio.h **** 
  95:../../../libDaisy/src/hid/audio.h ****     AudioHandle() : pimpl_(nullptr) {}
  96:../../../libDaisy/src/hid/audio.h ****     ~AudioHandle() {}
  56              		.loc 5 96 5 is_stmt 1 view .LVU7
  57              		.loc 5 96 5 is_stmt 0 view .LVU8
  58              	.LBE94:
  59              		.loc 1 22 19 view .LVU9
  60 0000 7047     		bx	lr
  61              		.cfi_endproc
  62              	.LFE2555:
  64              		.weak	_ZN5daisy9DaisySeedD1Ev
  65              		.thumb_set _ZN5daisy9DaisySeedD1Ev,_ZN5daisy9DaisySeedD2Ev
  66 0002 00BF     		.section	.text._ZN7daisysp10OscillatorD2Ev,"axG",%progbits,_ZN7daisysp10OscillatorD5Ev,comdat
  67              		.align	1
  68              		.p2align 2,,3
  69              		.weak	_ZN7daisysp10OscillatorD2Ev
  70              		.syntax unified
  71              		.thumb
  72              		.thumb_func
  73              		.fpu fpv5-d16
  75              	_ZN7daisysp10OscillatorD2Ev:
  76              	.LVL1:
  77              	.LFB4240:
  78              		.file 6 "../../../DaisySP/Source/Synthesis/oscillator.h"
   1:../../../DaisySP/Source/Synthesis/oscillator.h **** /*
   2:../../../DaisySP/Source/Synthesis/oscillator.h **** Copyright (c) 2020 Electrosmith, Corp
   3:../../../DaisySP/Source/Synthesis/oscillator.h **** 
   4:../../../DaisySP/Source/Synthesis/oscillator.h **** Use of this source code is governed by an MIT-style
   5:../../../DaisySP/Source/Synthesis/oscillator.h **** license that can be found in the LICENSE file or at
   6:../../../DaisySP/Source/Synthesis/oscillator.h **** https://opensource.org/licenses/MIT.
   7:../../../DaisySP/Source/Synthesis/oscillator.h **** */
   8:../../../DaisySP/Source/Synthesis/oscillator.h **** 
   9:../../../DaisySP/Source/Synthesis/oscillator.h **** #pragma once
  10:../../../DaisySP/Source/Synthesis/oscillator.h **** #ifndef DSY_OSCILLATOR_H
  11:../../../DaisySP/Source/Synthesis/oscillator.h **** #define DSY_OSCILLATOR_H
  12:../../../DaisySP/Source/Synthesis/oscillator.h **** #include <stdint.h>
  13:../../../DaisySP/Source/Synthesis/oscillator.h **** #include "Utility/dsp.h"
  14:../../../DaisySP/Source/Synthesis/oscillator.h **** #ifdef __cplusplus
ARM GAS  C:\Users\Miguel\AppData\Local\Temp\ccKdczwd.s 			page 9


  15:../../../DaisySP/Source/Synthesis/oscillator.h **** 
  16:../../../DaisySP/Source/Synthesis/oscillator.h **** namespace daisysp
  17:../../../DaisySP/Source/Synthesis/oscillator.h **** {
  18:../../../DaisySP/Source/Synthesis/oscillator.h **** /** Synthesis of several waveforms, including polyBLEP bandlimited waveforms.
  19:../../../DaisySP/Source/Synthesis/oscillator.h **** */
  20:../../../DaisySP/Source/Synthesis/oscillator.h **** class Oscillator
  21:../../../DaisySP/Source/Synthesis/oscillator.h **** {
  22:../../../DaisySP/Source/Synthesis/oscillator.h ****   public:
  23:../../../DaisySP/Source/Synthesis/oscillator.h ****     Oscillator() {}
  24:../../../DaisySP/Source/Synthesis/oscillator.h ****     ~Oscillator() {}
  79              		.loc 6 24 5 is_stmt 1 view -0
  80              		.cfi_startproc
  81              		@ args = 0, pretend = 0, frame = 0
  82              		@ frame_needed = 0, uses_anonymous_args = 0
  83              		@ link register save eliminated.
  84              		.loc 6 24 20 is_stmt 0 view .LVU11
  85 0000 7047     		bx	lr
  86              		.cfi_endproc
  87              	.LFE4240:
  89              		.weak	_ZN7daisysp10OscillatorD1Ev
  90              		.thumb_set _ZN7daisysp10OscillatorD1Ev,_ZN7daisysp10OscillatorD2Ev
  91              		.section	.text._ZN7daisysp11ZOscillatorD2Ev,"axG",%progbits,_ZN7daisysp11ZOscillatorD5Ev,comdat
  92              		.align	1
  93              		.p2align 2,,3
  94              		.weak	_ZN7daisysp11ZOscillatorD2Ev
  95              		.syntax unified
  96              		.thumb
  97              		.thumb_func
  98              		.fpu fpv5-d16
 100              	_ZN7daisysp11ZOscillatorD2Ev:
 101              	.LVL2:
 102              	.LFB4619:
 103              		.file 7 "../../../DaisySP/Source/Synthesis/zoscillator.h"
   1:../../../DaisySP/Source/Synthesis/zoscillator.h **** /*
   2:../../../DaisySP/Source/Synthesis/zoscillator.h **** Copyright (c) 2020 Electrosmith, Corp, Emilie Gillet
   3:../../../DaisySP/Source/Synthesis/zoscillator.h **** 
   4:../../../DaisySP/Source/Synthesis/zoscillator.h **** Use of this source code is governed by an MIT-style
   5:../../../DaisySP/Source/Synthesis/zoscillator.h **** license that can be found in the LICENSE file or at
   6:../../../DaisySP/Source/Synthesis/zoscillator.h **** https://opensource.org/licenses/MIT.
   7:../../../DaisySP/Source/Synthesis/zoscillator.h **** */
   8:../../../DaisySP/Source/Synthesis/zoscillator.h **** 
   9:../../../DaisySP/Source/Synthesis/zoscillator.h **** #pragma once
  10:../../../DaisySP/Source/Synthesis/zoscillator.h **** #ifndef DSY_ZOSCILLATOR_H
  11:../../../DaisySP/Source/Synthesis/zoscillator.h **** #define DSY_ZOSCILLATOR_H
  12:../../../DaisySP/Source/Synthesis/zoscillator.h **** 
  13:../../../DaisySP/Source/Synthesis/zoscillator.h **** #include <stdint.h>
  14:../../../DaisySP/Source/Synthesis/zoscillator.h **** #ifdef __cplusplus
  15:../../../DaisySP/Source/Synthesis/zoscillator.h **** 
  16:../../../DaisySP/Source/Synthesis/zoscillator.h **** /** @file zoscillator.h */
  17:../../../DaisySP/Source/Synthesis/zoscillator.h **** namespace daisysp
  18:../../../DaisySP/Source/Synthesis/zoscillator.h **** {
  19:../../../DaisySP/Source/Synthesis/zoscillator.h **** /**  
  20:../../../DaisySP/Source/Synthesis/zoscillator.h ****     @brief     ZOscillator Module \n 
  21:../../../DaisySP/Source/Synthesis/zoscillator.h ****     @author Ben Sergentanis
  22:../../../DaisySP/Source/Synthesis/zoscillator.h ****     @date Dec 2020 
  23:../../../DaisySP/Source/Synthesis/zoscillator.h ****     Sinewave multiplied by and sync'ed to a carrier. \n \n
  24:../../../DaisySP/Source/Synthesis/zoscillator.h ****     Ported from pichenettes/eurorack/plaits/dsp/oscillator/z_oscillator.h \n 
ARM GAS  C:\Users\Miguel\AppData\Local\Temp\ccKdczwd.s 			page 10


  25:../../../DaisySP/Source/Synthesis/zoscillator.h ****     \n to an independent module. \n
  26:../../../DaisySP/Source/Synthesis/zoscillator.h ****     Original code written by Emilie Gillet in 2016. \n
  27:../../../DaisySP/Source/Synthesis/zoscillator.h **** */
  28:../../../DaisySP/Source/Synthesis/zoscillator.h **** class ZOscillator
  29:../../../DaisySP/Source/Synthesis/zoscillator.h **** {
  30:../../../DaisySP/Source/Synthesis/zoscillator.h ****   public:
  31:../../../DaisySP/Source/Synthesis/zoscillator.h ****     ZOscillator() {}
  32:../../../DaisySP/Source/Synthesis/zoscillator.h ****     ~ZOscillator() {}
 104              		.loc 7 32 5 is_stmt 1 view -0
 105              		.cfi_startproc
 106              		@ args = 0, pretend = 0, frame = 0
 107              		@ frame_needed = 0, uses_anonymous_args = 0
 108              		@ link register save eliminated.
 109              		.loc 7 32 21 is_stmt 0 view .LVU13
 110 0000 7047     		bx	lr
 111              		.cfi_endproc
 112              	.LFE4619:
 114              		.weak	_ZN7daisysp11ZOscillatorD1Ev
 115              		.thumb_set _ZN7daisysp11ZOscillatorD1Ev,_ZN7daisysp11ZOscillatorD2Ev
 116              		.section	.text._Z13AudioCallbackPKPKfPPfj,"ax",%progbits
 117              		.align	1
 118              		.p2align 2,,3
 119              		.global	_Z13AudioCallbackPKPKfPPfj
 120              		.syntax unified
 121              		.thumb
 122              		.thumb_func
 123              		.fpu fpv5-d16
 125              	_Z13AudioCallbackPKPKfPPfj:
 126              	.LVL3:
 127              	.LFB4681:
 128              		.file 8 "zoscillator.cpp"
   1:zoscillator.cpp **** #include "daisy_seed.h"
   2:zoscillator.cpp **** #include "daisysp.h"
   3:zoscillator.cpp **** 
   4:zoscillator.cpp **** using namespace daisy;
   5:zoscillator.cpp **** using namespace daisysp;
   6:zoscillator.cpp **** 
   7:zoscillator.cpp **** DaisySeed   hw;
   8:zoscillator.cpp **** ZOscillator zosc;
   9:zoscillator.cpp **** Oscillator  lfo1, lfo2;
  10:zoscillator.cpp **** 
  11:zoscillator.cpp **** void AudioCallback(AudioHandle::InputBuffer  in,
  12:zoscillator.cpp ****                    AudioHandle::OutputBuffer out,
  13:zoscillator.cpp ****                    size_t                    size)
  14:zoscillator.cpp **** {
 129              		.loc 8 14 1 is_stmt 1 view -0
 130              		.cfi_startproc
 131              		@ args = 0, pretend = 0, frame = 0
 132              		@ frame_needed = 0, uses_anonymous_args = 0
  15:zoscillator.cpp ****     for(size_t i = 0; i < size; i++)
 133              		.loc 8 15 5 view .LVU15
 134              	.LBB95:
 135              		.loc 8 15 25 view .LVU16
 136 0000 B2B3     		cbz	r2, .L13
 137              	.LBE95:
  14:zoscillator.cpp ****     for(size_t i = 0; i < size; i++)
 138              		.loc 8 14 1 is_stmt 0 view .LVU17
ARM GAS  C:\Users\Miguel\AppData\Local\Temp\ccKdczwd.s 			page 11


 139 0002 2DE9F041 		push	{r4, r5, r6, r7, r8, lr}
 140              		.cfi_def_cfa_offset 24
 141              		.cfi_offset 4, -24
 142              		.cfi_offset 5, -20
 143              		.cfi_offset 6, -16
 144              		.cfi_offset 7, -12
 145              		.cfi_offset 8, -8
 146              		.cfi_offset 14, -4
 147 0006 0E46     		mov	r6, r1
 148 0008 9046     		mov	r8, r2
 149              	.LBB99:
 150              		.loc 8 15 16 view .LVU18
 151 000a 0024     		movs	r4, #0
 152              	.LBE99:
  14:zoscillator.cpp ****     for(size_t i = 0; i < size; i++)
 153              		.loc 8 14 1 view .LVU19
 154 000c 2DED028B 		vpush.64	{d8}
 155              		.cfi_def_cfa_offset 32
 156              		.cfi_offset 80, -32
 157              		.cfi_offset 81, -28
 158              	.LVL4:
 159              	.L7:
 160              	.LBB100:
 161              	.LBB96:
  16:zoscillator.cpp ****     {
  17:zoscillator.cpp ****         float mod1 = lfo1.Process();
 162              		.loc 8 17 9 is_stmt 1 discriminator 2 view .LVU20
 163              		.loc 8 17 34 is_stmt 0 discriminator 2 view .LVU21
 164 0010 1848     		ldr	r0, .L16
 165 0012 A700     		lsls	r7, r4, #2
 166 0014 FFF7FEFF 		bl	_ZN7daisysp10Oscillator7ProcessEv
 167              	.LVL5:
  18:zoscillator.cpp ****         float mod2 = lfo2.Process();
 168              		.loc 8 18 34 discriminator 2 view .LVU22
 169 0018 1748     		ldr	r0, .L16+4
  17:zoscillator.cpp ****         float mod2 = lfo2.Process();
 170              		.loc 8 17 34 discriminator 2 view .LVU23
 171 001a F0EE408A 		vmov.f32	s17, s0
 172              	.LVL6:
 173              		.loc 8 18 9 is_stmt 1 discriminator 2 view .LVU24
 174              		.loc 8 18 34 is_stmt 0 discriminator 2 view .LVU25
 175 001e FFF7FEFF 		bl	_ZN7daisysp10Oscillator7ProcessEv
 176              	.LVL7:
  19:zoscillator.cpp **** 
  20:zoscillator.cpp ****         zosc.SetFormantFreq(250.f * (1.f + mod1 * .8f));
 177              		.loc 8 20 42 discriminator 2 view .LVU26
 178 0022 F7EE007A 		vmov.f32	s15, #1.0e+0
 179 0026 DFED156A 		vldr.32	s13, .L16+8
 180              		.loc 8 20 28 discriminator 2 view .LVU27
 181 002a 9FED157A 		vldr.32	s14, .L16+12
  18:zoscillator.cpp **** 
 182              		.loc 8 18 34 discriminator 2 view .LVU28
 183 002e B0EE408A 		vmov.f32	s16, s0
 184              	.LVL8:
 185              		.loc 8 20 9 is_stmt 1 discriminator 2 view .LVU29
 186              		.loc 8 20 28 is_stmt 0 discriminator 2 view .LVU30
 187 0032 1448     		ldr	r0, .L16+16
ARM GAS  C:\Users\Miguel\AppData\Local\Temp\ccKdczwd.s 			page 12


 188              		.loc 8 20 42 discriminator 2 view .LVU31
 189 0034 E8EEA67A 		vfma.f32	s15, s17, s13
 190              		.loc 8 20 28 discriminator 2 view .LVU32
 191 0038 27EE870A 		vmul.f32	s0, s15, s14
 192              	.LVL9:
 193              		.loc 8 20 28 discriminator 2 view .LVU33
 194 003c FFF7FEFF 		bl	_ZN7daisysp11ZOscillator14SetFormantFreqEf
 195              	.LVL10:
  21:zoscillator.cpp ****         zosc.SetMode(mod2);
 196              		.loc 8 21 9 is_stmt 1 discriminator 2 view .LVU34
 197              		.loc 8 21 21 is_stmt 0 discriminator 2 view .LVU35
 198 0040 B0EE480A 		vmov.f32	s0, s16
 199 0044 0F48     		ldr	r0, .L16+16
 200 0046 FFF7FEFF 		bl	_ZN7daisysp11ZOscillator7SetModeEf
 201              	.LVL11:
  22:zoscillator.cpp **** 
  23:zoscillator.cpp ****         out[0][i] = out[1][i] = zosc.Process();
 202              		.loc 8 23 9 is_stmt 1 discriminator 2 view .LVU36
 203              		.loc 8 23 29 is_stmt 0 discriminator 2 view .LVU37
 204 004a 7568     		ldr	r5, [r6, #4]
 205              		.loc 8 23 45 discriminator 2 view .LVU38
 206 004c 0D48     		ldr	r0, .L16+16
 207 004e FFF7FEFF 		bl	_ZN7daisysp11ZOscillator7ProcessEv
 208              	.LVL12:
 209              		.loc 8 23 19 discriminator 2 view .LVU39
 210 0052 3368     		ldr	r3, [r6]
 211              		.loc 8 23 29 discriminator 2 view .LVU40
 212 0054 05EB8405 		add	r5, r5, r4, lsl #2
 213              	.LBE96:
  15:zoscillator.cpp ****     {
 214              		.loc 8 15 5 discriminator 2 view .LVU41
 215 0058 0134     		adds	r4, r4, #1
 216              	.LVL13:
 217              	.LBB97:
 218              		.loc 8 23 19 discriminator 2 view .LVU42
 219 005a 3B44     		add	r3, r3, r7
 220              	.LBE97:
  15:zoscillator.cpp ****     {
 221              		.loc 8 15 25 discriminator 2 view .LVU43
 222 005c A045     		cmp	r8, r4
 223              	.LBB98:
 224              		.loc 8 23 31 discriminator 2 view .LVU44
 225 005e 85ED000A 		vstr.32	s0, [r5]
 226              		.loc 8 23 19 discriminator 2 view .LVU45
 227 0062 83ED000A 		vstr.32	s0, [r3]
 228              	.LBE98:
  15:zoscillator.cpp ****     {
 229              		.loc 8 15 5 is_stmt 1 discriminator 2 view .LVU46
 230              	.LVL14:
  15:zoscillator.cpp ****     {
 231              		.loc 8 15 25 discriminator 2 view .LVU47
 232 0066 D3D1     		bne	.L7
 233              	.LBE100:
  24:zoscillator.cpp ****     }
  25:zoscillator.cpp **** }
 234              		.loc 8 25 1 is_stmt 0 view .LVU48
 235 0068 BDEC028B 		vldm	sp!, {d8}
ARM GAS  C:\Users\Miguel\AppData\Local\Temp\ccKdczwd.s 			page 13


 236              		.cfi_restore 80
 237              		.cfi_restore 81
 238              		.cfi_def_cfa_offset 24
 239              	.LVL15:
 240              		.loc 8 25 1 view .LVU49
 241 006c BDE8F081 		pop	{r4, r5, r6, r7, r8, pc}
 242              	.LVL16:
 243              	.L13:
 244              		.cfi_def_cfa_offset 0
 245              		.cfi_restore 4
 246              		.cfi_restore 5
 247              		.cfi_restore 6
 248              		.cfi_restore 7
 249              		.cfi_restore 8
 250              		.cfi_restore 14
 251              		.loc 8 25 1 view .LVU50
 252 0070 7047     		bx	lr
 253              	.L17:
 254 0072 00BF     		.align	2
 255              	.L16:
 256 0074 00000000 		.word	.LANCHOR0
 257 0078 00000000 		.word	.LANCHOR1
 258 007c CDCC4C3F 		.word	1061997773
 259 0080 00007A43 		.word	1132068864
 260 0084 00000000 		.word	.LANCHOR2
 261              		.cfi_endproc
 262              	.LFE4681:
 264              		.section	.text.startup.main,"ax",%progbits
 265              		.align	1
 266              		.p2align 2,,3
 267              		.global	main
 268              		.syntax unified
 269              		.thumb
 270              		.thumb_func
 271              		.fpu fpv5-d16
 273              	main:
 274              	.LFB4682:
  26:zoscillator.cpp **** 
  27:zoscillator.cpp **** int main(void)
  28:zoscillator.cpp **** {
 275              		.loc 8 28 1 is_stmt 1 view -0
 276              		.cfi_startproc
 277              		@ args = 0, pretend = 0, frame = 0
 278              		@ frame_needed = 0, uses_anonymous_args = 0
  29:zoscillator.cpp ****     hw.Configure();
 279              		.loc 8 29 5 view .LVU52
  28:zoscillator.cpp ****     hw.Configure();
 280              		.loc 8 28 1 is_stmt 0 view .LVU53
 281 0000 F8B5     		push	{r3, r4, r5, r6, r7, lr}
 282              		.cfi_def_cfa_offset 24
 283              		.cfi_offset 3, -24
 284              		.cfi_offset 4, -20
 285              		.cfi_offset 5, -16
 286              		.cfi_offset 6, -12
 287              		.cfi_offset 7, -8
 288              		.cfi_offset 14, -4
 289              		.loc 8 29 17 view .LVU54
ARM GAS  C:\Users\Miguel\AppData\Local\Temp\ccKdczwd.s 			page 14


 290 0002 3B48     		ldr	r0, .L21
 291              	.LBB113:
 292              	.LBB114:
  25:../../../DaisySP/Source/Synthesis/oscillator.h ****     /** Choices for output waveforms, POLYBLEP are appropriately labeled. Others are naive forms.
  26:../../../DaisySP/Source/Synthesis/oscillator.h ****     */
  27:../../../DaisySP/Source/Synthesis/oscillator.h ****     enum
  28:../../../DaisySP/Source/Synthesis/oscillator.h ****     {
  29:../../../DaisySP/Source/Synthesis/oscillator.h ****         WAVE_SIN,
  30:../../../DaisySP/Source/Synthesis/oscillator.h ****         WAVE_TRI,
  31:../../../DaisySP/Source/Synthesis/oscillator.h ****         WAVE_SAW,
  32:../../../DaisySP/Source/Synthesis/oscillator.h ****         WAVE_RAMP,
  33:../../../DaisySP/Source/Synthesis/oscillator.h ****         WAVE_SQUARE,
  34:../../../DaisySP/Source/Synthesis/oscillator.h ****         WAVE_POLYBLEP_TRI,
  35:../../../DaisySP/Source/Synthesis/oscillator.h ****         WAVE_POLYBLEP_SAW,
  36:../../../DaisySP/Source/Synthesis/oscillator.h ****         WAVE_POLYBLEP_SQUARE,
  37:../../../DaisySP/Source/Synthesis/oscillator.h ****         WAVE_LAST,
  38:../../../DaisySP/Source/Synthesis/oscillator.h ****     };
  39:../../../DaisySP/Source/Synthesis/oscillator.h **** 
  40:../../../DaisySP/Source/Synthesis/oscillator.h **** 
  41:../../../DaisySP/Source/Synthesis/oscillator.h ****     /** Initializes the Oscillator
  42:../../../DaisySP/Source/Synthesis/oscillator.h **** 
  43:../../../DaisySP/Source/Synthesis/oscillator.h ****         \param sample_rate - sample rate of the audio engine being run, and the frequency that the 
  44:../../../DaisySP/Source/Synthesis/oscillator.h **** 
  45:../../../DaisySP/Source/Synthesis/oscillator.h ****         Defaults:
  46:../../../DaisySP/Source/Synthesis/oscillator.h ****         - freq_ = 100 Hz
  47:../../../DaisySP/Source/Synthesis/oscillator.h ****         - amp_ = 0.5
  48:../../../DaisySP/Source/Synthesis/oscillator.h ****         - waveform_ = sine wave.
  49:../../../DaisySP/Source/Synthesis/oscillator.h ****     */
  50:../../../DaisySP/Source/Synthesis/oscillator.h ****     void Init(float sample_rate)
  51:../../../DaisySP/Source/Synthesis/oscillator.h ****     {
  52:../../../DaisySP/Source/Synthesis/oscillator.h ****         sr_        = sample_rate;
  53:../../../DaisySP/Source/Synthesis/oscillator.h ****         sr_recip_  = 1.0f / sample_rate;
  54:../../../DaisySP/Source/Synthesis/oscillator.h ****         freq_      = 100.0f;
  55:../../../DaisySP/Source/Synthesis/oscillator.h ****         amp_       = 0.5f;
  56:../../../DaisySP/Source/Synthesis/oscillator.h ****         pw_        = 0.5f;
  57:../../../DaisySP/Source/Synthesis/oscillator.h ****         phase_     = 0.0f;
 293              		.loc 6 57 20 view .LVU55
 294 0004 0027     		movs	r7, #0
  52:../../../DaisySP/Source/Synthesis/oscillator.h ****         sr_recip_  = 1.0f / sample_rate;
 295              		.loc 6 52 20 view .LVU56
 296 0006 3B4C     		ldr	r4, .L21+4
  58:../../../DaisySP/Source/Synthesis/oscillator.h ****         phase_inc_ = CalcPhaseInc(freq_);
  59:../../../DaisySP/Source/Synthesis/oscillator.h ****         waveform_  = WAVE_SIN;
  60:../../../DaisySP/Source/Synthesis/oscillator.h ****         eoc_       = true;
  61:../../../DaisySP/Source/Synthesis/oscillator.h ****         eor_       = true;
 297              		.loc 6 61 20 view .LVU57
 298 0008 40F20115 		movw	r5, #257
  59:../../../DaisySP/Source/Synthesis/oscillator.h ****         eoc_       = true;
 299              		.loc 6 59 20 view .LVU58
 300 000c 0026     		movs	r6, #0
 301              	.LBE114:
 302              	.LBE113:
  28:zoscillator.cpp ****     hw.Configure();
 303              		.loc 8 28 1 view .LVU59
 304 000e 2DED068B 		vpush.64	{d8, d9, d10}
 305              		.cfi_def_cfa_offset 48
 306              		.cfi_offset 80, -48
ARM GAS  C:\Users\Miguel\AppData\Local\Temp\ccKdczwd.s 			page 15


 307              		.cfi_offset 81, -44
 308              		.cfi_offset 82, -40
 309              		.cfi_offset 83, -36
 310              		.cfi_offset 84, -32
 311              		.cfi_offset 85, -28
 312              		.loc 8 29 17 view .LVU60
 313 0012 FFF7FEFF 		bl	_ZN5daisy9DaisySeed9ConfigureEv
 314              	.LVL17:
  30:zoscillator.cpp ****     hw.Init();
 315              		.loc 8 30 5 is_stmt 1 view .LVU61
 316              		.loc 8 30 12 is_stmt 0 view .LVU62
 317 0016 0021     		movs	r1, #0
 318 0018 3548     		ldr	r0, .L21
 319              	.LBB120:
 320              	.LBB115:
  53:../../../DaisySP/Source/Synthesis/oscillator.h ****         freq_      = 100.0f;
 321              		.loc 6 53 27 view .LVU63
 322 001a F7EE008A 		vmov.f32	s17, #1.0e+0
 323              	.LBE115:
 324              	.LBE120:
 325              		.loc 8 30 12 view .LVU64
 326 001e FFF7FEFF 		bl	_ZN5daisy9DaisySeed4InitEb
 327              	.LVL18:
  31:zoscillator.cpp ****     hw.SetAudioBlockSize(4);
 328              		.loc 8 31 5 is_stmt 1 view .LVU65
 329              		.loc 8 31 25 is_stmt 0 view .LVU66
 330 0022 0421     		movs	r1, #4
 331 0024 3248     		ldr	r0, .L21
 332              	.LBB121:
 333              	.LBB116:
  55:../../../DaisySP/Source/Synthesis/oscillator.h ****         pw_        = 0.5f;
 334              		.loc 6 55 20 view .LVU67
 335 0026 B6EE008A 		vmov.f32	s16, #5.0e-1
 336              	.LBE116:
 337              	.LBE121:
 338              		.loc 8 31 25 view .LVU68
 339 002a FFF7FEFF 		bl	_ZN5daisy9DaisySeed17SetAudioBlockSizeEj
 340              	.LVL19:
  32:zoscillator.cpp ****     float sample_rate = hw.AudioSampleRate();
 341              		.loc 8 32 5 is_stmt 1 view .LVU69
 342              		.loc 8 32 43 is_stmt 0 view .LVU70
 343 002e 3048     		ldr	r0, .L21
 344 0030 FFF7FEFF 		bl	_ZN5daisy9DaisySeed15AudioSampleRateEv
 345              	.LVL20:
  33:zoscillator.cpp **** 
  34:zoscillator.cpp ****     zosc.Init(sample_rate);
 346              		.loc 8 34 14 view .LVU71
 347 0034 3048     		ldr	r0, .L21+8
  32:zoscillator.cpp ****     float sample_rate = hw.AudioSampleRate();
 348              		.loc 8 32 43 view .LVU72
 349 0036 B0EE409A 		vmov.f32	s18, s0
 350              	.LVL21:
 351              		.loc 8 34 5 is_stmt 1 view .LVU73
 352              		.loc 8 34 14 is_stmt 0 view .LVU74
 353 003a FFF7FEFF 		bl	_ZN7daisysp11ZOscillator4InitEf
 354              	.LVL22:
  35:zoscillator.cpp ****     zosc.SetFreq(80.f);
ARM GAS  C:\Users\Miguel\AppData\Local\Temp\ccKdczwd.s 			page 16


 355              		.loc 8 35 5 is_stmt 1 view .LVU75
 356              		.loc 8 35 17 is_stmt 0 view .LVU76
 357 003e 9FED2F0A 		vldr.32	s0, .L21+12
 358 0042 2D48     		ldr	r0, .L21+8
 359 0044 FFF7FEFF 		bl	_ZN7daisysp11ZOscillator7SetFreqEf
 360              	.LVL23:
  36:zoscillator.cpp ****     zosc.SetShape(1.f);
 361              		.loc 8 36 5 is_stmt 1 view .LVU77
 362              		.loc 8 36 18 is_stmt 0 view .LVU78
 363 0048 B0EE680A 		vmov.f32	s0, s17
 364 004c 2A48     		ldr	r0, .L21+8
 365 004e FFF7FEFF 		bl	_ZN7daisysp11ZOscillator8SetShapeEf
 366              	.LVL24:
  37:zoscillator.cpp **** 
  38:zoscillator.cpp ****     lfo1.Init(sample_rate);
 367              		.loc 8 38 5 is_stmt 1 view .LVU79
 368              	.LBB122:
 369              	.LBI113:
  50:../../../DaisySP/Source/Synthesis/oscillator.h ****     {
 370              		.loc 6 50 10 view .LVU80
 371              	.LBB117:
  52:../../../DaisySP/Source/Synthesis/oscillator.h ****         sr_recip_  = 1.0f / sample_rate;
 372              		.loc 6 52 9 view .LVU81
  53:../../../DaisySP/Source/Synthesis/oscillator.h ****         freq_      = 100.0f;
 373              		.loc 6 53 27 is_stmt 0 view .LVU82
 374 0052 88EE89AA 		vdiv.f32	s20, s17, s18
  54:../../../DaisySP/Source/Synthesis/oscillator.h ****         amp_       = 0.5f;
 375              		.loc 6 54 20 view .LVU83
 376 0056 DFED2A9A 		vldr.32	s19, .L21+16
  58:../../../DaisySP/Source/Synthesis/oscillator.h ****         waveform_  = WAVE_SIN;
 377              		.loc 6 58 34 view .LVU84
 378 005a 2046     		mov	r0, r4
  52:../../../DaisySP/Source/Synthesis/oscillator.h ****         sr_recip_  = 1.0f / sample_rate;
 379              		.loc 6 52 20 view .LVU85
 380 005c 84ED049A 		vstr.32	s18, [r4, #16]
  53:../../../DaisySP/Source/Synthesis/oscillator.h ****         freq_      = 100.0f;
 381              		.loc 6 53 9 is_stmt 1 view .LVU86
  54:../../../DaisySP/Source/Synthesis/oscillator.h ****         amp_       = 0.5f;
 382              		.loc 6 54 20 is_stmt 0 view .LVU87
 383 0060 C4ED029A 		vstr.32	s19, [r4, #8]
  55:../../../DaisySP/Source/Synthesis/oscillator.h ****         pw_        = 0.5f;
 384              		.loc 6 55 20 view .LVU88
 385 0064 84ED018A 		vstr.32	s16, [r4, #4]
  58:../../../DaisySP/Source/Synthesis/oscillator.h ****         waveform_  = WAVE_SIN;
 386              		.loc 6 58 34 view .LVU89
 387 0068 B0EE690A 		vmov.f32	s0, s19
  56:../../../DaisySP/Source/Synthesis/oscillator.h ****         phase_     = 0.0f;
 388              		.loc 6 56 20 view .LVU90
 389 006c 84ED038A 		vstr.32	s16, [r4, #12]
  57:../../../DaisySP/Source/Synthesis/oscillator.h ****         phase_inc_ = CalcPhaseInc(freq_);
 390              		.loc 6 57 20 view .LVU91
 391 0070 A761     		str	r7, [r4, #24]	@ float
  53:../../../DaisySP/Source/Synthesis/oscillator.h ****         freq_      = 100.0f;
 392              		.loc 6 53 20 view .LVU92
 393 0072 84ED05AA 		vstr.32	s20, [r4, #20]
  54:../../../DaisySP/Source/Synthesis/oscillator.h ****         amp_       = 0.5f;
 394              		.loc 6 54 9 is_stmt 1 view .LVU93
ARM GAS  C:\Users\Miguel\AppData\Local\Temp\ccKdczwd.s 			page 17


  55:../../../DaisySP/Source/Synthesis/oscillator.h ****         pw_        = 0.5f;
 395              		.loc 6 55 9 view .LVU94
  56:../../../DaisySP/Source/Synthesis/oscillator.h ****         phase_     = 0.0f;
 396              		.loc 6 56 9 view .LVU95
  57:../../../DaisySP/Source/Synthesis/oscillator.h ****         phase_inc_ = CalcPhaseInc(freq_);
 397              		.loc 6 57 9 view .LVU96
  58:../../../DaisySP/Source/Synthesis/oscillator.h ****         waveform_  = WAVE_SIN;
 398              		.loc 6 58 9 view .LVU97
  58:../../../DaisySP/Source/Synthesis/oscillator.h ****         waveform_  = WAVE_SIN;
 399              		.loc 6 58 34 is_stmt 0 view .LVU98
 400 0076 FFF7FEFF 		bl	_ZN7daisysp10Oscillator12CalcPhaseIncEf
 401              	.LVL25:
 402 007a F0EE407A 		vmov.f32	s15, s0
 403              	.LBE117:
 404              	.LBE122:
 405              	.LBB123:
 406              	.LBB124:
  62:../../../DaisySP/Source/Synthesis/oscillator.h ****     }
  63:../../../DaisySP/Source/Synthesis/oscillator.h **** 
  64:../../../DaisySP/Source/Synthesis/oscillator.h **** 
  65:../../../DaisySP/Source/Synthesis/oscillator.h ****     /** Changes the frequency of the Oscillator, and recalculates phase increment.
  66:../../../DaisySP/Source/Synthesis/oscillator.h ****     */
  67:../../../DaisySP/Source/Synthesis/oscillator.h ****     inline void SetFreq(const float f)
  68:../../../DaisySP/Source/Synthesis/oscillator.h ****     {
  69:../../../DaisySP/Source/Synthesis/oscillator.h ****         freq_      = f;
  70:../../../DaisySP/Source/Synthesis/oscillator.h ****         phase_inc_ = CalcPhaseInc(f);
 407              		.loc 6 70 34 view .LVU99
 408 007e 2046     		mov	r0, r4
 409              	.LBE124:
 410              	.LBE123:
 411              	.LBB128:
 412              	.LBB118:
  61:../../../DaisySP/Source/Synthesis/oscillator.h ****     }
 413              		.loc 6 61 20 view .LVU100
 414 0080 2585     		strh	r5, [r4, #40]	@ movhi
 415              	.LBE118:
 416              	.LBE128:
 417              	.LBB129:
 418              	.LBB125:
 419              		.loc 6 70 34 view .LVU101
 420 0082 B0EE680A 		vmov.f32	s0, s17
 421              	.LBE125:
 422              	.LBE129:
 423              	.LBB130:
 424              	.LBB119:
  59:../../../DaisySP/Source/Synthesis/oscillator.h ****         eoc_       = true;
 425              		.loc 6 59 20 view .LVU102
 426 0086 2670     		strb	r6, [r4]
  58:../../../DaisySP/Source/Synthesis/oscillator.h ****         waveform_  = WAVE_SIN;
 427              		.loc 6 58 20 view .LVU103
 428 0088 C4ED077A 		vstr.32	s15, [r4, #28]
  59:../../../DaisySP/Source/Synthesis/oscillator.h ****         eoc_       = true;
 429              		.loc 6 59 9 is_stmt 1 view .LVU104
  60:../../../DaisySP/Source/Synthesis/oscillator.h ****         eor_       = true;
 430              		.loc 6 60 9 view .LVU105
  61:../../../DaisySP/Source/Synthesis/oscillator.h ****     }
 431              		.loc 6 61 9 view .LVU106
ARM GAS  C:\Users\Miguel\AppData\Local\Temp\ccKdczwd.s 			page 18


 432              	.LVL26:
  61:../../../DaisySP/Source/Synthesis/oscillator.h ****     }
 433              		.loc 6 61 9 is_stmt 0 view .LVU107
 434              	.LBE119:
 435              	.LBE130:
  39:zoscillator.cpp ****     lfo1.SetAmp(1.f);
 436              		.loc 8 39 5 is_stmt 1 view .LVU108
 437              	.LBB131:
 438              	.LBI131:
  71:../../../DaisySP/Source/Synthesis/oscillator.h ****     }
  72:../../../DaisySP/Source/Synthesis/oscillator.h **** 
  73:../../../DaisySP/Source/Synthesis/oscillator.h **** 
  74:../../../DaisySP/Source/Synthesis/oscillator.h ****     /** Sets the amplitude of the waveform.
  75:../../../DaisySP/Source/Synthesis/oscillator.h ****     */
  76:../../../DaisySP/Source/Synthesis/oscillator.h ****     inline void SetAmp(const float a) { amp_ = a; }
 439              		.loc 6 76 17 view .LVU109
 440              	.LBB132:
 441              		.loc 6 76 41 view .LVU110
 442              		.loc 6 76 46 is_stmt 0 view .LVU111
 443 008c C4ED018A 		vstr.32	s17, [r4, #4]
 444              	.LVL27:
 445              		.loc 6 76 46 view .LVU112
 446              	.LBE132:
 447              	.LBE131:
  40:zoscillator.cpp ****     lfo1.SetFreq(1.f);
 448              		.loc 8 40 5 is_stmt 1 view .LVU113
 449              	.LBB133:
 450              	.LBI123:
  67:../../../DaisySP/Source/Synthesis/oscillator.h ****     {
 451              		.loc 6 67 17 view .LVU114
 452              	.LBB126:
  69:../../../DaisySP/Source/Synthesis/oscillator.h ****         phase_inc_ = CalcPhaseInc(f);
 453              		.loc 6 69 9 view .LVU115
  69:../../../DaisySP/Source/Synthesis/oscillator.h ****         phase_inc_ = CalcPhaseInc(f);
 454              		.loc 6 69 20 is_stmt 0 view .LVU116
 455 0090 C4ED028A 		vstr.32	s17, [r4, #8]
  70:../../../DaisySP/Source/Synthesis/oscillator.h ****     }
 456              		.loc 6 70 9 is_stmt 1 view .LVU117
  70:../../../DaisySP/Source/Synthesis/oscillator.h ****     }
 457              		.loc 6 70 34 is_stmt 0 view .LVU118
 458 0094 FFF7FEFF 		bl	_ZN7daisysp10Oscillator12CalcPhaseIncEf
 459              	.LVL28:
 460 0098 F0EE407A 		vmov.f32	s15, s0
 461              	.LBE126:
 462              	.LBE133:
 463              	.LBB134:
 464              	.LBB135:
  58:../../../DaisySP/Source/Synthesis/oscillator.h ****         waveform_  = WAVE_SIN;
 465              		.loc 6 58 34 view .LVU119
 466 009c B0EE690A 		vmov.f32	s0, s19
 467              	.LBE135:
 468              	.LBE134:
 469              	.LBB138:
 470              	.LBB127:
  70:../../../DaisySP/Source/Synthesis/oscillator.h ****     }
 471              		.loc 6 70 20 view .LVU120
 472 00a0 C4ED077A 		vstr.32	s15, [r4, #28]
ARM GAS  C:\Users\Miguel\AppData\Local\Temp\ccKdczwd.s 			page 19


 473              	.LVL29:
  70:../../../DaisySP/Source/Synthesis/oscillator.h ****     }
 474              		.loc 6 70 20 view .LVU121
 475              	.LBE127:
 476              	.LBE138:
  41:zoscillator.cpp **** 
  42:zoscillator.cpp ****     lfo2.Init(sample_rate);
 477              		.loc 8 42 5 is_stmt 1 view .LVU122
 478              	.LBB139:
 479              	.LBI134:
  50:../../../DaisySP/Source/Synthesis/oscillator.h ****     {
 480              		.loc 6 50 10 view .LVU123
 481              	.LBB136:
  52:../../../DaisySP/Source/Synthesis/oscillator.h ****         sr_recip_  = 1.0f / sample_rate;
 482              		.loc 6 52 9 view .LVU124
  52:../../../DaisySP/Source/Synthesis/oscillator.h ****         sr_recip_  = 1.0f / sample_rate;
 483              		.loc 6 52 20 is_stmt 0 view .LVU125
 484 00a4 174C     		ldr	r4, .L21+20
  58:../../../DaisySP/Source/Synthesis/oscillator.h ****         waveform_  = WAVE_SIN;
 485              		.loc 6 58 34 view .LVU126
 486 00a6 2046     		mov	r0, r4
  52:../../../DaisySP/Source/Synthesis/oscillator.h ****         sr_recip_  = 1.0f / sample_rate;
 487              		.loc 6 52 20 view .LVU127
 488 00a8 84ED049A 		vstr.32	s18, [r4, #16]
  53:../../../DaisySP/Source/Synthesis/oscillator.h ****         freq_      = 100.0f;
 489              		.loc 6 53 9 is_stmt 1 view .LVU128
  53:../../../DaisySP/Source/Synthesis/oscillator.h ****         freq_      = 100.0f;
 490              		.loc 6 53 20 is_stmt 0 view .LVU129
 491 00ac 84ED05AA 		vstr.32	s20, [r4, #20]
  54:../../../DaisySP/Source/Synthesis/oscillator.h ****         amp_       = 0.5f;
 492              		.loc 6 54 9 is_stmt 1 view .LVU130
  54:../../../DaisySP/Source/Synthesis/oscillator.h ****         amp_       = 0.5f;
 493              		.loc 6 54 20 is_stmt 0 view .LVU131
 494 00b0 C4ED029A 		vstr.32	s19, [r4, #8]
  55:../../../DaisySP/Source/Synthesis/oscillator.h ****         pw_        = 0.5f;
 495              		.loc 6 55 9 is_stmt 1 view .LVU132
  55:../../../DaisySP/Source/Synthesis/oscillator.h ****         pw_        = 0.5f;
 496              		.loc 6 55 20 is_stmt 0 view .LVU133
 497 00b4 84ED018A 		vstr.32	s16, [r4, #4]
  56:../../../DaisySP/Source/Synthesis/oscillator.h ****         phase_     = 0.0f;
 498              		.loc 6 56 9 is_stmt 1 view .LVU134
  56:../../../DaisySP/Source/Synthesis/oscillator.h ****         phase_     = 0.0f;
 499              		.loc 6 56 20 is_stmt 0 view .LVU135
 500 00b8 84ED038A 		vstr.32	s16, [r4, #12]
  57:../../../DaisySP/Source/Synthesis/oscillator.h ****         phase_inc_ = CalcPhaseInc(freq_);
 501              		.loc 6 57 9 is_stmt 1 view .LVU136
  57:../../../DaisySP/Source/Synthesis/oscillator.h ****         phase_inc_ = CalcPhaseInc(freq_);
 502              		.loc 6 57 20 is_stmt 0 view .LVU137
 503 00bc A761     		str	r7, [r4, #24]	@ float
  58:../../../DaisySP/Source/Synthesis/oscillator.h ****         waveform_  = WAVE_SIN;
 504              		.loc 6 58 9 is_stmt 1 view .LVU138
  58:../../../DaisySP/Source/Synthesis/oscillator.h ****         waveform_  = WAVE_SIN;
 505              		.loc 6 58 34 is_stmt 0 view .LVU139
 506 00be FFF7FEFF 		bl	_ZN7daisysp10Oscillator12CalcPhaseIncEf
 507              	.LVL30:
 508 00c2 F0EE407A 		vmov.f32	s15, s0
 509              	.LBE136:
ARM GAS  C:\Users\Miguel\AppData\Local\Temp\ccKdczwd.s 			page 20


 510              	.LBE139:
 511              	.LBB140:
 512              	.LBB141:
  70:../../../DaisySP/Source/Synthesis/oscillator.h ****     }
 513              		.loc 6 70 34 view .LVU140
 514 00c6 2046     		mov	r0, r4
 515 00c8 B0EE480A 		vmov.f32	s0, s16
 516              	.LBE141:
 517              	.LBE140:
 518              	.LBB144:
 519              	.LBB137:
  61:../../../DaisySP/Source/Synthesis/oscillator.h ****     }
 520              		.loc 6 61 20 view .LVU141
 521 00cc 2585     		strh	r5, [r4, #40]	@ movhi
  59:../../../DaisySP/Source/Synthesis/oscillator.h ****         eoc_       = true;
 522              		.loc 6 59 20 view .LVU142
 523 00ce 2670     		strb	r6, [r4]
  58:../../../DaisySP/Source/Synthesis/oscillator.h ****         waveform_  = WAVE_SIN;
 524              		.loc 6 58 20 view .LVU143
 525 00d0 C4ED077A 		vstr.32	s15, [r4, #28]
  59:../../../DaisySP/Source/Synthesis/oscillator.h ****         eoc_       = true;
 526              		.loc 6 59 9 is_stmt 1 view .LVU144
  60:../../../DaisySP/Source/Synthesis/oscillator.h ****         eor_       = true;
 527              		.loc 6 60 9 view .LVU145
  61:../../../DaisySP/Source/Synthesis/oscillator.h ****     }
 528              		.loc 6 61 9 view .LVU146
 529              	.LVL31:
  61:../../../DaisySP/Source/Synthesis/oscillator.h ****     }
 530              		.loc 6 61 9 is_stmt 0 view .LVU147
 531              	.LBE137:
 532              	.LBE144:
  43:zoscillator.cpp ****     lfo2.SetAmp(1.f);
 533              		.loc 8 43 5 is_stmt 1 view .LVU148
 534              	.LBB145:
 535              	.LBI145:
 536              		.loc 6 76 17 view .LVU149
 537              	.LBB146:
 538              		.loc 6 76 41 view .LVU150
 539              		.loc 6 76 46 is_stmt 0 view .LVU151
 540 00d4 C4ED018A 		vstr.32	s17, [r4, #4]
 541              	.LVL32:
 542              		.loc 6 76 46 view .LVU152
 543              	.LBE146:
 544              	.LBE145:
  44:zoscillator.cpp ****     lfo2.SetFreq(.5f);
 545              		.loc 8 44 5 is_stmt 1 view .LVU153
 546              	.LBB147:
 547              	.LBI140:
  67:../../../DaisySP/Source/Synthesis/oscillator.h ****     {
 548              		.loc 6 67 17 view .LVU154
 549              	.LBB142:
  69:../../../DaisySP/Source/Synthesis/oscillator.h ****         phase_inc_ = CalcPhaseInc(f);
 550              		.loc 6 69 9 view .LVU155
  69:../../../DaisySP/Source/Synthesis/oscillator.h ****         phase_inc_ = CalcPhaseInc(f);
 551              		.loc 6 69 20 is_stmt 0 view .LVU156
 552 00d8 84ED028A 		vstr.32	s16, [r4, #8]
  70:../../../DaisySP/Source/Synthesis/oscillator.h ****     }
ARM GAS  C:\Users\Miguel\AppData\Local\Temp\ccKdczwd.s 			page 21


 553              		.loc 6 70 9 is_stmt 1 view .LVU157
  70:../../../DaisySP/Source/Synthesis/oscillator.h ****     }
 554              		.loc 6 70 34 is_stmt 0 view .LVU158
 555 00dc FFF7FEFF 		bl	_ZN7daisysp10Oscillator12CalcPhaseIncEf
 556              	.LVL33:
 557              	.LBE142:
 558              	.LBE147:
  45:zoscillator.cpp **** 
  46:zoscillator.cpp ****     hw.StartAudio(AudioCallback);
 559              		.loc 8 46 18 view .LVU159
 560 00e0 0949     		ldr	r1, .L21+24
 561 00e2 0348     		ldr	r0, .L21
 562              	.LBB148:
 563              	.LBB143:
  70:../../../DaisySP/Source/Synthesis/oscillator.h ****     }
 564              		.loc 6 70 20 view .LVU160
 565 00e4 84ED070A 		vstr.32	s0, [r4, #28]
 566              	.LVL34:
  70:../../../DaisySP/Source/Synthesis/oscillator.h ****     }
 567              		.loc 6 70 20 view .LVU161
 568              	.LBE143:
 569              	.LBE148:
 570              		.loc 8 46 5 is_stmt 1 view .LVU162
 571              		.loc 8 46 18 is_stmt 0 view .LVU163
 572 00e8 FFF7FEFF 		bl	_ZN5daisy9DaisySeed10StartAudioEPFvPKPKfPPfjE
 573              	.LVL35:
 574              	.L19:
  47:zoscillator.cpp ****     while(1) {}
 575              		.loc 8 47 5 is_stmt 1 discriminator 1 view .LVU164
 576              		.loc 8 47 5 discriminator 1 view .LVU165
 577              		.loc 8 47 5 discriminator 1 view .LVU166
 578              		.loc 8 47 5 discriminator 1 view .LVU167
 579 00ec FEE7     		b	.L19
 580              	.L22:
 581 00ee 00BF     		.align	2
 582              	.L21:
 583 00f0 00000000 		.word	.LANCHOR3
 584 00f4 00000000 		.word	.LANCHOR0
 585 00f8 00000000 		.word	.LANCHOR2
 586 00fc 0000A042 		.word	1117782016
 587 0100 0000C842 		.word	1120403456
 588 0104 00000000 		.word	.LANCHOR1
 589 0108 00000000 		.word	_Z13AudioCallbackPKPKfPPfj
 590              		.cfi_endproc
 591              	.LFE4682:
 593              		.section	.text.startup._GLOBAL__sub_I_hw,"ax",%progbits
 594              		.align	1
 595              		.p2align 2,,3
 596              		.syntax unified
 597              		.thumb
 598              		.thumb_func
 599              		.fpu fpv5-d16
 601              	_GLOBAL__sub_I_hw:
 602              	.LFB5245:
  48:zoscillator.cpp **** }
 603              		.loc 8 48 1 view -0
 604              		.cfi_startproc
ARM GAS  C:\Users\Miguel\AppData\Local\Temp\ccKdczwd.s 			page 22


 605              		@ args = 0, pretend = 0, frame = 0
 606              		@ frame_needed = 0, uses_anonymous_args = 0
 607              	.LBB176:
 608              	.LBI176:
 609              		.loc 8 48 1 view .LVU169
 610              	.LVL36:
 611              	.LBB177:
 612              	.LBB178:
 613              	.LBI178:
  21:../../../libDaisy/src/daisy_seed.h ****     ~DaisySeed() {}
 614              		.loc 1 21 5 view .LVU170
 615              	.LBB179:
 616              	.LBB180:
 617              	.LBI180:
 618              		.file 9 "../../../libDaisy/src/per/qspi.h"
   1:../../../libDaisy/src/per/qspi.h **** #ifndef DSY_QSPI
   2:../../../libDaisy/src/per/qspi.h **** #define DSY_QSPI /**< Macro */
   3:../../../libDaisy/src/per/qspi.h **** 
   4:../../../libDaisy/src/per/qspi.h **** #ifndef UNIT_TEST // for unit tests, a dummy implementation
   5:../../../libDaisy/src/per/qspi.h **** 
   6:../../../libDaisy/src/per/qspi.h **** #include <cstdint>
   7:../../../libDaisy/src/per/qspi.h **** #include "daisy_core.h" // Added for dsy_gpio_pin typedef
   8:../../../libDaisy/src/per/qspi.h **** 
   9:../../../libDaisy/src/per/qspi.h **** #define DSY_QSPI_TEXT       \
  10:../../../libDaisy/src/per/qspi.h ****     __attribute__((section( \
  11:../../../libDaisy/src/per/qspi.h ****         ".qspiflash_text"))) /**< used for reading memory in memory_mapped mode. */
  12:../../../libDaisy/src/per/qspi.h **** #define DSY_QSPI_DATA       \
  13:../../../libDaisy/src/per/qspi.h ****     __attribute__((section( \
  14:../../../libDaisy/src/per/qspi.h ****         ".qspiflash_data"))) /**< used for reading memory in memory_mapped mode. */
  15:../../../libDaisy/src/per/qspi.h **** #define DSY_QSPI_BSS        \
  16:../../../libDaisy/src/per/qspi.h ****     __attribute__((section( \
  17:../../../libDaisy/src/per/qspi.h ****         ".qspiflash_bss"))) /**< used for reading memory in memory_mapped mode. */
  18:../../../libDaisy/src/per/qspi.h **** 
  19:../../../libDaisy/src/per/qspi.h **** namespace daisy
  20:../../../libDaisy/src/per/qspi.h **** {
  21:../../../libDaisy/src/per/qspi.h **** /** @addtogroup serial
  22:../../../libDaisy/src/per/qspi.h **** @{
  23:../../../libDaisy/src/per/qspi.h **** */
  24:../../../libDaisy/src/per/qspi.h **** 
  25:../../../libDaisy/src/per/qspi.h **** /** 
  26:../../../libDaisy/src/per/qspi.h ****  Driver for QSPI peripheral to interface with external flash memory. \n 
  27:../../../libDaisy/src/per/qspi.h ****     Currently supported QSPI Devices: \n 
  28:../../../libDaisy/src/per/qspi.h ****     * IS25LP080D
  29:../../../libDaisy/src/per/qspi.h **** */
  30:../../../libDaisy/src/per/qspi.h **** class QSPIHandle
  31:../../../libDaisy/src/per/qspi.h **** {
  32:../../../libDaisy/src/per/qspi.h ****   public:
  33:../../../libDaisy/src/per/qspi.h ****     enum Result
  34:../../../libDaisy/src/per/qspi.h ****     {
  35:../../../libDaisy/src/per/qspi.h ****         OK = 0,
  36:../../../libDaisy/src/per/qspi.h ****         ERR
  37:../../../libDaisy/src/per/qspi.h ****     };
  38:../../../libDaisy/src/per/qspi.h **** 
  39:../../../libDaisy/src/per/qspi.h ****     /** Indicates the current status of the module. 
  40:../../../libDaisy/src/per/qspi.h ****          *  Warnings are indicated by a leading W.
  41:../../../libDaisy/src/per/qspi.h ****          *  Errors are indicated by a leading E and cause an immediate exit.
  42:../../../libDaisy/src/per/qspi.h ****          * 
ARM GAS  C:\Users\Miguel\AppData\Local\Temp\ccKdczwd.s 			page 23


  43:../../../libDaisy/src/per/qspi.h ****          *  \param GOOD - No errors have been reported.
  44:../../../libDaisy/src/per/qspi.h ****          *  \param E_HAL_ERROR - HAL code did not return HAL_OK.
  45:../../../libDaisy/src/per/qspi.h ****          *  \param E_SWITCHING_MODES - An error was encountered while switching QSPI peripheral mod
  46:../../../libDaisy/src/per/qspi.h ****          *  \param E_INVALID_MODE - QSPI should not be written to while the program is executing fr
  47:../../../libDaisy/src/per/qspi.h ****          */
  48:../../../libDaisy/src/per/qspi.h ****     enum Status
  49:../../../libDaisy/src/per/qspi.h ****     {
  50:../../../libDaisy/src/per/qspi.h ****         GOOD = 0,
  51:../../../libDaisy/src/per/qspi.h ****         E_HAL_ERROR,
  52:../../../libDaisy/src/per/qspi.h ****         E_SWITCHING_MODES,
  53:../../../libDaisy/src/per/qspi.h ****         E_INVALID_MODE,
  54:../../../libDaisy/src/per/qspi.h ****     };
  55:../../../libDaisy/src/per/qspi.h **** 
  56:../../../libDaisy/src/per/qspi.h ****     /** Configuration structure for interfacing with QSPI Driver */
  57:../../../libDaisy/src/per/qspi.h ****     struct Config
  58:../../../libDaisy/src/per/qspi.h ****     {
  59:../../../libDaisy/src/per/qspi.h ****         /** Flash Devices supported. (Both of these are more-or-less the same, just different sizes
  60:../../../libDaisy/src/per/qspi.h ****         enum Device
  61:../../../libDaisy/src/per/qspi.h ****         {
  62:../../../libDaisy/src/per/qspi.h ****             IS25LP080D,  /**< & */
  63:../../../libDaisy/src/per/qspi.h ****             IS25LP064A,  /**< & */
  64:../../../libDaisy/src/per/qspi.h ****             DEVICE_LAST, /**< & */
  65:../../../libDaisy/src/per/qspi.h ****         };
  66:../../../libDaisy/src/per/qspi.h **** 
  67:../../../libDaisy/src/per/qspi.h ****         /** 
  68:../../../libDaisy/src/per/qspi.h ****         Modes of operation.
  69:../../../libDaisy/src/per/qspi.h ****         Memory Mapped mode: QSPI configured so that the QSPI can be
  70:../../../libDaisy/src/per/qspi.h ****         read from starting address 0x90000000. Writing is not
  71:../../../libDaisy/src/per/qspi.h ****         possible in this mode. \n 
  72:../../../libDaisy/src/per/qspi.h ****         Indirect Polling mode: Device driver enabled. 
  73:../../../libDaisy/src/per/qspi.h ****         */
  74:../../../libDaisy/src/per/qspi.h ****         enum Mode
  75:../../../libDaisy/src/per/qspi.h ****         {
  76:../../../libDaisy/src/per/qspi.h ****             MEMORY_MAPPED,    /**< & */
  77:../../../libDaisy/src/per/qspi.h ****             INDIRECT_POLLING, /**< & */
  78:../../../libDaisy/src/per/qspi.h ****             MODE_LAST,
  79:../../../libDaisy/src/per/qspi.h ****         };
  80:../../../libDaisy/src/per/qspi.h **** 
  81:../../../libDaisy/src/per/qspi.h ****         //SCK,  CE# (active low)
  82:../../../libDaisy/src/per/qspi.h ****         struct
  83:../../../libDaisy/src/per/qspi.h ****         {
  84:../../../libDaisy/src/per/qspi.h ****             dsy_gpio_pin io0; /**< & */
  85:../../../libDaisy/src/per/qspi.h ****             dsy_gpio_pin io1; /**< & */
  86:../../../libDaisy/src/per/qspi.h ****             dsy_gpio_pin io2; /**< & */
  87:../../../libDaisy/src/per/qspi.h ****             dsy_gpio_pin io3; /**< & */
  88:../../../libDaisy/src/per/qspi.h ****             dsy_gpio_pin clk; /**< & */
  89:../../../libDaisy/src/per/qspi.h ****             dsy_gpio_pin ncs; /**< & */
  90:../../../libDaisy/src/per/qspi.h ****         } pin_config;
  91:../../../libDaisy/src/per/qspi.h **** 
  92:../../../libDaisy/src/per/qspi.h ****         Device device;
  93:../../../libDaisy/src/per/qspi.h ****         Mode   mode;
  94:../../../libDaisy/src/per/qspi.h ****     };
  95:../../../libDaisy/src/per/qspi.h **** 
  96:../../../libDaisy/src/per/qspi.h ****     /** 
  97:../../../libDaisy/src/per/qspi.h ****         Initializes QSPI peripheral, and Resets, and prepares memory for access.
  98:../../../libDaisy/src/per/qspi.h ****         \param config should be populated with the mode, device and pin_config before calling this 
  99:../../../libDaisy/src/per/qspi.h ****         \return Result::OK or Result::ERR
ARM GAS  C:\Users\Miguel\AppData\Local\Temp\ccKdczwd.s 			page 24


 100:../../../libDaisy/src/per/qspi.h ****         */
 101:../../../libDaisy/src/per/qspi.h ****     Result Init(const Config& config);
 102:../../../libDaisy/src/per/qspi.h **** 
 103:../../../libDaisy/src/per/qspi.h ****     /** Returns the current config. */
 104:../../../libDaisy/src/per/qspi.h ****     const Config& GetConfig() const;
 105:../../../libDaisy/src/per/qspi.h **** 
 106:../../../libDaisy/src/per/qspi.h ****     // Couldn't this just be called before anything else in init? That
 107:../../../libDaisy/src/per/qspi.h ****     // would make manually calling it unnecessary.
 108:../../../libDaisy/src/per/qspi.h ****     /** 
 109:../../../libDaisy/src/per/qspi.h ****         Deinitializes the peripheral
 110:../../../libDaisy/src/per/qspi.h ****         This should be called before reinitializing QSPI in a different mode.
 111:../../../libDaisy/src/per/qspi.h ****         \return Result::OK or Result::ERR
 112:../../../libDaisy/src/per/qspi.h ****         */
 113:../../../libDaisy/src/per/qspi.h ****     Result DeInit();
 114:../../../libDaisy/src/per/qspi.h **** 
 115:../../../libDaisy/src/per/qspi.h ****     /** 
 116:../../../libDaisy/src/per/qspi.h ****         Writes a single page to to the specified address on the QSPI chip.
 117:../../../libDaisy/src/per/qspi.h ****         For IS25LP*, page size is 256 bytes.
 118:../../../libDaisy/src/per/qspi.h ****         \param address Address to write to
 119:../../../libDaisy/src/per/qspi.h ****         \param size Buffer size
 120:../../../libDaisy/src/per/qspi.h ****         \param buffer Buffer to write
 121:../../../libDaisy/src/per/qspi.h ****         \return Result::OK or Result::ERR
 122:../../../libDaisy/src/per/qspi.h ****         */
 123:../../../libDaisy/src/per/qspi.h ****     Result WritePage(uint32_t address, uint32_t size, uint8_t* buffer);
 124:../../../libDaisy/src/per/qspi.h **** 
 125:../../../libDaisy/src/per/qspi.h ****     /** 
 126:../../../libDaisy/src/per/qspi.h ****         Writes data in buffer to to the QSPI. Starting at address to address+size 
 127:../../../libDaisy/src/per/qspi.h ****         \param address Address to write to
 128:../../../libDaisy/src/per/qspi.h ****         \param size Buffer size
 129:../../../libDaisy/src/per/qspi.h ****         \param buffer Buffer to write
 130:../../../libDaisy/src/per/qspi.h ****         \return Result::OK or Result::ERR
 131:../../../libDaisy/src/per/qspi.h ****         */
 132:../../../libDaisy/src/per/qspi.h ****     Result Write(uint32_t address, uint32_t size, uint8_t* buffer);
 133:../../../libDaisy/src/per/qspi.h **** 
 134:../../../libDaisy/src/per/qspi.h ****     /** 
 135:../../../libDaisy/src/per/qspi.h ****         Erases the area specified on the chip.
 136:../../../libDaisy/src/per/qspi.h ****         Erasures will happen by 4K, 32K or 64K increments.
 137:../../../libDaisy/src/per/qspi.h ****         Smallest erase possible is 4kB at a time. (on IS25LP*)
 138:../../../libDaisy/src/per/qspi.h ****         \param start_addr Address to begin erasing from
 139:../../../libDaisy/src/per/qspi.h ****         \param end_addr  Address to stop erasing at
 140:../../../libDaisy/src/per/qspi.h ****         \return Result::OK or Result::ERR
 141:../../../libDaisy/src/per/qspi.h ****         */
 142:../../../libDaisy/src/per/qspi.h ****     Result Erase(uint32_t start_addr, uint32_t end_addr);
 143:../../../libDaisy/src/per/qspi.h **** 
 144:../../../libDaisy/src/per/qspi.h ****     /**  
 145:../../../libDaisy/src/per/qspi.h ****          Erases a single sector of the chip.  
 146:../../../libDaisy/src/per/qspi.h ****         TODO: Document the size of this function. 
 147:../../../libDaisy/src/per/qspi.h ****         \param address Address of sector to erase
 148:../../../libDaisy/src/per/qspi.h ****         \return Result::OK or Result::ERR
 149:../../../libDaisy/src/per/qspi.h ****         */
 150:../../../libDaisy/src/per/qspi.h ****     Result EraseSector(uint32_t address);
 151:../../../libDaisy/src/per/qspi.h **** 
 152:../../../libDaisy/src/per/qspi.h ****     /** Returns the current class status. Useful for debugging.
 153:../../../libDaisy/src/per/qspi.h ****      *  \returns Status
 154:../../../libDaisy/src/per/qspi.h ****      */
 155:../../../libDaisy/src/per/qspi.h ****     Status GetStatus();
 156:../../../libDaisy/src/per/qspi.h **** 
ARM GAS  C:\Users\Miguel\AppData\Local\Temp\ccKdczwd.s 			page 25


 157:../../../libDaisy/src/per/qspi.h ****     /** Returns a pointer to the actual memory used 
 158:../../../libDaisy/src/per/qspi.h ****      *  The memory at this address is read-only
 159:../../../libDaisy/src/per/qspi.h ****      *  to write to it use the Write function.
 160:../../../libDaisy/src/per/qspi.h ****      * 
 161:../../../libDaisy/src/per/qspi.h ****      *  \param offset returns the pointer starting this 
 162:../../../libDaisy/src/per/qspi.h ****      *                many bytes into the memory
 163:../../../libDaisy/src/per/qspi.h ****     */
 164:../../../libDaisy/src/per/qspi.h ****     void* GetData(uint32_t offset = 0);
 165:../../../libDaisy/src/per/qspi.h **** 
 166:../../../libDaisy/src/per/qspi.h ****     QSPIHandle() : pimpl_(nullptr) {}
 619              		.loc 9 166 5 view .LVU171
 620              	.LBB181:
 621              	.LBB182:
 622              		.loc 9 166 34 is_stmt 0 view .LVU172
 623 0000 0023     		movs	r3, #0
 624 0002 0E48     		ldr	r0, .L25
 625              	.LBE182:
 626              	.LBE181:
 627              	.LBE180:
 628              	.LBE179:
 629              	.LBE178:
   7:zoscillator.cpp **** ZOscillator zosc;
 630              		.loc 8 7 13 view .LVU173
 631 0004 0E4A     		ldr	r2, .L25+4
 632 0006 0F49     		ldr	r1, .L25+8
 633              	.LBE177:
 634              	.LBE176:
 635              		.loc 8 48 1 view .LVU174
 636 0008 10B5     		push	{r4, lr}
 637              		.cfi_def_cfa_offset 8
 638              		.cfi_offset 4, -8
 639              		.cfi_offset 14, -4
 640              	.LBB205:
 641              	.LBB203:
   9:zoscillator.cpp **** 
 642              		.loc 8 9 13 view .LVU175
 643 000a 0F4C     		ldr	r4, .L25+12
 644              	.LBB199:
 645              	.LBB198:
 646              	.LBB185:
 647              	.LBB184:
 648              	.LBB183:
 649              		.loc 9 166 34 view .LVU176
 650 000c 0360     		str	r3, [r0]
 651              	.LVL37:
 652              		.loc 9 166 34 view .LVU177
 653              	.LBE183:
 654              	.LBE184:
 655              	.LBE185:
 656              	.LBB186:
 657              	.LBI186:
  95:../../../libDaisy/src/hid/audio.h ****     ~AudioHandle() {}
 658              		.loc 5 95 5 is_stmt 1 view .LVU178
 659              	.LBB187:
 660              	.LBB188:
  95:../../../libDaisy/src/hid/audio.h ****     ~AudioHandle() {}
 661              		.loc 5 95 35 is_stmt 0 view .LVU179
ARM GAS  C:\Users\Miguel\AppData\Local\Temp\ccKdczwd.s 			page 26


 662 000e 4361     		str	r3, [r0, #20]
 663              	.LVL38:
  95:../../../libDaisy/src/hid/audio.h ****     ~AudioHandle() {}
 664              		.loc 5 95 35 view .LVU180
 665              	.LBE188:
 666              	.LBE187:
 667              	.LBE186:
 668              	.LBB189:
 669              	.LBI189:
 109:../../../libDaisy/src/per/adc.h ****     ~AdcHandle() {}
 670              		.loc 4 109 5 is_stmt 1 view .LVU181
 109:../../../libDaisy/src/per/adc.h ****     ~AdcHandle() {}
 671              		.loc 4 109 5 is_stmt 0 view .LVU182
 672              	.LBE189:
 673              	.LBB190:
 674              	.LBI190:
 675              		.file 10 "../../../libDaisy/src/per/dac.h"
   1:../../../libDaisy/src/per/dac.h **** #pragma once
   2:../../../libDaisy/src/per/dac.h **** #ifndef DSY_DAC_H
   3:../../../libDaisy/src/per/dac.h **** #define DSY_DAC_H
   4:../../../libDaisy/src/per/dac.h **** 
   5:../../../libDaisy/src/per/dac.h **** #include "daisy_core.h"
   6:../../../libDaisy/src/per/dac.h **** 
   7:../../../libDaisy/src/per/dac.h **** namespace daisy
   8:../../../libDaisy/src/per/dac.h **** {
   9:../../../libDaisy/src/per/dac.h **** /** @brief DAC handle for Built-in DAC Peripheral 
  10:../../../libDaisy/src/per/dac.h ****  *  @ingroup per_analog
  11:../../../libDaisy/src/per/dac.h ****  ** 
  12:../../../libDaisy/src/per/dac.h ****  ** For now only Normal Mode is supported,
  13:../../../libDaisy/src/per/dac.h ****  ** Sample and hold mode provides reduced power consumption, but requires a bit more setup.
  14:../../../libDaisy/src/per/dac.h ****  **
  15:../../../libDaisy/src/per/dac.h ****  ** For now connecting the DAC through other internal peripherals is also not supported.
  16:../../../libDaisy/src/per/dac.h ****  **
  17:../../../libDaisy/src/per/dac.h ****  ** Since the DAC channels have dedicated pins we don't need to pass in a pin config like with
  18:../../../libDaisy/src/per/dac.h ****  ** other modules. However, it is still important to not try to use the DAC pins for anything else.
  19:../../../libDaisy/src/per/dac.h ****  ** DAC Channel 1 is on PA4, and DAC Channel 2 is on PA5
  20:../../../libDaisy/src/per/dac.h ****  ***/
  21:../../../libDaisy/src/per/dac.h **** class DacHandle
  22:../../../libDaisy/src/per/dac.h **** {
  23:../../../libDaisy/src/per/dac.h ****   public:
  24:../../../libDaisy/src/per/dac.h ****     /** Return Values for the DacHandle class */
  25:../../../libDaisy/src/per/dac.h ****     enum class Result
  26:../../../libDaisy/src/per/dac.h ****     {
  27:../../../libDaisy/src/per/dac.h ****         OK,
  28:../../../libDaisy/src/per/dac.h ****         ERR,
  29:../../../libDaisy/src/per/dac.h ****     };
  30:../../../libDaisy/src/per/dac.h **** 
  31:../../../libDaisy/src/per/dac.h ****     /** Selects which channel(s) will be configured for use. */
  32:../../../libDaisy/src/per/dac.h ****     enum class Channel
  33:../../../libDaisy/src/per/dac.h ****     {
  34:../../../libDaisy/src/per/dac.h ****         ONE,
  35:../../../libDaisy/src/per/dac.h ****         TWO,
  36:../../../libDaisy/src/per/dac.h ****         BOTH,
  37:../../../libDaisy/src/per/dac.h ****     };
  38:../../../libDaisy/src/per/dac.h **** 
  39:../../../libDaisy/src/per/dac.h ****     /** Sets the Mode for the DAC channels.
  40:../../../libDaisy/src/per/dac.h ****      **
ARM GAS  C:\Users\Miguel\AppData\Local\Temp\ccKdczwd.s 			page 27


  41:../../../libDaisy/src/per/dac.h ****      ** Polling mode uses the blocking mode to transmit a single value at a time.
  42:../../../libDaisy/src/per/dac.h ****      **
  43:../../../libDaisy/src/per/dac.h ****      ** DMA mode uses a buffer, and periodically transmits it triggering a 
  44:../../../libDaisy/src/per/dac.h ****      ** callback to fill the buffer when it is ready for more samples.
  45:../../../libDaisy/src/per/dac.h ****      ***/
  46:../../../libDaisy/src/per/dac.h ****     enum class Mode
  47:../../../libDaisy/src/per/dac.h ****     {
  48:../../../libDaisy/src/per/dac.h ****         POLLING,
  49:../../../libDaisy/src/per/dac.h ****         DMA,
  50:../../../libDaisy/src/per/dac.h ****     };
  51:../../../libDaisy/src/per/dac.h **** 
  52:../../../libDaisy/src/per/dac.h ****     /** Sets the number of bits per sample transmitted out of the DAC.
  53:../../../libDaisy/src/per/dac.h ****      ** The output range will be: 0V - VDDA
  54:../../../libDaisy/src/per/dac.h ****      ** The resolution will be roughly: bitdepth / (VDDA - 0V) 
  55:../../../libDaisy/src/per/dac.h ****      ***/
  56:../../../libDaisy/src/per/dac.h ****     enum class BitDepth
  57:../../../libDaisy/src/per/dac.h ****     {
  58:../../../libDaisy/src/per/dac.h ****         BITS_8,
  59:../../../libDaisy/src/per/dac.h ****         BITS_12
  60:../../../libDaisy/src/per/dac.h ****     };
  61:../../../libDaisy/src/per/dac.h **** 
  62:../../../libDaisy/src/per/dac.h ****     /** Sets whether the DAC output is buffered for higher drive ability. */
  63:../../../libDaisy/src/per/dac.h ****     enum class BufferState
  64:../../../libDaisy/src/per/dac.h ****     {
  65:../../../libDaisy/src/per/dac.h ****         ENABLED,
  66:../../../libDaisy/src/per/dac.h ****         DISABLED,
  67:../../../libDaisy/src/per/dac.h ****     };
  68:../../../libDaisy/src/per/dac.h **** 
  69:../../../libDaisy/src/per/dac.h ****     /** Configuration structure for initializing the DAC structure. */
  70:../../../libDaisy/src/per/dac.h ****     struct Config
  71:../../../libDaisy/src/per/dac.h ****     {
  72:../../../libDaisy/src/per/dac.h ****         /** Target Samplerate in Hz used to configure the internal 
  73:../../../libDaisy/src/per/dac.h ****          ** timebase for DMA mode. Does nothing in POLLING mode.
  74:../../../libDaisy/src/per/dac.h ****          ** If the value is 0 at Init time this will default to 48000Hz 
  75:../../../libDaisy/src/per/dac.h ****          ** otherwise the driver will attempt meet the target.*/
  76:../../../libDaisy/src/per/dac.h ****         uint32_t target_samplerate;
  77:../../../libDaisy/src/per/dac.h **** 
  78:../../../libDaisy/src/per/dac.h ****         Channel     chn;
  79:../../../libDaisy/src/per/dac.h ****         Mode        mode;
  80:../../../libDaisy/src/per/dac.h ****         BitDepth    bitdepth;
  81:../../../libDaisy/src/per/dac.h ****         BufferState buff_state;
  82:../../../libDaisy/src/per/dac.h ****     };
  83:../../../libDaisy/src/per/dac.h **** 
  84:../../../libDaisy/src/per/dac.h ****     DacHandle() : pimpl_(nullptr) {}
 676              		.loc 10 84 5 is_stmt 1 view .LVU183
 677              	.LBB191:
 678              	.LBB192:
 679              		.loc 10 84 33 is_stmt 0 view .LVU184
 680 0010 0362     		str	r3, [r0, #32]
 681              	.LVL39:
 682              		.loc 10 84 33 view .LVU185
 683              	.LBE192:
 684              	.LBE191:
 685              	.LBE190:
 686              	.LBB193:
 687              	.LBI193:
  40:../../../libDaisy/src/hid/usb.h **** 
ARM GAS  C:\Users\Miguel\AppData\Local\Temp\ccKdczwd.s 			page 28


 688              		.loc 3 40 5 is_stmt 1 view .LVU186
  40:../../../libDaisy/src/hid/usb.h **** 
 689              		.loc 3 40 5 is_stmt 0 view .LVU187
 690              	.LBE193:
 691              	.LBB194:
 692              	.LBI194:
  96:../../../libDaisy/src/sys/system.h ****     ~System() {}
 693              		.loc 2 96 5 is_stmt 1 view .LVU188
  96:../../../libDaisy/src/sys/system.h ****     ~System() {}
 694              		.loc 2 96 5 is_stmt 0 view .LVU189
 695              	.LBE194:
 696              	.LBB195:
 697              	.LBI195:
 698              		.file 11 "../../../libDaisy/src/per/sai.h"
   1:../../../libDaisy/src/per/sai.h **** #pragma once
   2:../../../libDaisy/src/per/sai.h **** #ifndef DSY_SAI_H
   3:../../../libDaisy/src/per/sai.h **** #define DSY_SAI_H
   4:../../../libDaisy/src/per/sai.h **** 
   5:../../../libDaisy/src/per/sai.h **** #include "daisy_core.h"
   6:../../../libDaisy/src/per/sai.h **** 
   7:../../../libDaisy/src/per/sai.h **** namespace daisy
   8:../../../libDaisy/src/per/sai.h **** {
   9:../../../libDaisy/src/per/sai.h **** /** 
  10:../../../libDaisy/src/per/sai.h ****  * Support for I2S Audio Protocol with different bit-depth, samplerate options
  11:../../../libDaisy/src/per/sai.h ****  * Allows for master or slave, as well as freedom of selecting direction, 
  12:../../../libDaisy/src/per/sai.h ****  * and other behavior for each peripheral, and block.
  13:../../../libDaisy/src/per/sai.h ****  * 
  14:../../../libDaisy/src/per/sai.h ****  * DMA Transfer commands must use buffers located within non-cached memory or use cache maintenance
  15:../../../libDaisy/src/per/sai.h ****  * To declare an unitialized global element in the DMA memory section:
  16:../../../libDaisy/src/per/sai.h ****  *    int32_t DSY_DMA_BUFFER_SECTOR my_buffer[96];
  17:../../../libDaisy/src/per/sai.h ****  *
  18:../../../libDaisy/src/per/sai.h ****  * Callback functions will be called once per half of the buffer. In the above example, 
  19:../../../libDaisy/src/per/sai.h ****  * the callback function would be called once for every 48 samples.
  20:../../../libDaisy/src/per/sai.h ****  * 
  21:../../../libDaisy/src/per/sai.h ****  * Use SAI Handle like this:
  22:../../../libDaisy/src/per/sai.h ****  * 
  23:../../../libDaisy/src/per/sai.h ****  *  SaiHandle::Config sai_config;
  24:../../../libDaisy/src/per/sai.h ****  *  sai_config.periph          = SaiHandle::Config::Peripheral::SAI_1;
  25:../../../libDaisy/src/per/sai.h ****  *  sai_config.sr              = SaiHandle::Config::SampleRate::SAI_48KHZ;
  26:../../../libDaisy/src/per/sai.h ****  *  sai_config.bit_depth       = SaiHandle::Config::BitDepth::SAI_24BIT;
  27:../../../libDaisy/src/per/sai.h ****  *  sai_config.a_sync          = SaiHandle::Config::Sync::MASTER;
  28:../../../libDaisy/src/per/sai.h ****  *  sai_config.b_sync          = SaiHandle::Config::Sync::SLAVE;
  29:../../../libDaisy/src/per/sai.h ****  *  sai_config.a_dir           = SaiHandle::Config::Direction::RECEIVE;
  30:../../../libDaisy/src/per/sai.h ****  *  sai_config.b_dir           = SaiHandle::Config::Direction::TRANSMIT;
  31:../../../libDaisy/src/per/sai.h ****  *  sai_config.pin_config.fs   = {DSY_GPIOE, 4};
  32:../../../libDaisy/src/per/sai.h ****  *  sai_config.pin_config.mclk = {DSY_GPIOE, 2};
  33:../../../libDaisy/src/per/sai.h ****  *  sai_config.pin_config.sck  = {DSY_GPIOE, 5};
  34:../../../libDaisy/src/per/sai.h ****  *  sai_config.pin_config.sa   = {DSY_GPIOE, 6};
  35:../../../libDaisy/src/per/sai.h ****  *  sai_config.pin_config.sb   = {DSY_GPIOE, 3};
  36:../../../libDaisy/src/per/sai.h ****  *  // Then Initialize
  37:../../../libDaisy/src/per/sai.h ****  *  SaiHandle sai;
  38:../../../libDaisy/src/per/sai.h ****  *  sai.Init(sai_config);
  39:../../../libDaisy/src/per/sai.h ****  *  // Now you can use it:
  40:../../../libDaisy/src/per/sai.h ****  *  sai.StartDma(. . .);
  41:../../../libDaisy/src/per/sai.h ****  */
  42:../../../libDaisy/src/per/sai.h **** class SaiHandle
  43:../../../libDaisy/src/per/sai.h **** {
ARM GAS  C:\Users\Miguel\AppData\Local\Temp\ccKdczwd.s 			page 29


  44:../../../libDaisy/src/per/sai.h ****   public:
  45:../../../libDaisy/src/per/sai.h ****     /** Contains settings for initialising an SAI Interface */
  46:../../../libDaisy/src/per/sai.h ****     struct Config
  47:../../../libDaisy/src/per/sai.h ****     {
  48:../../../libDaisy/src/per/sai.h ****         /** Specifies the internal peripheral to use (mapped to different hardware pins) */
  49:../../../libDaisy/src/per/sai.h ****         enum class Peripheral
  50:../../../libDaisy/src/per/sai.h ****         {
  51:../../../libDaisy/src/per/sai.h ****             SAI_1,
  52:../../../libDaisy/src/per/sai.h ****             SAI_2,
  53:../../../libDaisy/src/per/sai.h ****         };
  54:../../../libDaisy/src/per/sai.h **** 
  55:../../../libDaisy/src/per/sai.h ****         /** Rate at which samples will be streaming to/from the device. */
  56:../../../libDaisy/src/per/sai.h ****         enum class SampleRate
  57:../../../libDaisy/src/per/sai.h ****         {
  58:../../../libDaisy/src/per/sai.h ****             SAI_8KHZ,
  59:../../../libDaisy/src/per/sai.h ****             SAI_16KHZ,
  60:../../../libDaisy/src/per/sai.h ****             SAI_32KHZ,
  61:../../../libDaisy/src/per/sai.h ****             SAI_48KHZ,
  62:../../../libDaisy/src/per/sai.h ****             SAI_96KHZ,
  63:../../../libDaisy/src/per/sai.h ****         };
  64:../../../libDaisy/src/per/sai.h **** 
  65:../../../libDaisy/src/per/sai.h ****         /** Bit Depth that the hardware expects to be transferred to/from the device. */
  66:../../../libDaisy/src/per/sai.h ****         enum class BitDepth
  67:../../../libDaisy/src/per/sai.h ****         {
  68:../../../libDaisy/src/per/sai.h ****             SAI_16BIT,
  69:../../../libDaisy/src/per/sai.h ****             SAI_24BIT,
  70:../../../libDaisy/src/per/sai.h ****             SAI_32BIT,
  71:../../../libDaisy/src/per/sai.h ****         };
  72:../../../libDaisy/src/per/sai.h **** 
  73:../../../libDaisy/src/per/sai.h ****         /** Specifies whether a particular block is the master or the slave 
  74:../../../libDaisy/src/per/sai.h ****          ** If both are set to slave, no MCLK signal will be used, and it is
  75:../../../libDaisy/src/per/sai.h ****          ** expected that the codec will have its own xtal.
  76:../../../libDaisy/src/per/sai.h ****          */
  77:../../../libDaisy/src/per/sai.h ****         enum class Sync
  78:../../../libDaisy/src/per/sai.h ****         {
  79:../../../libDaisy/src/per/sai.h ****             MASTER,
  80:../../../libDaisy/src/per/sai.h ****             SLAVE,
  81:../../../libDaisy/src/per/sai.h ****         };
  82:../../../libDaisy/src/per/sai.h **** 
  83:../../../libDaisy/src/per/sai.h ****         /** Specifies the direction for each peripheral block. */
  84:../../../libDaisy/src/per/sai.h ****         enum class Direction
  85:../../../libDaisy/src/per/sai.h ****         {
  86:../../../libDaisy/src/per/sai.h ****             TRANSMIT,
  87:../../../libDaisy/src/per/sai.h ****             RECEIVE,
  88:../../../libDaisy/src/per/sai.h ****         };
  89:../../../libDaisy/src/per/sai.h **** 
  90:../../../libDaisy/src/per/sai.h ****         Peripheral periph;
  91:../../../libDaisy/src/per/sai.h ****         struct
  92:../../../libDaisy/src/per/sai.h ****         {
  93:../../../libDaisy/src/per/sai.h ****             dsy_gpio_pin mclk, fs, sck, sa, sb;
  94:../../../libDaisy/src/per/sai.h ****         } pin_config;
  95:../../../libDaisy/src/per/sai.h ****         SampleRate sr;
  96:../../../libDaisy/src/per/sai.h ****         BitDepth   bit_depth;
  97:../../../libDaisy/src/per/sai.h ****         Sync       a_sync, b_sync;
  98:../../../libDaisy/src/per/sai.h ****         Direction  a_dir, b_dir;
  99:../../../libDaisy/src/per/sai.h ****     };
 100:../../../libDaisy/src/per/sai.h **** 
ARM GAS  C:\Users\Miguel\AppData\Local\Temp\ccKdczwd.s 			page 30


 101:../../../libDaisy/src/per/sai.h ****     /** Return values for SAI functions */
 102:../../../libDaisy/src/per/sai.h ****     enum class Result
 103:../../../libDaisy/src/per/sai.h ****     {
 104:../../../libDaisy/src/per/sai.h ****         OK,
 105:../../../libDaisy/src/per/sai.h ****         ERR,
 106:../../../libDaisy/src/per/sai.h ****     };
 107:../../../libDaisy/src/per/sai.h **** 
 108:../../../libDaisy/src/per/sai.h ****     SaiHandle() : pimpl_(nullptr) {}
 699              		.loc 11 108 5 is_stmt 1 view .LVU190
 700              	.LBB196:
 701              	.LBB197:
 702              		.loc 11 108 33 is_stmt 0 view .LVU191
 703 0012 C363     		str	r3, [r0, #60]
 704              	.LVL40:
 705              		.loc 11 108 33 view .LVU192
 706              	.LBE197:
 707              	.LBE196:
 708              	.LBE195:
 709              	.LBE198:
 710              	.LBE199:
   7:zoscillator.cpp **** ZOscillator zosc;
 711              		.loc 8 7 13 view .LVU193
 712 0014 FFF7FEFF 		bl	__aeabi_atexit
 713              	.LVL41:
 714              	.LBB200:
 715              	.LBI200:
  31:../../../DaisySP/Source/Synthesis/zoscillator.h ****     ~ZOscillator() {}
 716              		.loc 7 31 5 is_stmt 1 view .LVU194
  31:../../../DaisySP/Source/Synthesis/zoscillator.h ****     ~ZOscillator() {}
 717              		.loc 7 31 5 is_stmt 0 view .LVU195
 718              	.LBE200:
   8:zoscillator.cpp **** Oscillator  lfo1, lfo2;
 719              		.loc 8 8 13 view .LVU196
 720 0018 094A     		ldr	r2, .L25+4
 721 001a 0C49     		ldr	r1, .L25+16
 722 001c 0C48     		ldr	r0, .L25+20
 723 001e FFF7FEFF 		bl	__aeabi_atexit
 724              	.LVL42:
 725              	.LBB201:
 726              	.LBI201:
  23:../../../DaisySP/Source/Synthesis/oscillator.h ****     ~Oscillator() {}
 727              		.loc 6 23 5 is_stmt 1 view .LVU197
  23:../../../DaisySP/Source/Synthesis/oscillator.h ****     ~Oscillator() {}
 728              		.loc 6 23 5 is_stmt 0 view .LVU198
 729              	.LBE201:
   9:zoscillator.cpp **** 
 730              		.loc 8 9 13 view .LVU199
 731 0022 2146     		mov	r1, r4
 732 0024 064A     		ldr	r2, .L25+4
 733 0026 0B48     		ldr	r0, .L25+24
 734 0028 FFF7FEFF 		bl	__aeabi_atexit
 735              	.LVL43:
 736              	.LBB202:
 737              	.LBI202:
  23:../../../DaisySP/Source/Synthesis/oscillator.h ****     ~Oscillator() {}
 738              		.loc 6 23 5 is_stmt 1 view .LVU200
  23:../../../DaisySP/Source/Synthesis/oscillator.h ****     ~Oscillator() {}
ARM GAS  C:\Users\Miguel\AppData\Local\Temp\ccKdczwd.s 			page 31


 739              		.loc 6 23 5 is_stmt 0 view .LVU201
 740              	.LBE202:
   9:zoscillator.cpp **** 
 741              		.loc 8 9 19 view .LVU202
 742 002c 2146     		mov	r1, r4
 743 002e 044A     		ldr	r2, .L25+4
 744 0030 0948     		ldr	r0, .L25+28
 745              	.LBE203:
 746              	.LBE205:
 747              		.loc 8 48 1 view .LVU203
 748 0032 BDE81040 		pop	{r4, lr}
 749              		.cfi_restore 14
 750              		.cfi_restore 4
 751              		.cfi_def_cfa_offset 0
 752              	.LBB206:
 753              	.LBB204:
   9:zoscillator.cpp **** 
 754              		.loc 8 9 19 view .LVU204
 755 0036 FFF7FEBF 		b	__aeabi_atexit
 756              	.LVL44:
 757              	.L26:
 758 003a 00BF     		.align	2
 759              	.L25:
 760 003c 00000000 		.word	.LANCHOR3
 761 0040 00000000 		.word	__dso_handle
 762 0044 00000000 		.word	_ZN5daisy9DaisySeedD1Ev
 763 0048 00000000 		.word	_ZN7daisysp10OscillatorD1Ev
 764 004c 00000000 		.word	_ZN7daisysp11ZOscillatorD1Ev
 765 0050 00000000 		.word	.LANCHOR2
 766 0054 00000000 		.word	.LANCHOR0
 767 0058 00000000 		.word	.LANCHOR1
 768              	.LBE204:
 769              	.LBE206:
 770              		.cfi_endproc
 771              	.LFE5245:
 773              		.section	.init_array,"aw",%init_array
 774              		.align	2
 775 0000 00000000 		.word	_GLOBAL__sub_I_hw(target1)
 776              		.global	lfo2
 777              		.global	lfo1
 778              		.global	zosc
 779              		.global	hw
 780              		.section	.bss.hw,"aw",%nobits
 781              		.align	2
 782              		.set	.LANCHOR3,. + 0
 785              	hw:
 786 0000 00000000 		.space	64
 786      00000000 
 786      00000000 
 786      00000000 
 786      00000000 
 787              		.section	.bss.lfo1,"aw",%nobits
 788              		.align	2
 789              		.set	.LANCHOR0,. + 0
 792              	lfo1:
 793 0000 00000000 		.space	44
 793      00000000 
ARM GAS  C:\Users\Miguel\AppData\Local\Temp\ccKdczwd.s 			page 32


 793      00000000 
 793      00000000 
 793      00000000 
 794              		.section	.bss.lfo2,"aw",%nobits
 795              		.align	2
 796              		.set	.LANCHOR1,. + 0
 799              	lfo2:
 800 0000 00000000 		.space	44
 800      00000000 
 800      00000000 
 800      00000000 
 800      00000000 
 801              		.section	.bss.zosc,"aw",%nobits
 802              		.align	2
 803              		.set	.LANCHOR2,. + 0
 806              	zosc:
 807 0000 00000000 		.space	44
 807      00000000 
 807      00000000 
 807      00000000 
 807      00000000 
 808              		.text
 809              	.Letext0:
 810              		.file 12 "c:\\program files\\daisytoolchain\\arm-none-eabi\\include\\machine\\_default_types.h"
 811              		.file 13 "c:\\program files\\daisytoolchain\\arm-none-eabi\\include\\sys\\_stdint.h"
 812              		.file 14 "c:\\program files\\daisytoolchain\\arm-none-eabi\\include\\stdint.h"
 813              		.file 15 "c:\\program files\\daisytoolchain\\lib\\gcc\\arm-none-eabi\\10.2.1\\include\\stddef.h"
 814              		.file 16 "c:\\program files\\daisytoolchain\\arm-none-eabi\\include\\c++\\10.2.1\\cmath"
 815              		.file 17 "c:\\program files\\daisytoolchain\\arm-none-eabi\\include\\c++\\10.2.1\\bits\\std_abs.h"
 816              		.file 18 "c:\\program files\\daisytoolchain\\arm-none-eabi\\include\\c++\\10.2.1\\cstdlib"
 817              		.file 19 "c:\\program files\\daisytoolchain\\arm-none-eabi\\include\\c++\\10.2.1\\cstdint"
 818              		.file 20 "c:\\program files\\daisytoolchain\\arm-none-eabi\\include\\c++\\10.2.1\\type_traits"
 819              		.file 21 "c:\\program files\\daisytoolchain\\arm-none-eabi\\include\\c++\\10.2.1\\debug\\debug.h"
 820              		.file 22 "c:\\program files\\daisytoolchain\\arm-none-eabi\\include\\c++\\10.2.1\\arm-none-eabi\\t
 821              		.file 23 "c:\\program files\\daisytoolchain\\arm-none-eabi\\include\\c++\\10.2.1\\bits\\algorithmf
 822              		.file 24 "c:\\program files\\daisytoolchain\\arm-none-eabi\\include\\c++\\10.2.1\\bits\\stl_pair.h
 823              		.file 25 "c:\\program files\\daisytoolchain\\arm-none-eabi\\include\\c++\\10.2.1\\bits\\exception_
 824              		.file 26 "c:\\program files\\daisytoolchain\\arm-none-eabi\\include\\c++\\10.2.1\\cstdarg"
 825              		.file 27 "c:\\program files\\daisytoolchain\\arm-none-eabi\\include\\c++\\10.2.1\\cstdio"
 826              		.file 28 "c:\\program files\\daisytoolchain\\arm-none-eabi\\include\\c++\\10.2.1\\cstring"
 827              		.file 29 "c:\\program files\\daisytoolchain\\arm-none-eabi\\include\\c++\\10.2.1\\cwchar"
 828              		.file 30 "c:\\program files\\daisytoolchain\\arm-none-eabi\\include\\c++\\10.2.1\\clocale"
 829              		.file 31 "c:\\program files\\daisytoolchain\\arm-none-eabi\\include\\c++\\10.2.1\\bits\\basic_stri
 830              		.file 32 "c:\\program files\\daisytoolchain\\arm-none-eabi\\include\\c++\\10.2.1\\bits\\stl_tempbu
 831              		.file 33 "c:\\program files\\daisytoolchain\\arm-none-eabi\\include\\c++\\10.2.1\\bits\\predefined
 832              		.file 34 "c:\\program files\\daisytoolchain\\arm-none-eabi\\include\\sys\\_types.h"
 833              		.file 35 "c:\\program files\\daisytoolchain\\arm-none-eabi\\include\\sys\\reent.h"
 834              		.file 36 "c:\\program files\\daisytoolchain\\arm-none-eabi\\include\\sys\\lock.h"
 835              		.file 37 "c:\\program files\\daisytoolchain\\arm-none-eabi\\include\\math.h"
 836              		.file 38 "c:\\program files\\daisytoolchain\\arm-none-eabi\\include\\stdlib.h"
 837              		.file 39 "c:\\program files\\daisytoolchain\\arm-none-eabi\\include\\c++\\10.2.1\\math.h"
 838              		.file 40 "c:\\program files\\daisytoolchain\\arm-none-eabi\\include\\c++\\10.2.1\\stdlib.h"
 839              		.file 41 "../../../libDaisy/src/daisy_core.h"
 840              		.file 42 "../../../libDaisy/src/per/tim.h"
 841              		.file 43 "../../../libDaisy/src/util/wav_format.h"
 842              		.file 44 "../../../libDaisy/src/dev/max11300.h"
 843              		.file 45 "../../../libDaisy/src/per/gpio.h"
ARM GAS  C:\Users\Miguel\AppData\Local\Temp\ccKdczwd.s 			page 33


 844              		.file 46 "../../../libDaisy/src/dev/sdram.h"
 845              		.file 47 "c:\\program files\\daisytoolchain\\lib\\gcc\\arm-none-eabi\\10.2.1\\include\\stdarg.h"
 846              		.file 48 "c:\\program files\\daisytoolchain\\arm-none-eabi\\include\\stdio.h"
 847              		.file 49 "c:\\program files\\daisytoolchain\\arm-none-eabi\\include\\string.h"
 848              		.file 50 "../../../DaisySP/Source/Control/adenv.h"
 849              		.file 51 "../../../DaisySP/Source/Utility/dsp.h"
 850              		.file 52 "c:\\program files\\daisytoolchain\\arm-none-eabi\\include\\wchar.h"
 851              		.file 53 "c:\\program files\\daisytoolchain\\arm-none-eabi\\include\\locale.h"
 852              		.file 54 "<built-in>"
 853              		.file 55 "../../../libDaisy/src/dev/sr_595.h"
ARM GAS  C:\Users\Miguel\AppData\Local\Temp\ccKdczwd.s 			page 34

