ARM GAS  C:\Users\jaude\AppData\Local\Temp\cc5q4WcC.s 			page 1


   1              		.cpu cortex-m7
   2              		.eabi_attribute 28, 1
   3              		.eabi_attribute 20, 1
   4              		.eabi_attribute 21, 1
   5              		.eabi_attribute 23, 3
   6              		.eabi_attribute 24, 1
   7              		.eabi_attribute 25, 1
   8              		.eabi_attribute 26, 1
   9              		.eabi_attribute 30, 2
  10              		.eabi_attribute 34, 1
  11              		.eabi_attribute 18, 4
  12              		.file	"reverbsc.cpp"
  13              		.text
  14              	.Ltext0:
  15              		.cfi_sections	.debug_frame
  16              		.section	.text._ZN7daisysp5AdEnvD2Ev,"axG",%progbits,_ZN7daisysp5AdEnvD5Ev,comdat
  17              		.align	1
  18              		.p2align 2,,3
  19              		.weak	_ZN7daisysp5AdEnvD2Ev
  20              		.arch armv7e-m
  21              		.syntax unified
  22              		.thumb
  23              		.thumb_func
  24              		.fpu fpv5-d16
  26              	_ZN7daisysp5AdEnvD2Ev:
  27              	.LVL0:
  28              	.LFB548:
  29              		.file 1 "../../../DaisySP/Source/Control/adenv.h"
   1:../../../DaisySP/Source/Control/adenv.h **** /*
   2:../../../DaisySP/Source/Control/adenv.h **** Copyright (c) 2020 Electrosmith, Corp
   3:../../../DaisySP/Source/Control/adenv.h **** 
   4:../../../DaisySP/Source/Control/adenv.h **** Use of this source code is governed by an MIT-style
   5:../../../DaisySP/Source/Control/adenv.h **** license that can be found in the LICENSE file or at
   6:../../../DaisySP/Source/Control/adenv.h **** https://opensource.org/licenses/MIT.
   7:../../../DaisySP/Source/Control/adenv.h **** */
   8:../../../DaisySP/Source/Control/adenv.h **** 
   9:../../../DaisySP/Source/Control/adenv.h **** #pragma once
  10:../../../DaisySP/Source/Control/adenv.h **** #ifndef ADENV_H
  11:../../../DaisySP/Source/Control/adenv.h **** #define ADENV_H
  12:../../../DaisySP/Source/Control/adenv.h **** #include <stdint.h>
  13:../../../DaisySP/Source/Control/adenv.h **** #ifdef __cplusplus
  14:../../../DaisySP/Source/Control/adenv.h **** 
  15:../../../DaisySP/Source/Control/adenv.h **** namespace daisysp
  16:../../../DaisySP/Source/Control/adenv.h **** {
  17:../../../DaisySP/Source/Control/adenv.h **** /** Distinct stages that the phase of the envelope can be located in.
  18:../../../DaisySP/Source/Control/adenv.h ****     @see AdEnv
  19:../../../DaisySP/Source/Control/adenv.h **** */
  20:../../../DaisySP/Source/Control/adenv.h **** enum AdEnvSegment
  21:../../../DaisySP/Source/Control/adenv.h **** {
  22:../../../DaisySP/Source/Control/adenv.h ****     /** located at phase location 0, and not currently running */
  23:../../../DaisySP/Source/Control/adenv.h ****     ADENV_SEG_IDLE,
  24:../../../DaisySP/Source/Control/adenv.h ****     /** First segment of envelope where phase moves from MIN value to MAX value */
  25:../../../DaisySP/Source/Control/adenv.h ****     ADENV_SEG_ATTACK,
  26:../../../DaisySP/Source/Control/adenv.h ****     /** Second segment of envelope where phase moves from MAX to MIN value */
  27:../../../DaisySP/Source/Control/adenv.h ****     ADENV_SEG_DECAY,
  28:../../../DaisySP/Source/Control/adenv.h ****     /** The final segment of the envelope (currently decay) */
  29:../../../DaisySP/Source/Control/adenv.h ****     ADENV_SEG_LAST,
ARM GAS  C:\Users\jaude\AppData\Local\Temp\cc5q4WcC.s 			page 2


  30:../../../DaisySP/Source/Control/adenv.h **** };
  31:../../../DaisySP/Source/Control/adenv.h **** 
  32:../../../DaisySP/Source/Control/adenv.h **** /** Trigger-able envelope with adjustable min/max, and independent per-segment time control.
  33:../../../DaisySP/Source/Control/adenv.h **** 
  34:../../../DaisySP/Source/Control/adenv.h ****     \author shensley
  35:../../../DaisySP/Source/Control/adenv.h ****     \todo - Add Cycling
  36:../../../DaisySP/Source/Control/adenv.h ****     \todo - Implement Curve (its only linear for now).
  37:../../../DaisySP/Source/Control/adenv.h ****     \todo - Maybe make this an ADsr_ that has AD/AR/Asr_ modes.
  38:../../../DaisySP/Source/Control/adenv.h ****  */
  39:../../../DaisySP/Source/Control/adenv.h **** class AdEnv
  40:../../../DaisySP/Source/Control/adenv.h **** {
  41:../../../DaisySP/Source/Control/adenv.h ****   public:
  42:../../../DaisySP/Source/Control/adenv.h ****     AdEnv() {}
  43:../../../DaisySP/Source/Control/adenv.h ****     ~AdEnv() {}
  30              		.loc 1 43 5 view -0
  31              		.cfi_startproc
  32              		@ args = 0, pretend = 0, frame = 0
  33              		@ frame_needed = 0, uses_anonymous_args = 0
  34              		@ link register save eliminated.
  35              		.loc 1 43 15 is_stmt 0 view .LVU1
  36 0000 7047     		bx	lr
  37              		.cfi_endproc
  38              	.LFE548:
  40              		.weak	_ZN7daisysp5AdEnvD1Ev
  41              		.thumb_set _ZN7daisysp5AdEnvD1Ev,_ZN7daisysp5AdEnvD2Ev
  42 0002 00BF     		.section	.text._ZN7daisysp10OscillatorD2Ev,"axG",%progbits,_ZN7daisysp10OscillatorD5Ev,comdat
  43              		.align	1
  44              		.p2align 2,,3
  45              		.weak	_ZN7daisysp10OscillatorD2Ev
  46              		.syntax unified
  47              		.thumb
  48              		.thumb_func
  49              		.fpu fpv5-d16
  51              	_ZN7daisysp10OscillatorD2Ev:
  52              	.LVL1:
  53              	.LFB2825:
  54              		.file 2 "../../../DaisySP/Source/Synthesis/oscillator.h"
   1:../../../DaisySP/Source/Synthesis/oscillator.h **** /*
   2:../../../DaisySP/Source/Synthesis/oscillator.h **** Copyright (c) 2020 Electrosmith, Corp
   3:../../../DaisySP/Source/Synthesis/oscillator.h **** 
   4:../../../DaisySP/Source/Synthesis/oscillator.h **** Use of this source code is governed by an MIT-style
   5:../../../DaisySP/Source/Synthesis/oscillator.h **** license that can be found in the LICENSE file or at
   6:../../../DaisySP/Source/Synthesis/oscillator.h **** https://opensource.org/licenses/MIT.
   7:../../../DaisySP/Source/Synthesis/oscillator.h **** */
   8:../../../DaisySP/Source/Synthesis/oscillator.h **** 
   9:../../../DaisySP/Source/Synthesis/oscillator.h **** #pragma once
  10:../../../DaisySP/Source/Synthesis/oscillator.h **** #ifndef DSY_OSCILLATOR_H
  11:../../../DaisySP/Source/Synthesis/oscillator.h **** #define DSY_OSCILLATOR_H
  12:../../../DaisySP/Source/Synthesis/oscillator.h **** #include <stdint.h>
  13:../../../DaisySP/Source/Synthesis/oscillator.h **** #include "Utility/dsp.h"
  14:../../../DaisySP/Source/Synthesis/oscillator.h **** #ifdef __cplusplus
  15:../../../DaisySP/Source/Synthesis/oscillator.h **** 
  16:../../../DaisySP/Source/Synthesis/oscillator.h **** namespace daisysp
  17:../../../DaisySP/Source/Synthesis/oscillator.h **** {
  18:../../../DaisySP/Source/Synthesis/oscillator.h **** /** Synthesis of several waveforms, including polyBLEP bandlimited waveforms.
  19:../../../DaisySP/Source/Synthesis/oscillator.h **** */
  20:../../../DaisySP/Source/Synthesis/oscillator.h **** class Oscillator
ARM GAS  C:\Users\jaude\AppData\Local\Temp\cc5q4WcC.s 			page 3


  21:../../../DaisySP/Source/Synthesis/oscillator.h **** {
  22:../../../DaisySP/Source/Synthesis/oscillator.h ****   public:
  23:../../../DaisySP/Source/Synthesis/oscillator.h ****     Oscillator() {}
  24:../../../DaisySP/Source/Synthesis/oscillator.h ****     ~Oscillator() {}
  55              		.loc 2 24 5 is_stmt 1 view -0
  56              		.cfi_startproc
  57              		@ args = 0, pretend = 0, frame = 0
  58              		@ frame_needed = 0, uses_anonymous_args = 0
  59              		@ link register save eliminated.
  60              		.loc 2 24 20 is_stmt 0 view .LVU3
  61 0000 7047     		bx	lr
  62              		.cfi_endproc
  63              	.LFE2825:
  65              		.weak	_ZN7daisysp10OscillatorD1Ev
  66              		.thumb_set _ZN7daisysp10OscillatorD1Ev,_ZN7daisysp10OscillatorD2Ev
  67              		.section	.text._ZN7daisysp5MetroD2Ev,"axG",%progbits,_ZN7daisysp5MetroD5Ev,comdat
  68              		.align	1
  69              		.p2align 2,,3
  70              		.weak	_ZN7daisysp5MetroD2Ev
  71              		.syntax unified
  72              		.thumb
  73              		.thumb_func
  74              		.fpu fpv5-d16
  76              	_ZN7daisysp5MetroD2Ev:
  77              	.LVL2:
  78              	.LFB3488:
  79              		.file 3 "../../../DaisySP/Source/Utility/metro.h"
   1:../../../DaisySP/Source/Utility/metro.h **** /*
   2:../../../DaisySP/Source/Utility/metro.h **** Copyright (c) 2020 Electrosmith, Corp
   3:../../../DaisySP/Source/Utility/metro.h **** 
   4:../../../DaisySP/Source/Utility/metro.h **** Use of this source code is governed by an MIT-style
   5:../../../DaisySP/Source/Utility/metro.h **** license that can be found in the LICENSE file or at
   6:../../../DaisySP/Source/Utility/metro.h **** https://opensource.org/licenses/MIT.
   7:../../../DaisySP/Source/Utility/metro.h **** */
   8:../../../DaisySP/Source/Utility/metro.h **** 
   9:../../../DaisySP/Source/Utility/metro.h **** #pragma once
  10:../../../DaisySP/Source/Utility/metro.h **** #ifndef DSY_METRO_H
  11:../../../DaisySP/Source/Utility/metro.h **** #define DSY_METRO_H
  12:../../../DaisySP/Source/Utility/metro.h **** #include <stdint.h>
  13:../../../DaisySP/Source/Utility/metro.h **** #ifdef __cplusplus
  14:../../../DaisySP/Source/Utility/metro.h **** 
  15:../../../DaisySP/Source/Utility/metro.h **** namespace daisysp
  16:../../../DaisySP/Source/Utility/metro.h **** {
  17:../../../DaisySP/Source/Utility/metro.h **** /** Creates a clock signal at a specific frequency.
  18:../../../DaisySP/Source/Utility/metro.h **** */
  19:../../../DaisySP/Source/Utility/metro.h **** class Metro
  20:../../../DaisySP/Source/Utility/metro.h **** {
  21:../../../DaisySP/Source/Utility/metro.h ****   public:
  22:../../../DaisySP/Source/Utility/metro.h ****     Metro() {}
  23:../../../DaisySP/Source/Utility/metro.h ****     ~Metro() {}
  80              		.loc 3 23 5 is_stmt 1 view -0
  81              		.cfi_startproc
  82              		@ args = 0, pretend = 0, frame = 0
  83              		@ frame_needed = 0, uses_anonymous_args = 0
  84              		@ link register save eliminated.
  85              		.loc 3 23 15 is_stmt 0 view .LVU5
  86 0000 7047     		bx	lr
ARM GAS  C:\Users\jaude\AppData\Local\Temp\cc5q4WcC.s 			page 4


  87              		.cfi_endproc
  88              	.LFE3488:
  90              		.weak	_ZN7daisysp5MetroD1Ev
  91              		.thumb_set _ZN7daisysp5MetroD1Ev,_ZN7daisysp5MetroD2Ev
  92              		.section	.text._ZN7daisysp8ReverbScD2Ev,"axG",%progbits,_ZN7daisysp8ReverbScD5Ev,comdat
  93              		.align	1
  94              		.p2align 2,,3
  95              		.weak	_ZN7daisysp8ReverbScD2Ev
  96              		.syntax unified
  97              		.thumb
  98              		.thumb_func
  99              		.fpu fpv5-d16
 101              	_ZN7daisysp8ReverbScD2Ev:
 102              	.LVL3:
 103              	.LFB3566:
 104              		.file 4 "../../../DaisySP/DaisySP-LGPL/Source/Effects/reverbsc.h"
   1:../../../DaisySP/DaisySP-LGPL/Source/Effects/reverbsc.h **** /*
   2:../../../DaisySP/DaisySP-LGPL/Source/Effects/reverbsc.h **** Copyright (c) 2023 Electrosmith, Corp, Sean Costello, Istvan Varga, Paul Batchelor
   3:../../../DaisySP/DaisySP-LGPL/Source/Effects/reverbsc.h **** 
   4:../../../DaisySP/DaisySP-LGPL/Source/Effects/reverbsc.h **** Use of this source code is governed by the LGPL V2.1
   5:../../../DaisySP/DaisySP-LGPL/Source/Effects/reverbsc.h **** license that can be found in the LICENSE file or at
   6:../../../DaisySP/DaisySP-LGPL/Source/Effects/reverbsc.h **** https://opensource.org/license/lgpl-2-1/
   7:../../../DaisySP/DaisySP-LGPL/Source/Effects/reverbsc.h **** */
   8:../../../DaisySP/DaisySP-LGPL/Source/Effects/reverbsc.h **** 
   9:../../../DaisySP/DaisySP-LGPL/Source/Effects/reverbsc.h **** #pragma once
  10:../../../DaisySP/DaisySP-LGPL/Source/Effects/reverbsc.h **** #ifndef DSYSP_REVERBSC_H
  11:../../../DaisySP/DaisySP-LGPL/Source/Effects/reverbsc.h **** #define DSYSP_REVERBSC_H
  12:../../../DaisySP/DaisySP-LGPL/Source/Effects/reverbsc.h **** 
  13:../../../DaisySP/DaisySP-LGPL/Source/Effects/reverbsc.h **** #define DSY_REVERBSC_MAX_SIZE 98936
  14:../../../DaisySP/DaisySP-LGPL/Source/Effects/reverbsc.h **** 
  15:../../../DaisySP/DaisySP-LGPL/Source/Effects/reverbsc.h **** namespace daisysp
  16:../../../DaisySP/DaisySP-LGPL/Source/Effects/reverbsc.h **** {
  17:../../../DaisySP/DaisySP-LGPL/Source/Effects/reverbsc.h **** /**Delay line for internal reverb use
  18:../../../DaisySP/DaisySP-LGPL/Source/Effects/reverbsc.h **** */
  19:../../../DaisySP/DaisySP-LGPL/Source/Effects/reverbsc.h **** typedef struct
  20:../../../DaisySP/DaisySP-LGPL/Source/Effects/reverbsc.h **** {
  21:../../../DaisySP/DaisySP-LGPL/Source/Effects/reverbsc.h ****     int    write_pos;         /**< write position */
  22:../../../DaisySP/DaisySP-LGPL/Source/Effects/reverbsc.h ****     int    buffer_size;       /**< buffer size */
  23:../../../DaisySP/DaisySP-LGPL/Source/Effects/reverbsc.h ****     int    read_pos;          /**< read position */
  24:../../../DaisySP/DaisySP-LGPL/Source/Effects/reverbsc.h ****     int    read_pos_frac;     /**< fractional component of read pos */
  25:../../../DaisySP/DaisySP-LGPL/Source/Effects/reverbsc.h ****     int    read_pos_frac_inc; /**< increment for fractional */
  26:../../../DaisySP/DaisySP-LGPL/Source/Effects/reverbsc.h ****     int    dummy;             /**<  dummy var */
  27:../../../DaisySP/DaisySP-LGPL/Source/Effects/reverbsc.h ****     int    seed_val;          /**< randseed */
  28:../../../DaisySP/DaisySP-LGPL/Source/Effects/reverbsc.h ****     int    rand_line_cnt;     /**< number of random lines */
  29:../../../DaisySP/DaisySP-LGPL/Source/Effects/reverbsc.h ****     float  filter_state;      /**< state of filter */
  30:../../../DaisySP/DaisySP-LGPL/Source/Effects/reverbsc.h ****     float *buf;               /**< buffer ptr */
  31:../../../DaisySP/DaisySP-LGPL/Source/Effects/reverbsc.h **** } ReverbScDl;
  32:../../../DaisySP/DaisySP-LGPL/Source/Effects/reverbsc.h **** 
  33:../../../DaisySP/DaisySP-LGPL/Source/Effects/reverbsc.h **** /** Stereo Reverb */
  34:../../../DaisySP/DaisySP-LGPL/Source/Effects/reverbsc.h **** class ReverbSc
  35:../../../DaisySP/DaisySP-LGPL/Source/Effects/reverbsc.h **** {
  36:../../../DaisySP/DaisySP-LGPL/Source/Effects/reverbsc.h ****   public:
  37:../../../DaisySP/DaisySP-LGPL/Source/Effects/reverbsc.h ****     ReverbSc() {}
  38:../../../DaisySP/DaisySP-LGPL/Source/Effects/reverbsc.h ****     ~ReverbSc() {}
 105              		.loc 4 38 5 is_stmt 1 view -0
 106              		.cfi_startproc
 107              		@ args = 0, pretend = 0, frame = 0
ARM GAS  C:\Users\jaude\AppData\Local\Temp\cc5q4WcC.s 			page 5


 108              		@ frame_needed = 0, uses_anonymous_args = 0
 109              		@ link register save eliminated.
 110              		.loc 4 38 18 is_stmt 0 view .LVU7
 111 0000 7047     		bx	lr
 112              		.cfi_endproc
 113              	.LFE3566:
 115              		.weak	_ZN7daisysp8ReverbScD1Ev
 116              		.thumb_set _ZN7daisysp8ReverbScD1Ev,_ZN7daisysp8ReverbScD2Ev
 117              		.section	.text._ZN5daisy9DaisySeedD2Ev,"axG",%progbits,_ZN5daisy9DaisySeedD5Ev,comdat
 118              		.align	1
 119              		.p2align 2,,3
 120              		.weak	_ZN5daisy9DaisySeedD2Ev
 121              		.syntax unified
 122              		.thumb
 123              		.thumb_func
 124              		.fpu fpv5-d16
 126              	_ZN5daisy9DaisySeedD2Ev:
 127              	.LVL4:
 128              	.LFB4841:
 129              		.file 5 "../../../libDaisy/src/daisy_seed.h"
   1:../../../libDaisy/src/daisy_seed.h **** #pragma once
   2:../../../libDaisy/src/daisy_seed.h **** #ifndef DSY_SEED_H
   3:../../../libDaisy/src/daisy_seed.h **** #define DSY_SEED_H
   4:../../../libDaisy/src/daisy_seed.h **** 
   5:../../../libDaisy/src/daisy_seed.h **** #include "daisy.h"
   6:../../../libDaisy/src/daisy_seed.h **** 
   7:../../../libDaisy/src/daisy_seed.h **** //Uncomment this out if you're still using the rev2 hardware
   8:../../../libDaisy/src/daisy_seed.h **** //#define SEED_REV2
   9:../../../libDaisy/src/daisy_seed.h **** 
  10:../../../libDaisy/src/daisy_seed.h **** namespace daisy
  11:../../../libDaisy/src/daisy_seed.h **** {
  12:../../../libDaisy/src/daisy_seed.h **** /**
  13:../../../libDaisy/src/daisy_seed.h ****    @brief This is the higher-level interface for the Daisy board. \n 
  14:../../../libDaisy/src/daisy_seed.h ****     All basic peripheral configuration/initialization is setup here. \n
  15:../../../libDaisy/src/daisy_seed.h **** 
  16:../../../libDaisy/src/daisy_seed.h ****    @ingroup boards
  17:../../../libDaisy/src/daisy_seed.h **** */
  18:../../../libDaisy/src/daisy_seed.h **** class DaisySeed
  19:../../../libDaisy/src/daisy_seed.h **** {
  20:../../../libDaisy/src/daisy_seed.h ****   public:
  21:../../../libDaisy/src/daisy_seed.h ****     DaisySeed() {}
  22:../../../libDaisy/src/daisy_seed.h ****     ~DaisySeed() {}
 130              		.loc 5 22 5 is_stmt 1 view -0
 131              		.cfi_startproc
 132              		@ args = 0, pretend = 0, frame = 0
 133              		@ frame_needed = 0, uses_anonymous_args = 0
 134              		@ link register save eliminated.
 135              	.LBB109:
 136              	.LBI109:
 137              		.file 6 "../../../libDaisy/src/sys/system.h"
   1:../../../libDaisy/src/sys/system.h **** #ifndef DSY_SYSTEM_H
   2:../../../libDaisy/src/sys/system.h **** #define DSY_SYSTEM_H
   3:../../../libDaisy/src/sys/system.h **** 
   4:../../../libDaisy/src/sys/system.h **** #ifndef UNIT_TEST // for unit tests, a dummy implementation is provided below
   5:../../../libDaisy/src/sys/system.h **** 
   6:../../../libDaisy/src/sys/system.h **** #include <cstdint>
   7:../../../libDaisy/src/sys/system.h **** #include "per/tim.h"
ARM GAS  C:\Users\jaude\AppData\Local\Temp\cc5q4WcC.s 			page 6


   8:../../../libDaisy/src/sys/system.h **** 
   9:../../../libDaisy/src/sys/system.h **** namespace daisy
  10:../../../libDaisy/src/sys/system.h **** {
  11:../../../libDaisy/src/sys/system.h **** /** A handle for interacting with the Core System.
  12:../../../libDaisy/src/sys/system.h ****  ** This includes the Clock tree, MPU, global DMA initialization,
  13:../../../libDaisy/src/sys/system.h ****  ** cache handling, and any other necessary global initiailzation
  14:../../../libDaisy/src/sys/system.h ****  **
  15:../../../libDaisy/src/sys/system.h ****  ** @author shensley
  16:../../../libDaisy/src/sys/system.h ****  ** @ingroup system
  17:../../../libDaisy/src/sys/system.h ****  */
  18:../../../libDaisy/src/sys/system.h **** class System
  19:../../../libDaisy/src/sys/system.h **** {
  20:../../../libDaisy/src/sys/system.h ****   public:
  21:../../../libDaisy/src/sys/system.h ****     /** Contains settings for initializing the System */
  22:../../../libDaisy/src/sys/system.h ****     struct Config
  23:../../../libDaisy/src/sys/system.h ****     {
  24:../../../libDaisy/src/sys/system.h ****         /** Specifies the system clock frequency that feeds APB/AHB clocks, etc. */
  25:../../../libDaisy/src/sys/system.h ****         enum class SysClkFreq
  26:../../../libDaisy/src/sys/system.h ****         {
  27:../../../libDaisy/src/sys/system.h ****             FREQ_400MHZ,
  28:../../../libDaisy/src/sys/system.h ****             FREQ_480MHZ,
  29:../../../libDaisy/src/sys/system.h ****         };
  30:../../../libDaisy/src/sys/system.h **** 
  31:../../../libDaisy/src/sys/system.h ****         /** Method to call on the struct to set to defaults
  32:../../../libDaisy/src/sys/system.h ****          ** CPU Freq set to 400MHz
  33:../../../libDaisy/src/sys/system.h ****          ** Cache Enabled
  34:../../../libDaisy/src/sys/system.h ****          ** */
  35:../../../libDaisy/src/sys/system.h ****         void Defaults()
  36:../../../libDaisy/src/sys/system.h ****         {
  37:../../../libDaisy/src/sys/system.h ****             cpu_freq    = SysClkFreq::FREQ_400MHZ;
  38:../../../libDaisy/src/sys/system.h ****             use_dcache  = true;
  39:../../../libDaisy/src/sys/system.h ****             use_icache  = true;
  40:../../../libDaisy/src/sys/system.h ****             skip_clocks = false;
  41:../../../libDaisy/src/sys/system.h ****         }
  42:../../../libDaisy/src/sys/system.h **** 
  43:../../../libDaisy/src/sys/system.h ****         /** Method to call on the struct to set to boost mode:
  44:../../../libDaisy/src/sys/system.h ****          ** CPU Freq set to 480MHz
  45:../../../libDaisy/src/sys/system.h ****          ** Cache Enabled
  46:../../../libDaisy/src/sys/system.h ****          ** */
  47:../../../libDaisy/src/sys/system.h ****         void Boost()
  48:../../../libDaisy/src/sys/system.h ****         {
  49:../../../libDaisy/src/sys/system.h ****             cpu_freq    = SysClkFreq::FREQ_480MHZ;
  50:../../../libDaisy/src/sys/system.h ****             use_dcache  = true;
  51:../../../libDaisy/src/sys/system.h ****             use_icache  = true;
  52:../../../libDaisy/src/sys/system.h ****             skip_clocks = false;
  53:../../../libDaisy/src/sys/system.h ****         }
  54:../../../libDaisy/src/sys/system.h **** 
  55:../../../libDaisy/src/sys/system.h ****         SysClkFreq cpu_freq;
  56:../../../libDaisy/src/sys/system.h ****         bool       use_dcache;
  57:../../../libDaisy/src/sys/system.h ****         bool       use_icache;
  58:../../../libDaisy/src/sys/system.h ****         bool       skip_clocks;
  59:../../../libDaisy/src/sys/system.h ****     };
  60:../../../libDaisy/src/sys/system.h **** 
  61:../../../libDaisy/src/sys/system.h ****     /** Describes the different regions of memory available to the Daisy */
  62:../../../libDaisy/src/sys/system.h ****     enum MemoryRegion
  63:../../../libDaisy/src/sys/system.h ****     {
  64:../../../libDaisy/src/sys/system.h ****         INTERNAL_FLASH = 0,
ARM GAS  C:\Users\jaude\AppData\Local\Temp\cc5q4WcC.s 			page 7


  65:../../../libDaisy/src/sys/system.h ****         ITCMRAM,
  66:../../../libDaisy/src/sys/system.h ****         DTCMRAM,
  67:../../../libDaisy/src/sys/system.h ****         SRAM_D1,
  68:../../../libDaisy/src/sys/system.h ****         SRAM_D2,
  69:../../../libDaisy/src/sys/system.h ****         SRAM_D3,
  70:../../../libDaisy/src/sys/system.h ****         SDRAM,
  71:../../../libDaisy/src/sys/system.h ****         QSPI,
  72:../../../libDaisy/src/sys/system.h ****         INVALID_ADDRESS,
  73:../../../libDaisy/src/sys/system.h ****     };
  74:../../../libDaisy/src/sys/system.h **** 
  75:../../../libDaisy/src/sys/system.h ****     /** Bootloader struct for controlling bootloading parameters */
  76:../../../libDaisy/src/sys/system.h ****     struct BootInfo
  77:../../../libDaisy/src/sys/system.h ****     {
  78:../../../libDaisy/src/sys/system.h ****         enum class Type : uint32_t
  79:../../../libDaisy/src/sys/system.h ****         {
  80:../../../libDaisy/src/sys/system.h ****             INVALID      = 0x00000000,
  81:../../../libDaisy/src/sys/system.h ****             JUMP         = 0xDEADBEEF,
  82:../../../libDaisy/src/sys/system.h ****             SKIP_TIMEOUT = 0x5AFEB007,
  83:../../../libDaisy/src/sys/system.h ****             INF_TIMEOUT  = 0xB0074EFA,
  84:../../../libDaisy/src/sys/system.h ****         } status;
  85:../../../libDaisy/src/sys/system.h ****         uint32_t data;
  86:../../../libDaisy/src/sys/system.h ****         enum class Version : uint32_t
  87:../../../libDaisy/src/sys/system.h ****         {
  88:../../../libDaisy/src/sys/system.h ****             LT_v6_0 = 0, // Less than v6.0
  89:../../../libDaisy/src/sys/system.h ****             NONE,        // No bootloader present
  90:../../../libDaisy/src/sys/system.h ****             v6_0,        // v6.0
  91:../../../libDaisy/src/sys/system.h ****             v6_1,        // v6.1 or greater
  92:../../../libDaisy/src/sys/system.h ****             LAST
  93:../../../libDaisy/src/sys/system.h ****         } version;
  94:../../../libDaisy/src/sys/system.h ****     };
  95:../../../libDaisy/src/sys/system.h **** 
  96:../../../libDaisy/src/sys/system.h ****     System() {}
  97:../../../libDaisy/src/sys/system.h ****     ~System() {}
 138              		.loc 6 97 5 view .LVU9
 139              		.loc 6 97 5 is_stmt 0 view .LVU10
 140              	.LBE109:
 141              	.LBB110:
 142              	.LBI110:
 143              		.file 7 "../../../libDaisy/src/hid/usb.h"
   1:../../../libDaisy/src/hid/usb.h **** #pragma once
   2:../../../libDaisy/src/hid/usb.h **** #ifndef DSY_HID_USB_H
   3:../../../libDaisy/src/hid/usb.h **** #define DSY_HID_USB_H
   4:../../../libDaisy/src/hid/usb.h **** #include <stdint.h>
   5:../../../libDaisy/src/hid/usb.h **** #include <stdlib.h>
   6:../../../libDaisy/src/hid/usb.h **** 
   7:../../../libDaisy/src/hid/usb.h **** namespace daisy
   8:../../../libDaisy/src/hid/usb.h **** /** @addtogroup human_interface
   9:../../../libDaisy/src/hid/usb.h ****     @{
  10:../../../libDaisy/src/hid/usb.h **** */
  11:../../../libDaisy/src/hid/usb.h **** 
  12:../../../libDaisy/src/hid/usb.h **** {
  13:../../../libDaisy/src/hid/usb.h **** /** 
  14:../../../libDaisy/src/hid/usb.h ****     @brief Interface for initializing and using the USB Peripherals on the daisy
  15:../../../libDaisy/src/hid/usb.h ****     @author Stephen Hensley
  16:../../../libDaisy/src/hid/usb.h ****     @date December 2019
  17:../../../libDaisy/src/hid/usb.h **** */
  18:../../../libDaisy/src/hid/usb.h **** class UsbHandle
ARM GAS  C:\Users\jaude\AppData\Local\Temp\cc5q4WcC.s 			page 8


  19:../../../libDaisy/src/hid/usb.h **** {
  20:../../../libDaisy/src/hid/usb.h ****   public:
  21:../../../libDaisy/src/hid/usb.h ****     /** Return values for USBHandle Functions */
  22:../../../libDaisy/src/hid/usb.h ****     enum class Result
  23:../../../libDaisy/src/hid/usb.h ****     {
  24:../../../libDaisy/src/hid/usb.h ****         OK,
  25:../../../libDaisy/src/hid/usb.h ****         ERR,
  26:../../../libDaisy/src/hid/usb.h ****     };
  27:../../../libDaisy/src/hid/usb.h **** 
  28:../../../libDaisy/src/hid/usb.h ****     /** Specified which of the two USB Peripherals to initialize. */
  29:../../../libDaisy/src/hid/usb.h ****     enum UsbPeriph
  30:../../../libDaisy/src/hid/usb.h ****     {
  31:../../../libDaisy/src/hid/usb.h ****         FS_INTERNAL, /**< Internal pin */
  32:../../../libDaisy/src/hid/usb.h ****         FS_EXTERNAL, /**< FS External D+ pin is Pin 38 (GPIO32). FS External D- pin is Pin 37 (GPIO
  33:../../../libDaisy/src/hid/usb.h ****         FS_BOTH,     /**< Both */
  34:../../../libDaisy/src/hid/usb.h ****     };
  35:../../../libDaisy/src/hid/usb.h **** 
  36:../../../libDaisy/src/hid/usb.h **** 
  37:../../../libDaisy/src/hid/usb.h ****     /** Function called upon reception of a buffer */
  38:../../../libDaisy/src/hid/usb.h ****     typedef void (*ReceiveCallback)(uint8_t* buff, uint32_t* len);
  39:../../../libDaisy/src/hid/usb.h **** 
  40:../../../libDaisy/src/hid/usb.h ****     UsbHandle() {}
  41:../../../libDaisy/src/hid/usb.h **** 
  42:../../../libDaisy/src/hid/usb.h ****     ~UsbHandle() {}
 144              		.loc 7 42 5 is_stmt 1 view .LVU11
 145              		.loc 7 42 5 is_stmt 0 view .LVU12
 146              	.LBE110:
 147              	.LBB111:
 148              	.LBI111:
 149              		.file 8 "../../../libDaisy/src/per/adc.h"
   1:../../../libDaisy/src/per/adc.h **** #pragma once
   2:../../../libDaisy/src/per/adc.h **** #ifndef DSY_ADC_H
   3:../../../libDaisy/src/per/adc.h **** #define DSY_ADC_H /**< Macro */
   4:../../../libDaisy/src/per/adc.h **** #include <stdint.h>
   5:../../../libDaisy/src/per/adc.h **** #include <stdlib.h>
   6:../../../libDaisy/src/per/adc.h **** #include "daisy_core.h"
   7:../../../libDaisy/src/per/adc.h **** #include "per/gpio.h"
   8:../../../libDaisy/src/per/adc.h **** 
   9:../../../libDaisy/src/per/adc.h **** #define DSY_ADC_MAX_CHANNELS 16 /**< Maximum number of ADC channels */
  10:../../../libDaisy/src/per/adc.h **** 
  11:../../../libDaisy/src/per/adc.h **** namespace daisy
  12:../../../libDaisy/src/per/adc.h **** {
  13:../../../libDaisy/src/per/adc.h **** /** @addtogroup per_analog
  14:../../../libDaisy/src/per/adc.h ****     @{
  15:../../../libDaisy/src/per/adc.h **** */
  16:../../../libDaisy/src/per/adc.h **** 
  17:../../../libDaisy/src/per/adc.h **** /* While there may not be many configuration options here,
  18:../../../libDaisy/src/per/adc.h **** using a struct like this allows us to add more configuration
  19:../../../libDaisy/src/per/adc.h **** later without breaking existing functionality.
  20:../../../libDaisy/src/per/adc.h **** */
  21:../../../libDaisy/src/per/adc.h **** 
  22:../../../libDaisy/src/per/adc.h **** /** @brief   Configuration Structure for an ADC Channel 
  23:../../../libDaisy/src/per/adc.h ****  *  @details This can be used to configure a a single input, 
  24:../../../libDaisy/src/per/adc.h ****  *           or a multiplexed input, allowing up to 8 inputs on 
  25:../../../libDaisy/src/per/adc.h ****  *           one channel.
  26:../../../libDaisy/src/per/adc.h ****  *  @note    Sharing data lines to multiple muxes _is_ possible, but
  27:../../../libDaisy/src/per/adc.h ****  *           each channel sharing data lines must be set to the maximum
ARM GAS  C:\Users\jaude\AppData\Local\Temp\cc5q4WcC.s 			page 9


  28:../../../libDaisy/src/per/adc.h ****  *           number of channels, even if some multiplexers have fewer
  29:../../../libDaisy/src/per/adc.h ****  *           inputs connected.
  30:../../../libDaisy/src/per/adc.h **** */
  31:../../../libDaisy/src/per/adc.h **** struct AdcChannelConfig
  32:../../../libDaisy/src/per/adc.h **** {
  33:../../../libDaisy/src/per/adc.h ****     /** Which pin to use for multiplexing */
  34:../../../libDaisy/src/per/adc.h ****     enum MuxPin
  35:../../../libDaisy/src/per/adc.h ****     {
  36:../../../libDaisy/src/per/adc.h ****         MUX_SEL_0,    /**< & */
  37:../../../libDaisy/src/per/adc.h ****         MUX_SEL_1,    /**< & */
  38:../../../libDaisy/src/per/adc.h ****         MUX_SEL_2,    /**< & */
  39:../../../libDaisy/src/per/adc.h ****         MUX_SEL_LAST, /**< & */
  40:../../../libDaisy/src/per/adc.h ****     };
  41:../../../libDaisy/src/per/adc.h **** 
  42:../../../libDaisy/src/per/adc.h ****     /** \brief per channel conversion speed added to fixed time based on bitdepth, etc. */
  43:../../../libDaisy/src/per/adc.h ****     enum ConversionSpeed
  44:../../../libDaisy/src/per/adc.h ****     {
  45:../../../libDaisy/src/per/adc.h ****         SPEED_1CYCLES_5,
  46:../../../libDaisy/src/per/adc.h ****         SPEED_2CYCLES_5,
  47:../../../libDaisy/src/per/adc.h ****         SPEED_8CYCLES_5,
  48:../../../libDaisy/src/per/adc.h ****         SPEED_16CYCLES_5,
  49:../../../libDaisy/src/per/adc.h ****         SPEED_32CYCLES_5,
  50:../../../libDaisy/src/per/adc.h ****         SPEED_64CYCLES_5,
  51:../../../libDaisy/src/per/adc.h ****         SPEED_387CYCLES_5,
  52:../../../libDaisy/src/per/adc.h ****         SPEED_810CYCLES_5,
  53:../../../libDaisy/src/per/adc.h ****     };
  54:../../../libDaisy/src/per/adc.h **** 
  55:../../../libDaisy/src/per/adc.h ****     /** Initializes a single ADC pin as an ADC. 
  56:../../../libDaisy/src/per/adc.h ****     \param pin Pin to init.
  57:../../../libDaisy/src/per/adc.h ****     \param speed conversion speed for this pin defaults to 8.5 cycles
  58:../../../libDaisy/src/per/adc.h ****      */
  59:../../../libDaisy/src/per/adc.h ****     void InitSingle(dsy_gpio_pin pin, ConversionSpeed speed = SPEED_8CYCLES_5);
  60:../../../libDaisy/src/per/adc.h **** 
  61:../../../libDaisy/src/per/adc.h ****     /** 
  62:../../../libDaisy/src/per/adc.h ****     Initializes a single ADC pin as a Multiplexed ADC.
  63:../../../libDaisy/src/per/adc.h ****     Requires a CD405X Multiplexer connected to the pin.
  64:../../../libDaisy/src/per/adc.h ****     You only need to supply the mux pins that are required,
  65:../../../libDaisy/src/per/adc.h ****     e.g. a 4052 mux would only require mux_0 and mux_1.
  66:../../../libDaisy/src/per/adc.h ****     Internal Callbacks handle the pin addressing.
  67:../../../libDaisy/src/per/adc.h ****     \param adc_pin &
  68:../../../libDaisy/src/per/adc.h ****     \param mux_channels must be 1-8
  69:../../../libDaisy/src/per/adc.h ****     \param mux_0 First mux pin
  70:../../../libDaisy/src/per/adc.h ****     \param mux_1 Second mux pin
  71:../../../libDaisy/src/per/adc.h ****     \param mux_2 Third mux pin
  72:../../../libDaisy/src/per/adc.h ****     \param speed conversion speed for this pin defaults to 8.5 cycles
  73:../../../libDaisy/src/per/adc.h ****     */
  74:../../../libDaisy/src/per/adc.h ****     void InitMux(dsy_gpio_pin    adc_pin,
  75:../../../libDaisy/src/per/adc.h ****                  size_t          mux_channels,
  76:../../../libDaisy/src/per/adc.h ****                  dsy_gpio_pin    mux_0,
  77:../../../libDaisy/src/per/adc.h ****                  dsy_gpio_pin    mux_1 = {DSY_GPIOX, 0},
  78:../../../libDaisy/src/per/adc.h ****                  dsy_gpio_pin    mux_2 = {DSY_GPIOX, 0},
  79:../../../libDaisy/src/per/adc.h ****                  ConversionSpeed speed = SPEED_8CYCLES_5);
  80:../../../libDaisy/src/per/adc.h **** 
  81:../../../libDaisy/src/per/adc.h ****     dsy_gpio        pin_;                   /**< & */
  82:../../../libDaisy/src/per/adc.h ****     dsy_gpio        mux_pin_[MUX_SEL_LAST]; /**< & */
  83:../../../libDaisy/src/per/adc.h ****     uint8_t         mux_channels_;          /**< & */
  84:../../../libDaisy/src/per/adc.h ****     ConversionSpeed speed_;
ARM GAS  C:\Users\jaude\AppData\Local\Temp\cc5q4WcC.s 			page 10


  85:../../../libDaisy/src/per/adc.h **** };
  86:../../../libDaisy/src/per/adc.h **** 
  87:../../../libDaisy/src/per/adc.h **** /**
  88:../../../libDaisy/src/per/adc.h ****    @brief Handler for analog to digital conversion
  89:../../../libDaisy/src/per/adc.h **** */
  90:../../../libDaisy/src/per/adc.h **** class AdcHandle
  91:../../../libDaisy/src/per/adc.h **** {
  92:../../../libDaisy/src/per/adc.h ****   public:
  93:../../../libDaisy/src/per/adc.h ****     /** Supported oversampling amounts */
  94:../../../libDaisy/src/per/adc.h ****     enum OverSampling
  95:../../../libDaisy/src/per/adc.h ****     {
  96:../../../libDaisy/src/per/adc.h ****         OVS_NONE, /**< & */
  97:../../../libDaisy/src/per/adc.h ****         OVS_4,    /**< & */
  98:../../../libDaisy/src/per/adc.h ****         OVS_8,    /**< & */
  99:../../../libDaisy/src/per/adc.h ****         OVS_16,   /**< & */
 100:../../../libDaisy/src/per/adc.h ****         OVS_32,   /**< & */
 101:../../../libDaisy/src/per/adc.h ****         OVS_64,   /**< & */
 102:../../../libDaisy/src/per/adc.h ****         OVS_128,  /**< & */
 103:../../../libDaisy/src/per/adc.h ****         OVS_256,  /**< & */
 104:../../../libDaisy/src/per/adc.h ****         OVS_512,  /**< & */
 105:../../../libDaisy/src/per/adc.h ****         OVS_1024, /**< & */
 106:../../../libDaisy/src/per/adc.h ****         OVS_LAST, /**< & */
 107:../../../libDaisy/src/per/adc.h ****     };
 108:../../../libDaisy/src/per/adc.h **** 
 109:../../../libDaisy/src/per/adc.h ****     AdcHandle() {}
 110:../../../libDaisy/src/per/adc.h ****     ~AdcHandle() {}
 150              		.loc 8 110 5 is_stmt 1 view .LVU13
 151              		.loc 8 110 5 is_stmt 0 view .LVU14
 152              	.LBE111:
 153              	.LBB112:
 154              	.LBI112:
 155              		.file 9 "../../../libDaisy/src/hid/audio.h"
   1:../../../libDaisy/src/hid/audio.h **** #ifndef DSY_AUDIO_H
   2:../../../libDaisy/src/hid/audio.h **** #define DSY_AUDIO_H /**< & */
   3:../../../libDaisy/src/hid/audio.h **** 
   4:../../../libDaisy/src/hid/audio.h **** #include "per/sai.h"
   5:../../../libDaisy/src/hid/audio.h **** 
   6:../../../libDaisy/src/hid/audio.h **** namespace daisy
   7:../../../libDaisy/src/hid/audio.h **** {
   8:../../../libDaisy/src/hid/audio.h **** /** @brief Audio Engine Handle
   9:../../../libDaisy/src/hid/audio.h ****  *  @ingroup audio 
  10:../../../libDaisy/src/hid/audio.h ****  *  @details This class allows for higher level access to an audio engine.
  11:../../../libDaisy/src/hid/audio.h ****  *           If you're using a SOM like the DaisySeed or DaisyPatchSM (or any 
  12:../../../libDaisy/src/hid/audio.h ****  *            board that includes one of those objects) then the intialization
  13:../../../libDaisy/src/hid/audio.h ****  *            is already taken  care of.
  14:../../../libDaisy/src/hid/audio.h ****  *           If you're setting up your own custom hardware, or need to make changes
  15:../../../libDaisy/src/hid/audio.h ****  *           you will have to take the following steps:
  16:../../../libDaisy/src/hid/audio.h ****  *             1. Create and Initialize an SaiHandle or two depending on your requirements
  17:../../../libDaisy/src/hid/audio.h ****  *             2. Initialize the Audio Handle with the desired settings and the Initialized SaiHand
  18:../../../libDaisy/src/hid/audio.h ****  *             3. If the connected codec requires special configuration or initialization, do so
  19:../../../libDaisy/src/hid/audio.h ****  *             4. Write a callback method using either the AudioCallback or the InterleavingAudioCa
  20:../../../libDaisy/src/hid/audio.h ****  *             5. Start the Audio using one of the StartAudio function
  21:../../../libDaisy/src/hid/audio.h ****  */
  22:../../../libDaisy/src/hid/audio.h **** class AudioHandle
  23:../../../libDaisy/src/hid/audio.h **** {
  24:../../../libDaisy/src/hid/audio.h ****   public:
  25:../../../libDaisy/src/hid/audio.h ****     /** Manually configurable details about the Audio Engine */
ARM GAS  C:\Users\jaude\AppData\Local\Temp\cc5q4WcC.s 			page 11


  26:../../../libDaisy/src/hid/audio.h ****     /** TODO: Figure out how to get samplerate in here. */
  27:../../../libDaisy/src/hid/audio.h ****     struct Config
  28:../../../libDaisy/src/hid/audio.h ****     {
  29:../../../libDaisy/src/hid/audio.h ****         /** number of samples to process per callback */
  30:../../../libDaisy/src/hid/audio.h ****         size_t blocksize;
  31:../../../libDaisy/src/hid/audio.h **** 
  32:../../../libDaisy/src/hid/audio.h ****         /**< Sample rate of audio */
  33:../../../libDaisy/src/hid/audio.h ****         SaiHandle::Config::SampleRate samplerate;
  34:../../../libDaisy/src/hid/audio.h **** 
  35:../../../libDaisy/src/hid/audio.h ****         /** factor for adjustment before and after callback for hardware that may have extra headro
  36:../../../libDaisy/src/hid/audio.h ****         float postgain;
  37:../../../libDaisy/src/hid/audio.h **** 
  38:../../../libDaisy/src/hid/audio.h ****         /** factor for additional one-sided compensation to audio path for hardware that may
  39:../../../libDaisy/src/hid/audio.h ****          *  have unequal input/output ranges
  40:../../../libDaisy/src/hid/audio.h ****          */
  41:../../../libDaisy/src/hid/audio.h ****         float output_compensation;
  42:../../../libDaisy/src/hid/audio.h **** 
  43:../../../libDaisy/src/hid/audio.h ****         /** Sets default values for config struct */
  44:../../../libDaisy/src/hid/audio.h ****         Config()
  45:../../../libDaisy/src/hid/audio.h ****         : blocksize(48),
  46:../../../libDaisy/src/hid/audio.h ****           samplerate(SaiHandle::Config::SampleRate::SAI_48KHZ),
  47:../../../libDaisy/src/hid/audio.h ****           postgain(1.f),
  48:../../../libDaisy/src/hid/audio.h ****           output_compensation(1.f)
  49:../../../libDaisy/src/hid/audio.h ****         {
  50:../../../libDaisy/src/hid/audio.h ****         }
  51:../../../libDaisy/src/hid/audio.h ****     };
  52:../../../libDaisy/src/hid/audio.h **** 
  53:../../../libDaisy/src/hid/audio.h ****     enum class Result
  54:../../../libDaisy/src/hid/audio.h ****     {
  55:../../../libDaisy/src/hid/audio.h ****         OK,
  56:../../../libDaisy/src/hid/audio.h ****         ERR,
  57:../../../libDaisy/src/hid/audio.h ****     };
  58:../../../libDaisy/src/hid/audio.h **** 
  59:../../../libDaisy/src/hid/audio.h ****     /** Non-Interleaving input buffer
  60:../../../libDaisy/src/hid/audio.h ****      * Buffer arranged by float[chn][sample] 
  61:../../../libDaisy/src/hid/audio.h ****      * const so that the user can't modify the input
  62:../../../libDaisy/src/hid/audio.h ****      */
  63:../../../libDaisy/src/hid/audio.h ****     typedef const float* const* InputBuffer;
  64:../../../libDaisy/src/hid/audio.h **** 
  65:../../../libDaisy/src/hid/audio.h ****     /** Non-Interleaving output buffer
  66:../../../libDaisy/src/hid/audio.h ****      * Arranged by float[chn][sample] 
  67:../../../libDaisy/src/hid/audio.h ****      */
  68:../../../libDaisy/src/hid/audio.h ****     typedef float** OutputBuffer;
  69:../../../libDaisy/src/hid/audio.h **** 
  70:../../../libDaisy/src/hid/audio.h ****     /** Type for a Non-Interleaving audio callback 
  71:../../../libDaisy/src/hid/audio.h ****      * Non-Interleaving audio callbacks in daisy will be of this type
  72:../../../libDaisy/src/hid/audio.h ****      */
  73:../../../libDaisy/src/hid/audio.h ****     typedef void (*AudioCallback)(InputBuffer  in,
  74:../../../libDaisy/src/hid/audio.h ****                                   OutputBuffer out,
  75:../../../libDaisy/src/hid/audio.h ****                                   size_t       size);
  76:../../../libDaisy/src/hid/audio.h **** 
  77:../../../libDaisy/src/hid/audio.h ****     /** Interleaving Input buffer
  78:../../../libDaisy/src/hid/audio.h ****      ** audio is prepared as { L0, R0, L1, R1, . . . LN, RN }]
  79:../../../libDaisy/src/hid/audio.h ****      ** this is const, as the user shouldn't modify it
  80:../../../libDaisy/src/hid/audio.h ****     */
  81:../../../libDaisy/src/hid/audio.h ****     typedef const float* InterleavingInputBuffer;
  82:../../../libDaisy/src/hid/audio.h **** 
ARM GAS  C:\Users\jaude\AppData\Local\Temp\cc5q4WcC.s 			page 12


  83:../../../libDaisy/src/hid/audio.h ****     /** Interleaving Output buffer 
  84:../../../libDaisy/src/hid/audio.h ****      ** audio is prepared as { L0, R0, L1, R1, . . . LN, RN }
  85:../../../libDaisy/src/hid/audio.h ****     */
  86:../../../libDaisy/src/hid/audio.h ****     typedef float* InterleavingOutputBuffer;
  87:../../../libDaisy/src/hid/audio.h **** 
  88:../../../libDaisy/src/hid/audio.h ****     /** Interleaving Audio Callback 
  89:../../../libDaisy/src/hid/audio.h ****      * Interleaving audio callbacks in daisy must be of this type
  90:../../../libDaisy/src/hid/audio.h ****      */
  91:../../../libDaisy/src/hid/audio.h ****     typedef void (*InterleavingAudioCallback)(InterleavingInputBuffer  in,
  92:../../../libDaisy/src/hid/audio.h ****                                               InterleavingOutputBuffer out,
  93:../../../libDaisy/src/hid/audio.h ****                                               size_t                   size);
  94:../../../libDaisy/src/hid/audio.h **** 
  95:../../../libDaisy/src/hid/audio.h ****     AudioHandle() : pimpl_(nullptr) {}
  96:../../../libDaisy/src/hid/audio.h ****     ~AudioHandle() {}
 156              		.loc 9 96 5 is_stmt 1 view .LVU15
 157              		.loc 9 96 5 is_stmt 0 view .LVU16
 158              	.LBE112:
 159              		.loc 5 22 19 view .LVU17
 160 0000 7047     		bx	lr
 161              		.cfi_endproc
 162              	.LFE4841:
 164              		.weak	_ZN5daisy9DaisySeedD1Ev
 165              		.thumb_set _ZN5daisy9DaisySeedD1Ev,_ZN5daisy9DaisySeedD2Ev
 166 0002 00BF     		.section	.text._ZL13AudioCallbackPKfPfj,"ax",%progbits
 167              		.align	1
 168              		.p2align 2,,3
 169              		.syntax unified
 170              		.thumb
 171              		.thumb_func
 172              		.fpu fpv5-d16
 174              	_ZL13AudioCallbackPKfPfj:
 175              	.LVL5:
 176              	.LFB4846:
 177              		.file 10 "reverbsc.cpp"
   1:reverbsc.cpp  **** #include "daisysp.h"
   2:reverbsc.cpp  **** #include "daisy_seed.h"
   3:reverbsc.cpp  **** 
   4:reverbsc.cpp  **** using namespace daisysp;
   5:reverbsc.cpp  **** using namespace daisy;
   6:reverbsc.cpp  **** 
   7:reverbsc.cpp  **** static DaisySeed hw;
   8:reverbsc.cpp  **** 
   9:reverbsc.cpp  **** ReverbSc   verb;
  10:reverbsc.cpp  **** Oscillator osc;
  11:reverbsc.cpp  **** AdEnv      env;
  12:reverbsc.cpp  **** Metro      tick;
  13:reverbsc.cpp  **** 
  14:reverbsc.cpp  **** static void AudioCallback(AudioHandle::InterleavingInputBuffer  in,
  15:reverbsc.cpp  ****                           AudioHandle::InterleavingOutputBuffer out,
  16:reverbsc.cpp  ****                           size_t                                size)
  17:reverbsc.cpp  **** {
 178              		.loc 10 17 1 is_stmt 1 view -0
 179              		.cfi_startproc
 180              		@ args = 0, pretend = 0, frame = 8
 181              		@ frame_needed = 0, uses_anonymous_args = 0
  18:reverbsc.cpp  ****     for(size_t i = 0; i < size; i += 2)
 182              		.loc 10 18 5 view .LVU19
ARM GAS  C:\Users\jaude\AppData\Local\Temp\cc5q4WcC.s 			page 13


 183              	.LBB113:
 184              		.loc 10 18 25 view .LVU20
 185 0000 62B3     		cbz	r2, .L19
 186 0002 013A     		subs	r2, r2, #1
 187              	.LVL6:
 188              		.loc 10 18 25 is_stmt 0 view .LVU21
 189              	.LBE113:
  17:reverbsc.cpp  ****     for(size_t i = 0; i < size; i += 2)
 190              		.loc 10 17 1 view .LVU22
 191 0004 F0B5     		push	{r4, r5, r6, r7, lr}
 192              		.cfi_def_cfa_offset 20
 193              		.cfi_offset 4, -20
 194              		.cfi_offset 5, -16
 195              		.cfi_offset 6, -12
 196              		.cfi_offset 7, -8
 197              		.cfi_offset 14, -4
 198 0006 0C46     		mov	r4, r1
 199              	.LBB122:
 200              		.loc 10 18 25 view .LVU23
 201 0008 0025     		movs	r5, #0
 202 000a 5708     		lsrs	r7, r2, #1
 203              	.LBE122:
  17:reverbsc.cpp  ****     for(size_t i = 0; i < size; i += 2)
 204              		.loc 10 17 1 view .LVU24
 205 000c 2DED028B 		vpush.64	{d8}
 206              		.cfi_def_cfa_offset 28
 207              		.cfi_offset 80, -28
 208              		.cfi_offset 81, -24
 209 0010 85B0     		sub	sp, sp, #20
 210              		.cfi_def_cfa_offset 48
 211              	.LVL7:
 212              	.L10:
 213              	.LBB123:
 214              	.LBB114:
  19:reverbsc.cpp  ****     {
  20:reverbsc.cpp  ****         if(tick.Process())
 215              		.loc 10 20 9 is_stmt 1 view .LVU25
 216              		.loc 10 20 24 is_stmt 0 view .LVU26
 217 0012 1348     		ldr	r0, .L22
 218 0014 FFF7FEFF 		bl	_ZN7daisysp5Metro7ProcessEv
 219              	.LVL8:
  21:reverbsc.cpp  ****         {
  22:reverbsc.cpp  ****             env.Trigger();
 220              		.loc 10 22 13 is_stmt 1 view .LVU27
 221              	.LBB115:
 222              	.LBI115:
  44:../../../DaisySP/Source/Control/adenv.h ****     /** Initializes the ad envelope.
  45:../../../DaisySP/Source/Control/adenv.h **** 
  46:../../../DaisySP/Source/Control/adenv.h ****         Defaults:
  47:../../../DaisySP/Source/Control/adenv.h ****             - current segment = idle
  48:../../../DaisySP/Source/Control/adenv.h ****             - curve = linear
  49:../../../DaisySP/Source/Control/adenv.h ****             - phase = 0
  50:../../../DaisySP/Source/Control/adenv.h ****             - min = 0
  51:../../../DaisySP/Source/Control/adenv.h ****             - max = 1
  52:../../../DaisySP/Source/Control/adenv.h **** 
  53:../../../DaisySP/Source/Control/adenv.h ****         \param sample_rate      sample rate of the audio engine being run
  54:../../../DaisySP/Source/Control/adenv.h ****     */
ARM GAS  C:\Users\jaude\AppData\Local\Temp\cc5q4WcC.s 			page 14


  55:../../../DaisySP/Source/Control/adenv.h ****     void Init(float sample_rate);
  56:../../../DaisySP/Source/Control/adenv.h **** 
  57:../../../DaisySP/Source/Control/adenv.h ****     /** Processes the current sample of the envelope. This should be called once
  58:../../../DaisySP/Source/Control/adenv.h ****         per sample period.
  59:../../../DaisySP/Source/Control/adenv.h ****         \return the current envelope value.
  60:../../../DaisySP/Source/Control/adenv.h ****     */
  61:../../../DaisySP/Source/Control/adenv.h ****     float Process();
  62:../../../DaisySP/Source/Control/adenv.h **** 
  63:../../../DaisySP/Source/Control/adenv.h ****     /** Starts or retriggers the envelope.*/
  64:../../../DaisySP/Source/Control/adenv.h ****     inline void Trigger() { trigger_ = 1; }
 223              		.loc 1 64 17 view .LVU28
 224              	.LBB116:
 225              		.loc 1 64 29 view .LVU29
 226              		.loc 1 64 29 is_stmt 0 view .LVU30
 227              	.LBE116:
 228              	.LBE115:
  23:reverbsc.cpp  ****         }
  24:reverbsc.cpp  **** 
  25:reverbsc.cpp  ****         float sig = env.Process() * osc.Process();
 229              		.loc 10 25 9 is_stmt 1 view .LVU31
  20:reverbsc.cpp  ****         {
 230              		.loc 10 20 24 is_stmt 0 view .LVU32
 231 0018 0346     		mov	r3, r0
 232              	.LBB119:
 233              	.LBB117:
 234              		.loc 1 64 38 view .LVU33
 235 001a 0121     		movs	r1, #1
 236              	.LBE117:
 237              	.LBE119:
 238              		.loc 10 25 32 view .LVU34
 239 001c 1148     		ldr	r0, .L22+4
  20:reverbsc.cpp  ****         {
 240              		.loc 10 20 9 view .LVU35
 241 001e 0BB1     		cbz	r3, .L9
 242              	.LBB120:
 243              	.LBB118:
 244              		.loc 1 64 38 view .LVU36
 245 0020 80F83410 		strb	r1, [r0, #52]
 246              	.L9:
 247              	.LBE118:
 248              	.LBE120:
 249              		.loc 10 25 32 discriminator 2 view .LVU37
 250 0024 FFF7FEFF 		bl	_ZN7daisysp5AdEnv7ProcessEv
 251              	.LVL9:
 252 0028 B0EE408A 		vmov.f32	s16, s0
 253              		.loc 10 25 48 discriminator 2 view .LVU38
 254 002c 0E48     		ldr	r0, .L22+8
  26:reverbsc.cpp  ****         verb.Process(sig, sig, &out[i], &out[i + 1]);
 255              		.loc 10 26 21 discriminator 2 view .LVU39
 256 002e 261D     		adds	r6, r4, #4
  25:reverbsc.cpp  ****         verb.Process(sig, sig, &out[i], &out[i + 1]);
 257              		.loc 10 25 48 discriminator 2 view .LVU40
 258 0030 FFF7FEFF 		bl	_ZN7daisysp10Oscillator7ProcessEv
 259              	.LVL10:
 260              		.loc 10 26 21 discriminator 2 view .LVU41
 261 0034 03AA     		add	r2, sp, #12
  25:reverbsc.cpp  ****         verb.Process(sig, sig, &out[i], &out[i + 1]);
ARM GAS  C:\Users\jaude\AppData\Local\Temp\cc5q4WcC.s 			page 15


 262              		.loc 10 25 35 discriminator 2 view .LVU42
 263 0036 28EE000A 		vmul.f32	s0, s16, s0
 264              		.loc 10 26 21 discriminator 2 view .LVU43
 265 003a 2346     		mov	r3, r4
 266 003c 1146     		mov	r1, r2
 267 003e 0B48     		ldr	r0, .L22+12
 268 0040 0096     		str	r6, [sp]
 269              	.LBE114:
  18:reverbsc.cpp  ****     {
 270              		.loc 10 18 25 discriminator 2 view .LVU44
 271 0042 0834     		adds	r4, r4, #8
 272              	.LBB121:
  25:reverbsc.cpp  ****         verb.Process(sig, sig, &out[i], &out[i + 1]);
 273              		.loc 10 25 49 discriminator 2 view .LVU45
 274 0044 8DED030A 		vstr.32	s0, [sp, #12]
 275              		.loc 10 26 9 is_stmt 1 discriminator 2 view .LVU46
 276              		.loc 10 26 21 is_stmt 0 discriminator 2 view .LVU47
 277 0048 FFF7FEFF 		bl	_ZN7daisysp8ReverbSc7ProcessERKfS2_PfS3_
 278              	.LVL11:
 279              	.LBE121:
  18:reverbsc.cpp  ****     {
 280              		.loc 10 18 5 is_stmt 1 discriminator 2 view .LVU48
  18:reverbsc.cpp  ****     {
 281              		.loc 10 18 25 discriminator 2 view .LVU49
 282 004c 6B1C     		adds	r3, r5, #1
 283 004e BD42     		cmp	r5, r7
 284 0050 1D46     		mov	r5, r3
 285              	.LVL12:
  18:reverbsc.cpp  ****     {
 286              		.loc 10 18 25 is_stmt 0 discriminator 2 view .LVU50
 287 0052 DED1     		bne	.L10
 288              	.LBE123:
  27:reverbsc.cpp  ****     }
  28:reverbsc.cpp  **** }
 289              		.loc 10 28 1 view .LVU51
 290 0054 05B0     		add	sp, sp, #20
 291              		.cfi_def_cfa_offset 28
 292              		@ sp needed
 293 0056 BDEC028B 		vldm	sp!, {d8}
 294              		.cfi_restore 80
 295              		.cfi_restore 81
 296              		.cfi_def_cfa_offset 20
 297 005a F0BD     		pop	{r4, r5, r6, r7, pc}
 298              	.LVL13:
 299              	.L19:
 300              		.cfi_def_cfa_offset 0
 301              		.cfi_restore 4
 302              		.cfi_restore 5
 303              		.cfi_restore 6
 304              		.cfi_restore 7
 305              		.cfi_restore 14
 306              		.loc 10 28 1 view .LVU52
 307 005c 7047     		bx	lr
 308              	.L23:
 309 005e 00BF     		.align	2
 310              	.L22:
 311 0060 00000000 		.word	.LANCHOR0
ARM GAS  C:\Users\jaude\AppData\Local\Temp\cc5q4WcC.s 			page 16


 312 0064 00000000 		.word	.LANCHOR1
 313 0068 00000000 		.word	.LANCHOR2
 314 006c 00000000 		.word	verb
 315              		.cfi_endproc
 316              	.LFE4846:
 318              		.section	.text.startup.main,"ax",%progbits
 319              		.align	1
 320              		.p2align 2,,3
 321              		.global	main
 322              		.syntax unified
 323              		.thumb
 324              		.thumb_func
 325              		.fpu fpv5-d16
 327              	main:
 328              	.LFB4847:
  29:reverbsc.cpp  **** 
  30:reverbsc.cpp  **** int main(void)
  31:reverbsc.cpp  **** {
 329              		.loc 10 31 1 is_stmt 1 view -0
 330              		.cfi_startproc
 331              		@ args = 0, pretend = 0, frame = 0
 332              		@ frame_needed = 0, uses_anonymous_args = 0
  32:reverbsc.cpp  ****     // initialize seed hardware and whitenoise daisysp module
  33:reverbsc.cpp  ****     float sample_rate;
 333              		.loc 10 33 5 view .LVU54
  34:reverbsc.cpp  ****     hw.Configure();
 334              		.loc 10 34 5 view .LVU55
  31:reverbsc.cpp  ****     // initialize seed hardware and whitenoise daisysp module
 335              		.loc 10 31 1 is_stmt 0 view .LVU56
 336 0000 70B5     		push	{r4, r5, r6, lr}
 337              		.cfi_def_cfa_offset 16
 338              		.cfi_offset 4, -16
 339              		.cfi_offset 5, -12
 340              		.cfi_offset 6, -8
 341              		.cfi_offset 14, -4
 342              		.loc 10 34 17 view .LVU57
 343 0002 2E48     		ldr	r0, .L27
  35:reverbsc.cpp  ****     hw.Init();
  36:reverbsc.cpp  ****     hw.SetAudioBlockSize(4);
  37:reverbsc.cpp  ****     sample_rate = hw.AudioSampleRate();
  38:reverbsc.cpp  **** 
  39:reverbsc.cpp  ****     //setup reverb
  40:reverbsc.cpp  ****     verb.Init(sample_rate);
 344              		.loc 10 40 14 view .LVU58
 345 0004 2E4E     		ldr	r6, .L27+4
  41:reverbsc.cpp  ****     verb.SetFeedback(0.9f);
  42:reverbsc.cpp  ****     verb.SetLpFreq(18000.0f);
  43:reverbsc.cpp  **** 
  44:reverbsc.cpp  ****     //setup metro
  45:reverbsc.cpp  ****     tick.Init(1.f, sample_rate);
  46:reverbsc.cpp  **** 
  47:reverbsc.cpp  ****     //setup envelope
  48:reverbsc.cpp  ****     env.Init(sample_rate);
 346              		.loc 10 48 13 view .LVU59
 347 0006 2F4D     		ldr	r5, .L27+8
 348              	.LBB144:
 349              	.LBB145:
ARM GAS  C:\Users\jaude\AppData\Local\Temp\cc5q4WcC.s 			page 17


  25:../../../DaisySP/Source/Synthesis/oscillator.h ****     /** Choices for output waveforms, POLYBLEP are appropriately labeled. Others are naive forms.
  26:../../../DaisySP/Source/Synthesis/oscillator.h ****     */
  27:../../../DaisySP/Source/Synthesis/oscillator.h ****     enum
  28:../../../DaisySP/Source/Synthesis/oscillator.h ****     {
  29:../../../DaisySP/Source/Synthesis/oscillator.h ****         WAVE_SIN,
  30:../../../DaisySP/Source/Synthesis/oscillator.h ****         WAVE_TRI,
  31:../../../DaisySP/Source/Synthesis/oscillator.h ****         WAVE_SAW,
  32:../../../DaisySP/Source/Synthesis/oscillator.h ****         WAVE_RAMP,
  33:../../../DaisySP/Source/Synthesis/oscillator.h ****         WAVE_SQUARE,
  34:../../../DaisySP/Source/Synthesis/oscillator.h ****         WAVE_POLYBLEP_TRI,
  35:../../../DaisySP/Source/Synthesis/oscillator.h ****         WAVE_POLYBLEP_SAW,
  36:../../../DaisySP/Source/Synthesis/oscillator.h ****         WAVE_POLYBLEP_SQUARE,
  37:../../../DaisySP/Source/Synthesis/oscillator.h ****         WAVE_LAST,
  38:../../../DaisySP/Source/Synthesis/oscillator.h ****     };
  39:../../../DaisySP/Source/Synthesis/oscillator.h **** 
  40:../../../DaisySP/Source/Synthesis/oscillator.h **** 
  41:../../../DaisySP/Source/Synthesis/oscillator.h ****     /** Initializes the Oscillator
  42:../../../DaisySP/Source/Synthesis/oscillator.h **** 
  43:../../../DaisySP/Source/Synthesis/oscillator.h ****         \param sample_rate - sample rate of the audio engine being run, and the frequency that the 
  44:../../../DaisySP/Source/Synthesis/oscillator.h **** 
  45:../../../DaisySP/Source/Synthesis/oscillator.h ****         Defaults:
  46:../../../DaisySP/Source/Synthesis/oscillator.h ****         - freq_ = 100 Hz
  47:../../../DaisySP/Source/Synthesis/oscillator.h ****         - amp_ = 0.5
  48:../../../DaisySP/Source/Synthesis/oscillator.h ****         - waveform_ = sine wave.
  49:../../../DaisySP/Source/Synthesis/oscillator.h ****     */
  50:../../../DaisySP/Source/Synthesis/oscillator.h ****     void Init(float sample_rate)
  51:../../../DaisySP/Source/Synthesis/oscillator.h ****     {
  52:../../../DaisySP/Source/Synthesis/oscillator.h ****         sr_        = sample_rate;
 350              		.loc 2 52 20 view .LVU60
 351 0008 2F4C     		ldr	r4, .L27+12
 352              	.LBE145:
 353              	.LBE144:
  31:reverbsc.cpp  ****     // initialize seed hardware and whitenoise daisysp module
 354              		.loc 10 31 1 view .LVU61
 355 000a 2DED028B 		vpush.64	{d8}
 356              		.cfi_def_cfa_offset 24
 357              		.cfi_offset 80, -24
 358              		.cfi_offset 81, -20
  34:reverbsc.cpp  ****     hw.Init();
 359              		.loc 10 34 17 view .LVU62
 360 000e FFF7FEFF 		bl	_ZN5daisy9DaisySeed9ConfigureEv
 361              	.LVL14:
  35:reverbsc.cpp  ****     hw.SetAudioBlockSize(4);
 362              		.loc 10 35 5 is_stmt 1 view .LVU63
  35:reverbsc.cpp  ****     hw.SetAudioBlockSize(4);
 363              		.loc 10 35 12 is_stmt 0 view .LVU64
 364 0012 0021     		movs	r1, #0
 365 0014 2948     		ldr	r0, .L27
 366 0016 FFF7FEFF 		bl	_ZN5daisy9DaisySeed4InitEb
 367              	.LVL15:
  36:reverbsc.cpp  ****     sample_rate = hw.AudioSampleRate();
 368              		.loc 10 36 5 is_stmt 1 view .LVU65
  36:reverbsc.cpp  ****     sample_rate = hw.AudioSampleRate();
 369              		.loc 10 36 25 is_stmt 0 view .LVU66
 370 001a 0421     		movs	r1, #4
 371 001c 2748     		ldr	r0, .L27
 372 001e FFF7FEFF 		bl	_ZN5daisy9DaisySeed17SetAudioBlockSizeEj
ARM GAS  C:\Users\jaude\AppData\Local\Temp\cc5q4WcC.s 			page 18


 373              	.LVL16:
  37:reverbsc.cpp  **** 
 374              		.loc 10 37 5 is_stmt 1 view .LVU67
  37:reverbsc.cpp  **** 
 375              		.loc 10 37 37 is_stmt 0 view .LVU68
 376 0022 2648     		ldr	r0, .L27
 377 0024 FFF7FEFF 		bl	_ZN5daisy9DaisySeed15AudioSampleRateEv
 378              	.LVL17:
 379 0028 B0EE408A 		vmov.f32	s16, s0
 380              	.LVL18:
  40:reverbsc.cpp  ****     verb.SetFeedback(0.9f);
 381              		.loc 10 40 5 is_stmt 1 view .LVU69
  40:reverbsc.cpp  ****     verb.SetFeedback(0.9f);
 382              		.loc 10 40 14 is_stmt 0 view .LVU70
 383 002c 3046     		mov	r0, r6
 384 002e FFF7FEFF 		bl	_ZN7daisysp8ReverbSc4InitEf
 385              	.LVL19:
  41:reverbsc.cpp  ****     verb.SetLpFreq(18000.0f);
 386              		.loc 10 41 5 is_stmt 1 view .LVU71
 387              	.LBB150:
 388              	.LBI150:
  39:../../../DaisySP/DaisySP-LGPL/Source/Effects/reverbsc.h ****     /** Initializes the reverb module, and sets the sample_rate at which the Process function will 
  40:../../../DaisySP/DaisySP-LGPL/Source/Effects/reverbsc.h ****         Returns 0 if all good, or 1 if it runs out of delay times exceed maximum allowed.
  41:../../../DaisySP/DaisySP-LGPL/Source/Effects/reverbsc.h ****     */
  42:../../../DaisySP/DaisySP-LGPL/Source/Effects/reverbsc.h ****     int Init(float sample_rate);
  43:../../../DaisySP/DaisySP-LGPL/Source/Effects/reverbsc.h **** 
  44:../../../DaisySP/DaisySP-LGPL/Source/Effects/reverbsc.h ****     /** Process the input through the reverb, and updates values of out1, and out2 with the new pro
  45:../../../DaisySP/DaisySP-LGPL/Source/Effects/reverbsc.h ****     */
  46:../../../DaisySP/DaisySP-LGPL/Source/Effects/reverbsc.h ****     int Process(const float &in1, const float &in2, float *out1, float *out2);
  47:../../../DaisySP/DaisySP-LGPL/Source/Effects/reverbsc.h **** 
  48:../../../DaisySP/DaisySP-LGPL/Source/Effects/reverbsc.h ****     /** controls the reverb time. reverb tail becomes infinite when set to 1.0
  49:../../../DaisySP/DaisySP-LGPL/Source/Effects/reverbsc.h ****         \param fb - sets reverb time. range: 0.0 to 1.0
  50:../../../DaisySP/DaisySP-LGPL/Source/Effects/reverbsc.h ****     */
  51:../../../DaisySP/DaisySP-LGPL/Source/Effects/reverbsc.h ****     inline void SetFeedback(const float &fb) { feedback_ = fb; }
 389              		.loc 4 51 17 view .LVU72
 390              	.LBB151:
 391              		.loc 4 51 48 view .LVU73
 392              		.loc 4 51 58 is_stmt 0 view .LVU74
 393 0032 264A     		ldr	r2, .L27+16
 394              	.LBE151:
 395              	.LBE150:
 396              	.LBB153:
 397              	.LBB154:
  52:../../../DaisySP/DaisySP-LGPL/Source/Effects/reverbsc.h ****     /** controls the internal dampening filter's cutoff frequency.
  53:../../../DaisySP/DaisySP-LGPL/Source/Effects/reverbsc.h ****         \param freq - low pass frequency. range: 0.0 to sample_rate / 2
  54:../../../DaisySP/DaisySP-LGPL/Source/Effects/reverbsc.h ****     */
  55:../../../DaisySP/DaisySP-LGPL/Source/Effects/reverbsc.h ****     inline void SetLpFreq(const float &freq) { lpfreq_ = freq; }
 398              		.loc 4 55 56 view .LVU75
 399 0034 264B     		ldr	r3, .L27+20
 400              	.LBE154:
 401              	.LBE153:
  45:reverbsc.cpp  **** 
 402              		.loc 10 45 14 view .LVU76
 403 0036 F0EE480A 		vmov.f32	s1, s16
 404 003a B7EE000A 		vmov.f32	s0, #1.0e+0
 405 003e 2548     		ldr	r0, .L27+24
 406              	.LBB156:
ARM GAS  C:\Users\jaude\AppData\Local\Temp\cc5q4WcC.s 			page 19


 407              	.LBB152:
  51:../../../DaisySP/DaisySP-LGPL/Source/Effects/reverbsc.h ****     /** controls the internal dampening filter's cutoff frequency.
 408              		.loc 4 51 58 view .LVU77
 409 0040 3260     		str	r2, [r6]	@ float
 410              	.LVL20:
  51:../../../DaisySP/DaisySP-LGPL/Source/Effects/reverbsc.h ****     /** controls the internal dampening filter's cutoff frequency.
 411              		.loc 4 51 58 view .LVU78
 412              	.LBE152:
 413              	.LBE156:
  42:reverbsc.cpp  **** 
 414              		.loc 10 42 5 is_stmt 1 view .LVU79
 415              	.LBB157:
 416              	.LBI153:
 417              		.loc 4 55 17 view .LVU80
 418              	.LBB155:
 419              		.loc 4 55 48 view .LVU81
 420              		.loc 4 55 56 is_stmt 0 view .LVU82
 421 0042 7360     		str	r3, [r6, #4]	@ float
 422              	.LVL21:
 423              		.loc 4 55 56 view .LVU83
 424              	.LBE155:
 425              	.LBE157:
  45:reverbsc.cpp  **** 
 426              		.loc 10 45 5 is_stmt 1 view .LVU84
  45:reverbsc.cpp  **** 
 427              		.loc 10 45 14 is_stmt 0 view .LVU85
 428 0044 FFF7FEFF 		bl	_ZN7daisysp5Metro4InitEff
 429              	.LVL22:
 430              		.loc 10 48 5 is_stmt 1 view .LVU86
 431              		.loc 10 48 13 is_stmt 0 view .LVU87
 432 0048 B0EE480A 		vmov.f32	s0, s16
 433 004c 2846     		mov	r0, r5
 434 004e FFF7FEFF 		bl	_ZN7daisysp5AdEnv4InitEf
 435              	.LVL23:
  49:reverbsc.cpp  ****     env.SetTime(ADENV_SEG_ATTACK, .1f);
 436              		.loc 10 49 5 is_stmt 1 view .LVU88
 437              	.LBB158:
 438              	.LBI158:
  65:../../../DaisySP/Source/Control/adenv.h ****     /** Sets the length of time (in seconds) for a specific segment. */
  66:../../../DaisySP/Source/Control/adenv.h ****     inline void SetTime(uint8_t seg, float time) { segment_time_[seg] = time; }
 439              		.loc 1 66 17 view .LVU89
 440              	.LBB159:
 441              		.loc 1 66 52 view .LVU90
 442              	.LBE159:
 443              	.LBE158:
 444              	.LBB162:
 445              	.LBB163:
  67:../../../DaisySP/Source/Control/adenv.h ****     /** Sets the amount of curve applied. A positve value will create a log
  68:../../../DaisySP/Source/Control/adenv.h ****         curve. Input range: -100 to 100.  (or more)
  69:../../../DaisySP/Source/Control/adenv.h ****     */
  70:../../../DaisySP/Source/Control/adenv.h ****     inline void SetCurve(float scalar) { curve_scalar_ = scalar; }
  71:../../../DaisySP/Source/Control/adenv.h ****     /** Sets the minimum value of the envelope output.
  72:../../../DaisySP/Source/Control/adenv.h ****         Input range: -FLTmax_, to FLTmax_
  73:../../../DaisySP/Source/Control/adenv.h ****     */
  74:../../../DaisySP/Source/Control/adenv.h ****     inline void SetMin(float min) { min_ = min; }
  75:../../../DaisySP/Source/Control/adenv.h ****     /** Sets the maximum value of the envelope output.
  76:../../../DaisySP/Source/Control/adenv.h ****         Input range: -FLTmax_, to FLTmax_
ARM GAS  C:\Users\jaude\AppData\Local\Temp\cc5q4WcC.s 			page 20


  77:../../../DaisySP/Source/Control/adenv.h ****     */
  78:../../../DaisySP/Source/Control/adenv.h ****     inline void SetMax(float max) { max_ = max; }
 446              		.loc 1 78 42 is_stmt 0 view .LVU91
 447 0052 F7EE007A 		vmov.f32	s15, #1.0e+0
 448              	.LBE163:
 449              	.LBE162:
 450              	.LBB165:
 451              	.LBB166:
  74:../../../DaisySP/Source/Control/adenv.h ****     /** Sets the maximum value of the envelope output.
 452              		.loc 1 74 42 view .LVU92
 453 0056 0023     		movs	r3, #0
 454              	.LBE166:
 455              	.LBE165:
 456              	.LBB168:
 457              	.LBB160:
  66:../../../DaisySP/Source/Control/adenv.h ****     /** Sets the amount of curve applied. A positve value will create a log
 458              		.loc 1 66 71 view .LVU93
 459 0058 1F49     		ldr	r1, .L27+28
 460              	.LBE160:
 461              	.LBE168:
 462              	.LBB169:
 463              	.LBB146:
  53:../../../DaisySP/Source/Synthesis/oscillator.h ****         sr_recip_  = 1.0f / sample_rate;
  54:../../../DaisySP/Source/Synthesis/oscillator.h ****         freq_      = 100.0f;
  55:../../../DaisySP/Source/Synthesis/oscillator.h ****         amp_       = 0.5f;
 464              		.loc 2 55 20 view .LVU94
 465 005a 4FF07C52 		mov	r2, #1056964608
  54:../../../DaisySP/Source/Synthesis/oscillator.h ****         amp_       = 0.5f;
 466              		.loc 2 54 20 view .LVU95
 467 005e 9FED1F0A 		vldr.32	s0, .L27+32
  53:../../../DaisySP/Source/Synthesis/oscillator.h ****         sr_recip_  = 1.0f / sample_rate;
 468              		.loc 2 53 27 view .LVU96
 469 0062 87EE887A 		vdiv.f32	s14, s15, s16
  56:../../../DaisySP/Source/Synthesis/oscillator.h ****         pw_        = 0.5f;
  57:../../../DaisySP/Source/Synthesis/oscillator.h ****         phase_     = 0.0f;
  58:../../../DaisySP/Source/Synthesis/oscillator.h ****         phase_inc_ = CalcPhaseInc(freq_);
 470              		.loc 2 58 34 view .LVU97
 471 0066 2046     		mov	r0, r4
 472              	.LBE146:
 473              	.LBE169:
 474              	.LBB170:
 475              	.LBB161:
  66:../../../DaisySP/Source/Control/adenv.h ****     /** Sets the amount of curve applied. A positve value will create a log
 476              		.loc 1 66 71 view .LVU98
 477 0068 A960     		str	r1, [r5, #8]	@ float
 478              	.LVL24:
  66:../../../DaisySP/Source/Control/adenv.h ****     /** Sets the amount of curve applied. A positve value will create a log
 479              		.loc 1 66 71 view .LVU99
 480              	.LBE161:
 481              	.LBE170:
  50:reverbsc.cpp  ****     env.SetTime(ADENV_SEG_DECAY, .1f);
 482              		.loc 10 50 5 is_stmt 1 view .LVU100
 483              	.LBB171:
 484              	.LBI171:
  66:../../../DaisySP/Source/Control/adenv.h ****     /** Sets the amount of curve applied. A positve value will create a log
 485              		.loc 1 66 17 view .LVU101
 486              	.LBB172:
ARM GAS  C:\Users\jaude\AppData\Local\Temp\cc5q4WcC.s 			page 21


  66:../../../DaisySP/Source/Control/adenv.h ****     /** Sets the amount of curve applied. A positve value will create a log
 487              		.loc 1 66 52 view .LVU102
  66:../../../DaisySP/Source/Control/adenv.h ****     /** Sets the amount of curve applied. A positve value will create a log
 488              		.loc 1 66 71 is_stmt 0 view .LVU103
 489 006a E960     		str	r1, [r5, #12]	@ float
 490              	.LVL25:
  66:../../../DaisySP/Source/Control/adenv.h ****     /** Sets the amount of curve applied. A positve value will create a log
 491              		.loc 1 66 71 view .LVU104
 492              	.LBE172:
 493              	.LBE171:
  51:reverbsc.cpp  ****     env.SetMax(1.f);
 494              		.loc 10 51 5 is_stmt 1 view .LVU105
 495              	.LBB173:
 496              	.LBI162:
 497              		.loc 1 78 17 view .LVU106
 498              	.LBB164:
 499              		.loc 1 78 37 view .LVU107
 500              		.loc 1 78 42 is_stmt 0 view .LVU108
 501 006c C5ED067A 		vstr.32	s15, [r5, #24]
 502              	.LVL26:
 503              		.loc 1 78 42 view .LVU109
 504              	.LBE164:
 505              	.LBE173:
  52:reverbsc.cpp  ****     env.SetMin(0.f);
 506              		.loc 10 52 5 is_stmt 1 view .LVU110
 507              	.LBB174:
 508              	.LBI165:
  74:../../../DaisySP/Source/Control/adenv.h ****     /** Sets the maximum value of the envelope output.
 509              		.loc 1 74 17 view .LVU111
 510              	.LBB167:
  74:../../../DaisySP/Source/Control/adenv.h ****     /** Sets the maximum value of the envelope output.
 511              		.loc 1 74 37 view .LVU112
  74:../../../DaisySP/Source/Control/adenv.h ****     /** Sets the maximum value of the envelope output.
 512              		.loc 1 74 42 is_stmt 0 view .LVU113
 513 0070 6B61     		str	r3, [r5, #20]	@ float
 514              	.LVL27:
  74:../../../DaisySP/Source/Control/adenv.h ****     /** Sets the maximum value of the envelope output.
 515              		.loc 1 74 42 view .LVU114
 516              	.LBE167:
 517              	.LBE174:
  53:reverbsc.cpp  ****     env.SetCurve(0.f); //linear
 518              		.loc 10 53 5 is_stmt 1 view .LVU115
 519              	.LBB175:
 520              	.LBI175:
  70:../../../DaisySP/Source/Control/adenv.h ****     /** Sets the minimum value of the envelope output.
 521              		.loc 1 70 17 view .LVU116
 522              	.LBB176:
  70:../../../DaisySP/Source/Control/adenv.h ****     /** Sets the minimum value of the envelope output.
 523              		.loc 1 70 42 view .LVU117
  70:../../../DaisySP/Source/Control/adenv.h ****     /** Sets the minimum value of the envelope output.
 524              		.loc 1 70 56 is_stmt 0 view .LVU118
 525 0072 2B62     		str	r3, [r5, #32]	@ float
 526              	.LVL28:
  70:../../../DaisySP/Source/Control/adenv.h ****     /** Sets the minimum value of the envelope output.
 527              		.loc 1 70 56 view .LVU119
 528              	.LBE176:
 529              	.LBE175:
ARM GAS  C:\Users\jaude\AppData\Local\Temp\cc5q4WcC.s 			page 22


  54:reverbsc.cpp  **** 
  55:reverbsc.cpp  ****     //setup oscillator
  56:reverbsc.cpp  ****     osc.Init(sample_rate);
 530              		.loc 10 56 5 is_stmt 1 view .LVU120
 531              	.LBB177:
 532              	.LBI144:
  50:../../../DaisySP/Source/Synthesis/oscillator.h ****     {
 533              		.loc 2 50 10 view .LVU121
 534              	.LBB147:
  52:../../../DaisySP/Source/Synthesis/oscillator.h ****         sr_recip_  = 1.0f / sample_rate;
 535              		.loc 2 52 9 view .LVU122
  55:../../../DaisySP/Source/Synthesis/oscillator.h ****         pw_        = 0.5f;
 536              		.loc 2 55 20 is_stmt 0 view .LVU123
 537 0074 6260     		str	r2, [r4, #4]	@ float
  56:../../../DaisySP/Source/Synthesis/oscillator.h ****         phase_     = 0.0f;
 538              		.loc 2 56 20 view .LVU124
 539 0076 E260     		str	r2, [r4, #12]	@ float
  57:../../../DaisySP/Source/Synthesis/oscillator.h ****         phase_inc_ = CalcPhaseInc(freq_);
 540              		.loc 2 57 20 view .LVU125
 541 0078 A361     		str	r3, [r4, #24]	@ float
  52:../../../DaisySP/Source/Synthesis/oscillator.h ****         sr_recip_  = 1.0f / sample_rate;
 542              		.loc 2 52 20 view .LVU126
 543 007a 84ED048A 		vstr.32	s16, [r4, #16]
  53:../../../DaisySP/Source/Synthesis/oscillator.h ****         freq_      = 100.0f;
 544              		.loc 2 53 9 is_stmt 1 view .LVU127
  54:../../../DaisySP/Source/Synthesis/oscillator.h ****         amp_       = 0.5f;
 545              		.loc 2 54 20 is_stmt 0 view .LVU128
 546 007e 84ED020A 		vstr.32	s0, [r4, #8]
  53:../../../DaisySP/Source/Synthesis/oscillator.h ****         freq_      = 100.0f;
 547              		.loc 2 53 20 view .LVU129
 548 0082 84ED057A 		vstr.32	s14, [r4, #20]
  54:../../../DaisySP/Source/Synthesis/oscillator.h ****         amp_       = 0.5f;
 549              		.loc 2 54 9 is_stmt 1 view .LVU130
  55:../../../DaisySP/Source/Synthesis/oscillator.h ****         pw_        = 0.5f;
 550              		.loc 2 55 9 view .LVU131
  56:../../../DaisySP/Source/Synthesis/oscillator.h ****         phase_     = 0.0f;
 551              		.loc 2 56 9 view .LVU132
  57:../../../DaisySP/Source/Synthesis/oscillator.h ****         phase_inc_ = CalcPhaseInc(freq_);
 552              		.loc 2 57 9 view .LVU133
 553              		.loc 2 58 9 view .LVU134
 554              		.loc 2 58 34 is_stmt 0 view .LVU135
 555 0086 FFF7FEFF 		bl	_ZN7daisysp10Oscillator12CalcPhaseIncEf
 556              	.LVL29:
 557 008a F0EE407A 		vmov.f32	s15, s0
  59:../../../DaisySP/Source/Synthesis/oscillator.h ****         waveform_  = WAVE_SIN;
  60:../../../DaisySP/Source/Synthesis/oscillator.h ****         eoc_       = true;
  61:../../../DaisySP/Source/Synthesis/oscillator.h ****         eor_       = true;
 558              		.loc 2 61 20 view .LVU136
 559 008e 40F20113 		movw	r3, #257
 560              	.LBE147:
 561              	.LBE177:
 562              	.LBB178:
 563              	.LBB179:
  62:../../../DaisySP/Source/Synthesis/oscillator.h ****     }
  63:../../../DaisySP/Source/Synthesis/oscillator.h **** 
  64:../../../DaisySP/Source/Synthesis/oscillator.h **** 
  65:../../../DaisySP/Source/Synthesis/oscillator.h ****     /** Changes the frequency of the Oscillator, and recalculates phase increment.
ARM GAS  C:\Users\jaude\AppData\Local\Temp\cc5q4WcC.s 			page 23


  66:../../../DaisySP/Source/Synthesis/oscillator.h ****     */
  67:../../../DaisySP/Source/Synthesis/oscillator.h ****     inline void SetFreq(const float f)
  68:../../../DaisySP/Source/Synthesis/oscillator.h ****     {
  69:../../../DaisySP/Source/Synthesis/oscillator.h ****         freq_      = f;
 564              		.loc 2 69 20 view .LVU137
 565 0092 9FED130A 		vldr.32	s0, .L27+36
 566              	.LBE179:
 567              	.LBE178:
 568              	.LBB183:
 569              	.LBB148:
  59:../../../DaisySP/Source/Synthesis/oscillator.h ****         waveform_  = WAVE_SIN;
 570              		.loc 2 59 20 view .LVU138
 571 0096 0022     		movs	r2, #0
 572              	.LBE148:
 573              	.LBE183:
 574              	.LBB184:
 575              	.LBB180:
  70:../../../DaisySP/Source/Synthesis/oscillator.h ****         phase_inc_ = CalcPhaseInc(f);
 576              		.loc 2 70 34 view .LVU139
 577 0098 2046     		mov	r0, r4
 578              	.LBE180:
 579              	.LBE184:
 580              	.LBB185:
 581              	.LBB149:
  61:../../../DaisySP/Source/Synthesis/oscillator.h ****     }
 582              		.loc 2 61 20 view .LVU140
 583 009a 2385     		strh	r3, [r4, #40]	@ movhi
  58:../../../DaisySP/Source/Synthesis/oscillator.h ****         waveform_  = WAVE_SIN;
 584              		.loc 2 58 20 view .LVU141
 585 009c C4ED077A 		vstr.32	s15, [r4, #28]
  59:../../../DaisySP/Source/Synthesis/oscillator.h ****         eoc_       = true;
 586              		.loc 2 59 9 is_stmt 1 view .LVU142
  59:../../../DaisySP/Source/Synthesis/oscillator.h ****         eoc_       = true;
 587              		.loc 2 59 20 is_stmt 0 view .LVU143
 588 00a0 2270     		strb	r2, [r4]
  60:../../../DaisySP/Source/Synthesis/oscillator.h ****         eor_       = true;
 589              		.loc 2 60 9 is_stmt 1 view .LVU144
  61:../../../DaisySP/Source/Synthesis/oscillator.h ****     }
 590              		.loc 2 61 9 view .LVU145
 591              	.LVL30:
  61:../../../DaisySP/Source/Synthesis/oscillator.h ****     }
 592              		.loc 2 61 9 is_stmt 0 view .LVU146
 593              	.LBE149:
 594              	.LBE185:
  57:reverbsc.cpp  ****     osc.SetFreq(440.f);
 595              		.loc 10 57 5 is_stmt 1 view .LVU147
 596              	.LBB186:
 597              	.LBI178:
  67:../../../DaisySP/Source/Synthesis/oscillator.h ****     {
 598              		.loc 2 67 17 view .LVU148
 599              	.LBB181:
  69:../../../DaisySP/Source/Synthesis/oscillator.h ****         phase_inc_ = CalcPhaseInc(f);
 600              		.loc 2 69 9 view .LVU149
  69:../../../DaisySP/Source/Synthesis/oscillator.h ****         phase_inc_ = CalcPhaseInc(f);
 601              		.loc 2 69 20 is_stmt 0 view .LVU150
 602 00a2 84ED020A 		vstr.32	s0, [r4, #8]
 603              		.loc 2 70 9 is_stmt 1 view .LVU151
ARM GAS  C:\Users\jaude\AppData\Local\Temp\cc5q4WcC.s 			page 24


 604              		.loc 2 70 34 is_stmt 0 view .LVU152
 605 00a6 FFF7FEFF 		bl	_ZN7daisysp10Oscillator12CalcPhaseIncEf
 606              	.LVL31:
 607              	.LBE181:
 608              	.LBE186:
 609              	.LBB187:
 610              	.LBB188:
  71:../../../DaisySP/Source/Synthesis/oscillator.h ****     }
  72:../../../DaisySP/Source/Synthesis/oscillator.h **** 
  73:../../../DaisySP/Source/Synthesis/oscillator.h **** 
  74:../../../DaisySP/Source/Synthesis/oscillator.h ****     /** Sets the amplitude of the waveform.
  75:../../../DaisySP/Source/Synthesis/oscillator.h ****     */
  76:../../../DaisySP/Source/Synthesis/oscillator.h ****     inline void SetAmp(const float a) { amp_ = a; }
  77:../../../DaisySP/Source/Synthesis/oscillator.h ****     /** Sets the waveform to be synthesized by the Process() function.
  78:../../../DaisySP/Source/Synthesis/oscillator.h ****     */
  79:../../../DaisySP/Source/Synthesis/oscillator.h ****     inline void SetWaveform(const uint8_t wf)
  80:../../../DaisySP/Source/Synthesis/oscillator.h ****     {
  81:../../../DaisySP/Source/Synthesis/oscillator.h ****         waveform_ = wf < WAVE_LAST ? wf : WAVE_SIN;
 611              		.loc 2 81 19 view .LVU153
 612 00aa 0123     		movs	r3, #1
 613              	.LBE188:
 614              	.LBE187:
  58:reverbsc.cpp  ****     osc.SetWaveform(Oscillator::WAVE_TRI);
  59:reverbsc.cpp  **** 
  60:reverbsc.cpp  ****     // start callback
  61:reverbsc.cpp  ****     hw.StartAudio(AudioCallback);
 615              		.loc 10 61 18 view .LVU154
 616 00ac 0D49     		ldr	r1, .L27+40
 617 00ae 0348     		ldr	r0, .L27
 618              	.LBB190:
 619              	.LBB182:
  70:../../../DaisySP/Source/Synthesis/oscillator.h ****     }
 620              		.loc 2 70 20 view .LVU155
 621 00b0 84ED070A 		vstr.32	s0, [r4, #28]
 622              	.LVL32:
  70:../../../DaisySP/Source/Synthesis/oscillator.h ****     }
 623              		.loc 2 70 20 view .LVU156
 624              	.LBE182:
 625              	.LBE190:
  58:reverbsc.cpp  ****     osc.SetWaveform(Oscillator::WAVE_TRI);
 626              		.loc 10 58 5 is_stmt 1 view .LVU157
 627              	.LBB191:
 628              	.LBI187:
  79:../../../DaisySP/Source/Synthesis/oscillator.h ****     {
 629              		.loc 2 79 17 view .LVU158
 630              	.LBB189:
 631              		.loc 2 81 9 view .LVU159
 632              		.loc 2 81 19 is_stmt 0 view .LVU160
 633 00b4 2370     		strb	r3, [r4]
 634              	.LVL33:
 635              		.loc 2 81 19 view .LVU161
 636              	.LBE189:
 637              	.LBE191:
 638              		.loc 10 61 5 is_stmt 1 view .LVU162
 639              		.loc 10 61 18 is_stmt 0 view .LVU163
 640 00b6 FFF7FEFF 		bl	_ZN5daisy9DaisySeed10StartAudioEPFvPKfPfjE
 641              	.LVL34:
ARM GAS  C:\Users\jaude\AppData\Local\Temp\cc5q4WcC.s 			page 25


 642              	.L25:
  62:reverbsc.cpp  ****     while(1) {}
 643              		.loc 10 62 5 is_stmt 1 discriminator 1 view .LVU164
 644              		.loc 10 62 5 discriminator 1 view .LVU165
 645              		.loc 10 62 5 discriminator 1 view .LVU166
 646              		.loc 10 62 5 discriminator 1 view .LVU167
 647 00ba FEE7     		b	.L25
 648              	.L28:
 649              		.align	2
 650              	.L27:
 651 00bc 00000000 		.word	.LANCHOR3
 652 00c0 00000000 		.word	verb
 653 00c4 00000000 		.word	.LANCHOR1
 654 00c8 00000000 		.word	.LANCHOR2
 655 00cc 6666663F 		.word	1063675494
 656 00d0 00A08C46 		.word	1183621120
 657 00d4 00000000 		.word	.LANCHOR0
 658 00d8 CDCCCC3D 		.word	1036831949
 659 00dc 0000C842 		.word	1120403456
 660 00e0 0000DC43 		.word	1138491392
 661 00e4 00000000 		.word	_ZL13AudioCallbackPKfPfj
 662              		.cfi_endproc
 663              	.LFE4847:
 665              		.section	.text.startup._GLOBAL__sub_I_verb,"ax",%progbits
 666              		.align	1
 667              		.p2align 2,,3
 668              		.syntax unified
 669              		.thumb
 670              		.thumb_func
 671              		.fpu fpv5-d16
 673              	_GLOBAL__sub_I_verb:
 674              	.LFB5410:
  63:reverbsc.cpp  **** }
 675              		.loc 10 63 1 view -0
 676              		.cfi_startproc
 677              		@ args = 0, pretend = 0, frame = 0
 678              		@ frame_needed = 0, uses_anonymous_args = 0
 679              	.LBB221:
 680              	.LBI221:
 681              		.loc 10 63 1 view .LVU169
 682              	.LVL35:
 683              	.LBB222:
 684              	.LBB223:
 685              	.LBI223:
  21:../../../libDaisy/src/daisy_seed.h ****     ~DaisySeed() {}
 686              		.loc 5 21 5 view .LVU170
 687              	.LBB224:
 688              	.LBB225:
 689              	.LBI225:
 690              		.file 11 "../../../libDaisy/src/per/qspi.h"
   1:../../../libDaisy/src/per/qspi.h **** #ifndef DSY_QSPI
   2:../../../libDaisy/src/per/qspi.h **** #define DSY_QSPI /**< Macro */
   3:../../../libDaisy/src/per/qspi.h **** 
   4:../../../libDaisy/src/per/qspi.h **** #ifndef UNIT_TEST // for unit tests, a dummy implementation
   5:../../../libDaisy/src/per/qspi.h **** 
   6:../../../libDaisy/src/per/qspi.h **** #include <cstdint>
   7:../../../libDaisy/src/per/qspi.h **** #include "daisy_core.h" // Added for dsy_gpio_pin typedef
ARM GAS  C:\Users\jaude\AppData\Local\Temp\cc5q4WcC.s 			page 26


   8:../../../libDaisy/src/per/qspi.h **** 
   9:../../../libDaisy/src/per/qspi.h **** #define DSY_QSPI_TEXT       \
  10:../../../libDaisy/src/per/qspi.h ****     __attribute__((section( \
  11:../../../libDaisy/src/per/qspi.h ****         ".qspiflash_text"))) /**< used for reading memory in memory_mapped mode. */
  12:../../../libDaisy/src/per/qspi.h **** #define DSY_QSPI_DATA       \
  13:../../../libDaisy/src/per/qspi.h ****     __attribute__((section( \
  14:../../../libDaisy/src/per/qspi.h ****         ".qspiflash_data"))) /**< used for reading memory in memory_mapped mode. */
  15:../../../libDaisy/src/per/qspi.h **** #define DSY_QSPI_BSS        \
  16:../../../libDaisy/src/per/qspi.h ****     __attribute__((section( \
  17:../../../libDaisy/src/per/qspi.h ****         ".qspiflash_bss"))) /**< used for reading memory in memory_mapped mode. */
  18:../../../libDaisy/src/per/qspi.h **** 
  19:../../../libDaisy/src/per/qspi.h **** namespace daisy
  20:../../../libDaisy/src/per/qspi.h **** {
  21:../../../libDaisy/src/per/qspi.h **** /** @addtogroup serial
  22:../../../libDaisy/src/per/qspi.h **** @{
  23:../../../libDaisy/src/per/qspi.h **** */
  24:../../../libDaisy/src/per/qspi.h **** 
  25:../../../libDaisy/src/per/qspi.h **** /** 
  26:../../../libDaisy/src/per/qspi.h ****  Driver for QSPI peripheral to interface with external flash memory. \n 
  27:../../../libDaisy/src/per/qspi.h ****     Currently supported QSPI Devices: \n 
  28:../../../libDaisy/src/per/qspi.h ****     * IS25LP080D
  29:../../../libDaisy/src/per/qspi.h **** */
  30:../../../libDaisy/src/per/qspi.h **** class QSPIHandle
  31:../../../libDaisy/src/per/qspi.h **** {
  32:../../../libDaisy/src/per/qspi.h ****   public:
  33:../../../libDaisy/src/per/qspi.h ****     enum Result
  34:../../../libDaisy/src/per/qspi.h ****     {
  35:../../../libDaisy/src/per/qspi.h ****         OK = 0,
  36:../../../libDaisy/src/per/qspi.h ****         ERR
  37:../../../libDaisy/src/per/qspi.h ****     };
  38:../../../libDaisy/src/per/qspi.h **** 
  39:../../../libDaisy/src/per/qspi.h ****     /** Indicates the current status of the module. 
  40:../../../libDaisy/src/per/qspi.h ****          *  Warnings are indicated by a leading W.
  41:../../../libDaisy/src/per/qspi.h ****          *  Errors are indicated by a leading E and cause an immediate exit.
  42:../../../libDaisy/src/per/qspi.h ****          * 
  43:../../../libDaisy/src/per/qspi.h ****          *  \param GOOD - No errors have been reported.
  44:../../../libDaisy/src/per/qspi.h ****          *  \param E_HAL_ERROR - HAL code did not return HAL_OK.
  45:../../../libDaisy/src/per/qspi.h ****          *  \param E_SWITCHING_MODES - An error was encountered while switching QSPI peripheral mod
  46:../../../libDaisy/src/per/qspi.h ****          *  \param E_INVALID_MODE - QSPI should not be written to while the program is executing fr
  47:../../../libDaisy/src/per/qspi.h ****          */
  48:../../../libDaisy/src/per/qspi.h ****     enum Status
  49:../../../libDaisy/src/per/qspi.h ****     {
  50:../../../libDaisy/src/per/qspi.h ****         GOOD = 0,
  51:../../../libDaisy/src/per/qspi.h ****         E_HAL_ERROR,
  52:../../../libDaisy/src/per/qspi.h ****         E_SWITCHING_MODES,
  53:../../../libDaisy/src/per/qspi.h ****         E_INVALID_MODE,
  54:../../../libDaisy/src/per/qspi.h ****     };
  55:../../../libDaisy/src/per/qspi.h **** 
  56:../../../libDaisy/src/per/qspi.h ****     /** Configuration structure for interfacing with QSPI Driver */
  57:../../../libDaisy/src/per/qspi.h ****     struct Config
  58:../../../libDaisy/src/per/qspi.h ****     {
  59:../../../libDaisy/src/per/qspi.h ****         /** Flash Devices supported. (Both of these are more-or-less the same, just different sizes
  60:../../../libDaisy/src/per/qspi.h ****         enum Device
  61:../../../libDaisy/src/per/qspi.h ****         {
  62:../../../libDaisy/src/per/qspi.h ****             IS25LP080D,  /**< & */
  63:../../../libDaisy/src/per/qspi.h ****             IS25LP064A,  /**< & */
  64:../../../libDaisy/src/per/qspi.h ****             DEVICE_LAST, /**< & */
ARM GAS  C:\Users\jaude\AppData\Local\Temp\cc5q4WcC.s 			page 27


  65:../../../libDaisy/src/per/qspi.h ****         };
  66:../../../libDaisy/src/per/qspi.h **** 
  67:../../../libDaisy/src/per/qspi.h ****         /** 
  68:../../../libDaisy/src/per/qspi.h ****         Modes of operation.
  69:../../../libDaisy/src/per/qspi.h ****         Memory Mapped mode: QSPI configured so that the QSPI can be
  70:../../../libDaisy/src/per/qspi.h ****         read from starting address 0x90000000. Writing is not
  71:../../../libDaisy/src/per/qspi.h ****         possible in this mode. \n 
  72:../../../libDaisy/src/per/qspi.h ****         Indirect Polling mode: Device driver enabled. 
  73:../../../libDaisy/src/per/qspi.h ****         */
  74:../../../libDaisy/src/per/qspi.h ****         enum Mode
  75:../../../libDaisy/src/per/qspi.h ****         {
  76:../../../libDaisy/src/per/qspi.h ****             MEMORY_MAPPED,    /**< & */
  77:../../../libDaisy/src/per/qspi.h ****             INDIRECT_POLLING, /**< & */
  78:../../../libDaisy/src/per/qspi.h ****             MODE_LAST,
  79:../../../libDaisy/src/per/qspi.h ****         };
  80:../../../libDaisy/src/per/qspi.h **** 
  81:../../../libDaisy/src/per/qspi.h ****         //SCK,  CE# (active low)
  82:../../../libDaisy/src/per/qspi.h ****         struct
  83:../../../libDaisy/src/per/qspi.h ****         {
  84:../../../libDaisy/src/per/qspi.h ****             dsy_gpio_pin io0; /**< & */
  85:../../../libDaisy/src/per/qspi.h ****             dsy_gpio_pin io1; /**< & */
  86:../../../libDaisy/src/per/qspi.h ****             dsy_gpio_pin io2; /**< & */
  87:../../../libDaisy/src/per/qspi.h ****             dsy_gpio_pin io3; /**< & */
  88:../../../libDaisy/src/per/qspi.h ****             dsy_gpio_pin clk; /**< & */
  89:../../../libDaisy/src/per/qspi.h ****             dsy_gpio_pin ncs; /**< & */
  90:../../../libDaisy/src/per/qspi.h ****         } pin_config;
  91:../../../libDaisy/src/per/qspi.h **** 
  92:../../../libDaisy/src/per/qspi.h ****         Device device;
  93:../../../libDaisy/src/per/qspi.h ****         Mode   mode;
  94:../../../libDaisy/src/per/qspi.h ****     };
  95:../../../libDaisy/src/per/qspi.h **** 
  96:../../../libDaisy/src/per/qspi.h ****     /** 
  97:../../../libDaisy/src/per/qspi.h ****         Initializes QSPI peripheral, and Resets, and prepares memory for access.
  98:../../../libDaisy/src/per/qspi.h ****         \param config should be populated with the mode, device and pin_config before calling this 
  99:../../../libDaisy/src/per/qspi.h ****         \return Result::OK or Result::ERR
 100:../../../libDaisy/src/per/qspi.h ****         */
 101:../../../libDaisy/src/per/qspi.h ****     Result Init(const Config& config);
 102:../../../libDaisy/src/per/qspi.h **** 
 103:../../../libDaisy/src/per/qspi.h ****     /** Returns the current config. */
 104:../../../libDaisy/src/per/qspi.h ****     const Config& GetConfig() const;
 105:../../../libDaisy/src/per/qspi.h **** 
 106:../../../libDaisy/src/per/qspi.h ****     // Couldn't this just be called before anything else in init? That
 107:../../../libDaisy/src/per/qspi.h ****     // would make manually calling it unnecessary.
 108:../../../libDaisy/src/per/qspi.h ****     /** 
 109:../../../libDaisy/src/per/qspi.h ****         Deinitializes the peripheral
 110:../../../libDaisy/src/per/qspi.h ****         This should be called before reinitializing QSPI in a different mode.
 111:../../../libDaisy/src/per/qspi.h ****         \return Result::OK or Result::ERR
 112:../../../libDaisy/src/per/qspi.h ****         */
 113:../../../libDaisy/src/per/qspi.h ****     Result DeInit();
 114:../../../libDaisy/src/per/qspi.h **** 
 115:../../../libDaisy/src/per/qspi.h ****     /** 
 116:../../../libDaisy/src/per/qspi.h ****         Writes a single page to to the specified address on the QSPI chip.
 117:../../../libDaisy/src/per/qspi.h ****         For IS25LP*, page size is 256 bytes.
 118:../../../libDaisy/src/per/qspi.h ****         \param address Address to write to
 119:../../../libDaisy/src/per/qspi.h ****         \param size Buffer size
 120:../../../libDaisy/src/per/qspi.h ****         \param buffer Buffer to write
 121:../../../libDaisy/src/per/qspi.h ****         \return Result::OK or Result::ERR
ARM GAS  C:\Users\jaude\AppData\Local\Temp\cc5q4WcC.s 			page 28


 122:../../../libDaisy/src/per/qspi.h ****         */
 123:../../../libDaisy/src/per/qspi.h ****     Result WritePage(uint32_t address, uint32_t size, uint8_t* buffer);
 124:../../../libDaisy/src/per/qspi.h **** 
 125:../../../libDaisy/src/per/qspi.h ****     /** 
 126:../../../libDaisy/src/per/qspi.h ****         Writes data in buffer to to the QSPI. Starting at address to address+size 
 127:../../../libDaisy/src/per/qspi.h ****         \param address Address to write to
 128:../../../libDaisy/src/per/qspi.h ****         \param size Buffer size
 129:../../../libDaisy/src/per/qspi.h ****         \param buffer Buffer to write
 130:../../../libDaisy/src/per/qspi.h ****         \return Result::OK or Result::ERR
 131:../../../libDaisy/src/per/qspi.h ****         */
 132:../../../libDaisy/src/per/qspi.h ****     Result Write(uint32_t address, uint32_t size, uint8_t* buffer);
 133:../../../libDaisy/src/per/qspi.h **** 
 134:../../../libDaisy/src/per/qspi.h ****     /** 
 135:../../../libDaisy/src/per/qspi.h ****         Erases the area specified on the chip.
 136:../../../libDaisy/src/per/qspi.h ****         Erasures will happen by 4K, 32K or 64K increments.
 137:../../../libDaisy/src/per/qspi.h ****         Smallest erase possible is 4kB at a time. (on IS25LP*)
 138:../../../libDaisy/src/per/qspi.h ****         \param start_addr Address to begin erasing from
 139:../../../libDaisy/src/per/qspi.h ****         \param end_addr  Address to stop erasing at
 140:../../../libDaisy/src/per/qspi.h ****         \return Result::OK or Result::ERR
 141:../../../libDaisy/src/per/qspi.h ****         */
 142:../../../libDaisy/src/per/qspi.h ****     Result Erase(uint32_t start_addr, uint32_t end_addr);
 143:../../../libDaisy/src/per/qspi.h **** 
 144:../../../libDaisy/src/per/qspi.h ****     /**  
 145:../../../libDaisy/src/per/qspi.h ****          Erases a single sector of the chip.  
 146:../../../libDaisy/src/per/qspi.h ****         TODO: Document the size of this function. 
 147:../../../libDaisy/src/per/qspi.h ****         \param address Address of sector to erase
 148:../../../libDaisy/src/per/qspi.h ****         \return Result::OK or Result::ERR
 149:../../../libDaisy/src/per/qspi.h ****         */
 150:../../../libDaisy/src/per/qspi.h ****     Result EraseSector(uint32_t address);
 151:../../../libDaisy/src/per/qspi.h **** 
 152:../../../libDaisy/src/per/qspi.h ****     /** Returns the current class status. Useful for debugging.
 153:../../../libDaisy/src/per/qspi.h ****      *  \returns Status
 154:../../../libDaisy/src/per/qspi.h ****      */
 155:../../../libDaisy/src/per/qspi.h ****     Status GetStatus();
 156:../../../libDaisy/src/per/qspi.h **** 
 157:../../../libDaisy/src/per/qspi.h ****     /** Returns a pointer to the actual memory used 
 158:../../../libDaisy/src/per/qspi.h ****      *  The memory at this address is read-only
 159:../../../libDaisy/src/per/qspi.h ****      *  to write to it use the Write function.
 160:../../../libDaisy/src/per/qspi.h ****      * 
 161:../../../libDaisy/src/per/qspi.h ****      *  \param offset returns the pointer starting this 
 162:../../../libDaisy/src/per/qspi.h ****      *                many bytes into the memory
 163:../../../libDaisy/src/per/qspi.h ****     */
 164:../../../libDaisy/src/per/qspi.h ****     void* GetData(uint32_t offset = 0);
 165:../../../libDaisy/src/per/qspi.h **** 
 166:../../../libDaisy/src/per/qspi.h ****     QSPIHandle() : pimpl_(nullptr) {}
 691              		.loc 11 166 5 view .LVU171
 692              	.LBE225:
 693              	.LBE224:
 694              	.LBE223:
 695              	.LBE222:
 696              	.LBE221:
 697              		.loc 10 63 1 is_stmt 0 view .LVU172
 698 0000 08B5     		push	{r3, lr}
 699              		.cfi_def_cfa_offset 8
 700              		.cfi_offset 3, -8
 701              		.cfi_offset 14, -4
 702              	.LBB254:
ARM GAS  C:\Users\jaude\AppData\Local\Temp\cc5q4WcC.s 			page 29


 703              	.LBB252:
 704              	.LBB246:
 705              	.LBB244:
 706              	.LBB230:
 707              	.LBB226:
 708              	.LBB227:
 709              		.loc 11 166 34 view .LVU173
 710 0002 1048     		ldr	r0, .L31
 711 0004 0023     		movs	r3, #0
 712              	.LBE227:
 713              	.LBE226:
 714              	.LBE230:
 715              	.LBE244:
 716              	.LBE246:
   7:reverbsc.cpp  **** 
 717              		.loc 10 7 18 view .LVU174
 718 0006 104A     		ldr	r2, .L31+4
 719              	.LBB247:
 720              	.LBB245:
 721              	.LBB231:
 722              	.LBB229:
 723              	.LBB228:
 724              		.loc 11 166 34 view .LVU175
 725 0008 0360     		str	r3, [r0]
 726              	.LVL36:
 727              		.loc 11 166 34 view .LVU176
 728              	.LBE228:
 729              	.LBE229:
 730              	.LBE231:
 731              	.LBB232:
 732              	.LBI232:
  95:../../../libDaisy/src/hid/audio.h ****     ~AudioHandle() {}
 733              		.loc 9 95 5 is_stmt 1 view .LVU177
 734              	.LBB233:
 735              	.LBB234:
  95:../../../libDaisy/src/hid/audio.h ****     ~AudioHandle() {}
 736              		.loc 9 95 35 is_stmt 0 view .LVU178
 737 000a 4361     		str	r3, [r0, #20]
 738              	.LVL37:
  95:../../../libDaisy/src/hid/audio.h ****     ~AudioHandle() {}
 739              		.loc 9 95 35 view .LVU179
 740              	.LBE234:
 741              	.LBE233:
 742              	.LBE232:
 743              	.LBB235:
 744              	.LBI235:
 109:../../../libDaisy/src/per/adc.h ****     ~AdcHandle() {}
 745              		.loc 8 109 5 is_stmt 1 view .LVU180
 109:../../../libDaisy/src/per/adc.h ****     ~AdcHandle() {}
 746              		.loc 8 109 5 is_stmt 0 view .LVU181
 747              	.LBE235:
 748              	.LBB236:
 749              	.LBI236:
 750              		.file 12 "../../../libDaisy/src/per/dac.h"
   1:../../../libDaisy/src/per/dac.h **** #pragma once
   2:../../../libDaisy/src/per/dac.h **** #ifndef DSY_DAC_H
   3:../../../libDaisy/src/per/dac.h **** #define DSY_DAC_H
ARM GAS  C:\Users\jaude\AppData\Local\Temp\cc5q4WcC.s 			page 30


   4:../../../libDaisy/src/per/dac.h **** 
   5:../../../libDaisy/src/per/dac.h **** #include "daisy_core.h"
   6:../../../libDaisy/src/per/dac.h **** 
   7:../../../libDaisy/src/per/dac.h **** namespace daisy
   8:../../../libDaisy/src/per/dac.h **** {
   9:../../../libDaisy/src/per/dac.h **** /** @brief DAC handle for Built-in DAC Peripheral 
  10:../../../libDaisy/src/per/dac.h ****  *  @ingroup per_analog
  11:../../../libDaisy/src/per/dac.h ****  ** 
  12:../../../libDaisy/src/per/dac.h ****  ** For now only Normal Mode is supported,
  13:../../../libDaisy/src/per/dac.h ****  ** Sample and hold mode provides reduced power consumption, but requires a bit more setup.
  14:../../../libDaisy/src/per/dac.h ****  **
  15:../../../libDaisy/src/per/dac.h ****  ** For now connecting the DAC through other internal peripherals is also not supported.
  16:../../../libDaisy/src/per/dac.h ****  **
  17:../../../libDaisy/src/per/dac.h ****  ** Since the DAC channels have dedicated pins we don't need to pass in a pin config like with
  18:../../../libDaisy/src/per/dac.h ****  ** other modules. However, it is still important to not try to use the DAC pins for anything else.
  19:../../../libDaisy/src/per/dac.h ****  ** DAC Channel 1 is on PA4, and DAC Channel 2 is on PA5
  20:../../../libDaisy/src/per/dac.h ****  ***/
  21:../../../libDaisy/src/per/dac.h **** class DacHandle
  22:../../../libDaisy/src/per/dac.h **** {
  23:../../../libDaisy/src/per/dac.h ****   public:
  24:../../../libDaisy/src/per/dac.h ****     /** Return Values for the DacHandle class */
  25:../../../libDaisy/src/per/dac.h ****     enum class Result
  26:../../../libDaisy/src/per/dac.h ****     {
  27:../../../libDaisy/src/per/dac.h ****         OK,
  28:../../../libDaisy/src/per/dac.h ****         ERR,
  29:../../../libDaisy/src/per/dac.h ****     };
  30:../../../libDaisy/src/per/dac.h **** 
  31:../../../libDaisy/src/per/dac.h ****     /** Selects which channel(s) will be configured for use. */
  32:../../../libDaisy/src/per/dac.h ****     enum class Channel
  33:../../../libDaisy/src/per/dac.h ****     {
  34:../../../libDaisy/src/per/dac.h ****         ONE,
  35:../../../libDaisy/src/per/dac.h ****         TWO,
  36:../../../libDaisy/src/per/dac.h ****         BOTH,
  37:../../../libDaisy/src/per/dac.h ****     };
  38:../../../libDaisy/src/per/dac.h **** 
  39:../../../libDaisy/src/per/dac.h ****     /** Sets the Mode for the DAC channels.
  40:../../../libDaisy/src/per/dac.h ****      **
  41:../../../libDaisy/src/per/dac.h ****      ** Polling mode uses the blocking mode to transmit a single value at a time.
  42:../../../libDaisy/src/per/dac.h ****      **
  43:../../../libDaisy/src/per/dac.h ****      ** DMA mode uses a buffer, and periodically transmits it triggering a 
  44:../../../libDaisy/src/per/dac.h ****      ** callback to fill the buffer when it is ready for more samples.
  45:../../../libDaisy/src/per/dac.h ****      ***/
  46:../../../libDaisy/src/per/dac.h ****     enum class Mode
  47:../../../libDaisy/src/per/dac.h ****     {
  48:../../../libDaisy/src/per/dac.h ****         POLLING,
  49:../../../libDaisy/src/per/dac.h ****         DMA,
  50:../../../libDaisy/src/per/dac.h ****     };
  51:../../../libDaisy/src/per/dac.h **** 
  52:../../../libDaisy/src/per/dac.h ****     /** Sets the number of bits per sample transmitted out of the DAC.
  53:../../../libDaisy/src/per/dac.h ****      ** The output range will be: 0V - VDDA
  54:../../../libDaisy/src/per/dac.h ****      ** The resolution will be roughly: bitdepth / (VDDA - 0V) 
  55:../../../libDaisy/src/per/dac.h ****      ***/
  56:../../../libDaisy/src/per/dac.h ****     enum class BitDepth
  57:../../../libDaisy/src/per/dac.h ****     {
  58:../../../libDaisy/src/per/dac.h ****         BITS_8,
  59:../../../libDaisy/src/per/dac.h ****         BITS_12
  60:../../../libDaisy/src/per/dac.h ****     };
ARM GAS  C:\Users\jaude\AppData\Local\Temp\cc5q4WcC.s 			page 31


  61:../../../libDaisy/src/per/dac.h **** 
  62:../../../libDaisy/src/per/dac.h ****     /** Sets whether the DAC output is buffered for higher drive ability. */
  63:../../../libDaisy/src/per/dac.h ****     enum class BufferState
  64:../../../libDaisy/src/per/dac.h ****     {
  65:../../../libDaisy/src/per/dac.h ****         ENABLED,
  66:../../../libDaisy/src/per/dac.h ****         DISABLED,
  67:../../../libDaisy/src/per/dac.h ****     };
  68:../../../libDaisy/src/per/dac.h **** 
  69:../../../libDaisy/src/per/dac.h ****     /** Configuration structure for initializing the DAC structure. */
  70:../../../libDaisy/src/per/dac.h ****     struct Config
  71:../../../libDaisy/src/per/dac.h ****     {
  72:../../../libDaisy/src/per/dac.h ****         /** Target Samplerate in Hz used to configure the internal 
  73:../../../libDaisy/src/per/dac.h ****          ** timebase for DMA mode. Does nothing in POLLING mode.
  74:../../../libDaisy/src/per/dac.h ****          ** If the value is 0 at Init time this will default to 48000Hz 
  75:../../../libDaisy/src/per/dac.h ****          ** otherwise the driver will attempt meet the target.*/
  76:../../../libDaisy/src/per/dac.h ****         uint32_t target_samplerate;
  77:../../../libDaisy/src/per/dac.h **** 
  78:../../../libDaisy/src/per/dac.h ****         Channel     chn;
  79:../../../libDaisy/src/per/dac.h ****         Mode        mode;
  80:../../../libDaisy/src/per/dac.h ****         BitDepth    bitdepth;
  81:../../../libDaisy/src/per/dac.h ****         BufferState buff_state;
  82:../../../libDaisy/src/per/dac.h ****     };
  83:../../../libDaisy/src/per/dac.h **** 
  84:../../../libDaisy/src/per/dac.h ****     DacHandle() : pimpl_(nullptr) {}
 751              		.loc 12 84 5 is_stmt 1 view .LVU182
 752              	.LBB237:
 753              	.LBB238:
 754              		.loc 12 84 33 is_stmt 0 view .LVU183
 755 000c 0362     		str	r3, [r0, #32]
 756              	.LVL38:
 757              		.loc 12 84 33 view .LVU184
 758              	.LBE238:
 759              	.LBE237:
 760              	.LBE236:
 761              	.LBB239:
 762              	.LBI239:
  40:../../../libDaisy/src/hid/usb.h **** 
 763              		.loc 7 40 5 is_stmt 1 view .LVU185
  40:../../../libDaisy/src/hid/usb.h **** 
 764              		.loc 7 40 5 is_stmt 0 view .LVU186
 765              	.LBE239:
 766              	.LBB240:
 767              	.LBI240:
  96:../../../libDaisy/src/sys/system.h ****     ~System() {}
 768              		.loc 6 96 5 is_stmt 1 view .LVU187
  96:../../../libDaisy/src/sys/system.h ****     ~System() {}
 769              		.loc 6 96 5 is_stmt 0 view .LVU188
 770              	.LBE240:
 771              	.LBB241:
 772              	.LBI241:
 773              		.file 13 "../../../libDaisy/src/per/sai.h"
   1:../../../libDaisy/src/per/sai.h **** #pragma once
   2:../../../libDaisy/src/per/sai.h **** #ifndef DSY_SAI_H
   3:../../../libDaisy/src/per/sai.h **** #define DSY_SAI_H
   4:../../../libDaisy/src/per/sai.h **** 
   5:../../../libDaisy/src/per/sai.h **** #include "daisy_core.h"
   6:../../../libDaisy/src/per/sai.h **** 
ARM GAS  C:\Users\jaude\AppData\Local\Temp\cc5q4WcC.s 			page 32


   7:../../../libDaisy/src/per/sai.h **** namespace daisy
   8:../../../libDaisy/src/per/sai.h **** {
   9:../../../libDaisy/src/per/sai.h **** /** 
  10:../../../libDaisy/src/per/sai.h ****  * Support for I2S Audio Protocol with different bit-depth, samplerate options
  11:../../../libDaisy/src/per/sai.h ****  * Allows for master or slave, as well as freedom of selecting direction, 
  12:../../../libDaisy/src/per/sai.h ****  * and other behavior for each peripheral, and block.
  13:../../../libDaisy/src/per/sai.h ****  * 
  14:../../../libDaisy/src/per/sai.h ****  * DMA Transfer commands must use buffers located within non-cached memory or use cache maintenance
  15:../../../libDaisy/src/per/sai.h ****  * To declare an unitialized global element in the DMA memory section:
  16:../../../libDaisy/src/per/sai.h ****  *    int32_t DSY_DMA_BUFFER_SECTOR my_buffer[96];
  17:../../../libDaisy/src/per/sai.h ****  *
  18:../../../libDaisy/src/per/sai.h ****  * Callback functions will be called once per half of the buffer. In the above example, 
  19:../../../libDaisy/src/per/sai.h ****  * the callback function would be called once for every 48 samples.
  20:../../../libDaisy/src/per/sai.h ****  * 
  21:../../../libDaisy/src/per/sai.h ****  * Use SAI Handle like this:
  22:../../../libDaisy/src/per/sai.h ****  * 
  23:../../../libDaisy/src/per/sai.h ****  *  SaiHandle::Config sai_config;
  24:../../../libDaisy/src/per/sai.h ****  *  sai_config.periph          = SaiHandle::Config::Peripheral::SAI_1;
  25:../../../libDaisy/src/per/sai.h ****  *  sai_config.sr              = SaiHandle::Config::SampleRate::SAI_48KHZ;
  26:../../../libDaisy/src/per/sai.h ****  *  sai_config.bit_depth       = SaiHandle::Config::BitDepth::SAI_24BIT;
  27:../../../libDaisy/src/per/sai.h ****  *  sai_config.a_sync          = SaiHandle::Config::Sync::MASTER;
  28:../../../libDaisy/src/per/sai.h ****  *  sai_config.b_sync          = SaiHandle::Config::Sync::SLAVE;
  29:../../../libDaisy/src/per/sai.h ****  *  sai_config.a_dir           = SaiHandle::Config::Direction::RECEIVE;
  30:../../../libDaisy/src/per/sai.h ****  *  sai_config.b_dir           = SaiHandle::Config::Direction::TRANSMIT;
  31:../../../libDaisy/src/per/sai.h ****  *  sai_config.pin_config.fs   = {DSY_GPIOE, 4};
  32:../../../libDaisy/src/per/sai.h ****  *  sai_config.pin_config.mclk = {DSY_GPIOE, 2};
  33:../../../libDaisy/src/per/sai.h ****  *  sai_config.pin_config.sck  = {DSY_GPIOE, 5};
  34:../../../libDaisy/src/per/sai.h ****  *  sai_config.pin_config.sa   = {DSY_GPIOE, 6};
  35:../../../libDaisy/src/per/sai.h ****  *  sai_config.pin_config.sb   = {DSY_GPIOE, 3};
  36:../../../libDaisy/src/per/sai.h ****  *  // Then Initialize
  37:../../../libDaisy/src/per/sai.h ****  *  SaiHandle sai;
  38:../../../libDaisy/src/per/sai.h ****  *  sai.Init(sai_config);
  39:../../../libDaisy/src/per/sai.h ****  *  // Now you can use it:
  40:../../../libDaisy/src/per/sai.h ****  *  sai.StartDma(. . .);
  41:../../../libDaisy/src/per/sai.h ****  */
  42:../../../libDaisy/src/per/sai.h **** class SaiHandle
  43:../../../libDaisy/src/per/sai.h **** {
  44:../../../libDaisy/src/per/sai.h ****   public:
  45:../../../libDaisy/src/per/sai.h ****     /** Contains settings for initialising an SAI Interface */
  46:../../../libDaisy/src/per/sai.h ****     struct Config
  47:../../../libDaisy/src/per/sai.h ****     {
  48:../../../libDaisy/src/per/sai.h ****         /** Specifies the internal peripheral to use (mapped to different hardware pins) */
  49:../../../libDaisy/src/per/sai.h ****         enum class Peripheral
  50:../../../libDaisy/src/per/sai.h ****         {
  51:../../../libDaisy/src/per/sai.h ****             SAI_1,
  52:../../../libDaisy/src/per/sai.h ****             SAI_2,
  53:../../../libDaisy/src/per/sai.h ****         };
  54:../../../libDaisy/src/per/sai.h **** 
  55:../../../libDaisy/src/per/sai.h ****         /** Rate at which samples will be streaming to/from the device. */
  56:../../../libDaisy/src/per/sai.h ****         enum class SampleRate
  57:../../../libDaisy/src/per/sai.h ****         {
  58:../../../libDaisy/src/per/sai.h ****             SAI_8KHZ,
  59:../../../libDaisy/src/per/sai.h ****             SAI_16KHZ,
  60:../../../libDaisy/src/per/sai.h ****             SAI_32KHZ,
  61:../../../libDaisy/src/per/sai.h ****             SAI_48KHZ,
  62:../../../libDaisy/src/per/sai.h ****             SAI_96KHZ,
  63:../../../libDaisy/src/per/sai.h ****         };
ARM GAS  C:\Users\jaude\AppData\Local\Temp\cc5q4WcC.s 			page 33


  64:../../../libDaisy/src/per/sai.h **** 
  65:../../../libDaisy/src/per/sai.h ****         /** Bit Depth that the hardware expects to be transferred to/from the device. */
  66:../../../libDaisy/src/per/sai.h ****         enum class BitDepth
  67:../../../libDaisy/src/per/sai.h ****         {
  68:../../../libDaisy/src/per/sai.h ****             SAI_16BIT,
  69:../../../libDaisy/src/per/sai.h ****             SAI_24BIT,
  70:../../../libDaisy/src/per/sai.h ****             SAI_32BIT,
  71:../../../libDaisy/src/per/sai.h ****         };
  72:../../../libDaisy/src/per/sai.h **** 
  73:../../../libDaisy/src/per/sai.h ****         /** Specifies whether a particular block is the master or the slave 
  74:../../../libDaisy/src/per/sai.h ****          ** If both are set to slave, no MCLK signal will be used, and it is
  75:../../../libDaisy/src/per/sai.h ****          ** expected that the codec will have its own xtal.
  76:../../../libDaisy/src/per/sai.h ****          */
  77:../../../libDaisy/src/per/sai.h ****         enum class Sync
  78:../../../libDaisy/src/per/sai.h ****         {
  79:../../../libDaisy/src/per/sai.h ****             MASTER,
  80:../../../libDaisy/src/per/sai.h ****             SLAVE,
  81:../../../libDaisy/src/per/sai.h ****         };
  82:../../../libDaisy/src/per/sai.h **** 
  83:../../../libDaisy/src/per/sai.h ****         /** Specifies the direction for each peripheral block. */
  84:../../../libDaisy/src/per/sai.h ****         enum class Direction
  85:../../../libDaisy/src/per/sai.h ****         {
  86:../../../libDaisy/src/per/sai.h ****             TRANSMIT,
  87:../../../libDaisy/src/per/sai.h ****             RECEIVE,
  88:../../../libDaisy/src/per/sai.h ****         };
  89:../../../libDaisy/src/per/sai.h **** 
  90:../../../libDaisy/src/per/sai.h ****         Peripheral periph;
  91:../../../libDaisy/src/per/sai.h ****         struct
  92:../../../libDaisy/src/per/sai.h ****         {
  93:../../../libDaisy/src/per/sai.h ****             dsy_gpio_pin mclk, fs, sck, sa, sb;
  94:../../../libDaisy/src/per/sai.h ****         } pin_config;
  95:../../../libDaisy/src/per/sai.h ****         SampleRate sr;
  96:../../../libDaisy/src/per/sai.h ****         BitDepth   bit_depth;
  97:../../../libDaisy/src/per/sai.h ****         Sync       a_sync, b_sync;
  98:../../../libDaisy/src/per/sai.h ****         Direction  a_dir, b_dir;
  99:../../../libDaisy/src/per/sai.h ****     };
 100:../../../libDaisy/src/per/sai.h **** 
 101:../../../libDaisy/src/per/sai.h ****     /** Return values for SAI functions */
 102:../../../libDaisy/src/per/sai.h ****     enum class Result
 103:../../../libDaisy/src/per/sai.h ****     {
 104:../../../libDaisy/src/per/sai.h ****         OK,
 105:../../../libDaisy/src/per/sai.h ****         ERR,
 106:../../../libDaisy/src/per/sai.h ****     };
 107:../../../libDaisy/src/per/sai.h **** 
 108:../../../libDaisy/src/per/sai.h ****     SaiHandle() : pimpl_(nullptr) {}
 774              		.loc 13 108 5 is_stmt 1 view .LVU189
 775              	.LBB242:
 776              	.LBB243:
 777              		.loc 13 108 33 is_stmt 0 view .LVU190
 778 000e C363     		str	r3, [r0, #60]
 779              	.LVL39:
 780              		.loc 13 108 33 view .LVU191
 781              	.LBE243:
 782              	.LBE242:
 783              	.LBE241:
 784              	.LBE245:
 785              	.LBE247:
ARM GAS  C:\Users\jaude\AppData\Local\Temp\cc5q4WcC.s 			page 34


   7:reverbsc.cpp  **** 
 786              		.loc 10 7 18 view .LVU192
 787 0010 0E49     		ldr	r1, .L31+8
 788 0012 FFF7FEFF 		bl	__aeabi_atexit
 789              	.LVL40:
 790              	.LBB248:
 791              	.LBI248:
  37:../../../DaisySP/DaisySP-LGPL/Source/Effects/reverbsc.h ****     ~ReverbSc() {}
 792              		.loc 4 37 5 is_stmt 1 view .LVU193
  37:../../../DaisySP/DaisySP-LGPL/Source/Effects/reverbsc.h ****     ~ReverbSc() {}
 793              		.loc 4 37 5 is_stmt 0 view .LVU194
 794              	.LBE248:
   9:reverbsc.cpp  **** Oscillator osc;
 795              		.loc 10 9 12 view .LVU195
 796 0016 0C4A     		ldr	r2, .L31+4
 797 0018 0D49     		ldr	r1, .L31+12
 798 001a 0E48     		ldr	r0, .L31+16
 799 001c FFF7FEFF 		bl	__aeabi_atexit
 800              	.LVL41:
 801              	.LBB249:
 802              	.LBI249:
  23:../../../DaisySP/Source/Synthesis/oscillator.h ****     ~Oscillator() {}
 803              		.loc 2 23 5 is_stmt 1 view .LVU196
  23:../../../DaisySP/Source/Synthesis/oscillator.h ****     ~Oscillator() {}
 804              		.loc 2 23 5 is_stmt 0 view .LVU197
 805              	.LBE249:
  10:reverbsc.cpp  **** AdEnv      env;
 806              		.loc 10 10 12 view .LVU198
 807 0020 094A     		ldr	r2, .L31+4
 808 0022 0D49     		ldr	r1, .L31+20
 809 0024 0D48     		ldr	r0, .L31+24
 810 0026 FFF7FEFF 		bl	__aeabi_atexit
 811              	.LVL42:
 812              	.LBB250:
 813              	.LBI250:
  42:../../../DaisySP/Source/Control/adenv.h ****     ~AdEnv() {}
 814              		.loc 1 42 5 is_stmt 1 view .LVU199
  42:../../../DaisySP/Source/Control/adenv.h ****     ~AdEnv() {}
 815              		.loc 1 42 5 is_stmt 0 view .LVU200
 816              	.LBE250:
  11:reverbsc.cpp  **** Metro      tick;
 817              		.loc 10 11 12 view .LVU201
 818 002a 074A     		ldr	r2, .L31+4
 819 002c 0C49     		ldr	r1, .L31+28
 820 002e 0D48     		ldr	r0, .L31+32
 821 0030 FFF7FEFF 		bl	__aeabi_atexit
 822              	.LVL43:
 823              	.LBB251:
 824              	.LBI251:
  22:../../../DaisySP/Source/Utility/metro.h ****     ~Metro() {}
 825              		.loc 3 22 5 is_stmt 1 view .LVU202
  22:../../../DaisySP/Source/Utility/metro.h ****     ~Metro() {}
 826              		.loc 3 22 5 is_stmt 0 view .LVU203
 827              	.LBE251:
  12:reverbsc.cpp  **** 
 828              		.loc 10 12 12 view .LVU204
 829 0034 044A     		ldr	r2, .L31+4
ARM GAS  C:\Users\jaude\AppData\Local\Temp\cc5q4WcC.s 			page 35


 830 0036 0C49     		ldr	r1, .L31+36
 831 0038 0C48     		ldr	r0, .L31+40
 832              	.LBE252:
 833              	.LBE254:
 834              		.loc 10 63 1 view .LVU205
 835 003a BDE80840 		pop	{r3, lr}
 836              		.cfi_restore 14
 837              		.cfi_restore 3
 838              		.cfi_def_cfa_offset 0
 839              	.LBB255:
 840              	.LBB253:
  12:reverbsc.cpp  **** 
 841              		.loc 10 12 12 view .LVU206
 842 003e FFF7FEBF 		b	__aeabi_atexit
 843              	.LVL44:
 844              	.L32:
 845 0042 00BF     		.align	2
 846              	.L31:
 847 0044 00000000 		.word	.LANCHOR3
 848 0048 00000000 		.word	__dso_handle
 849 004c 00000000 		.word	_ZN5daisy9DaisySeedD1Ev
 850 0050 00000000 		.word	_ZN7daisysp8ReverbScD1Ev
 851 0054 00000000 		.word	verb
 852 0058 00000000 		.word	_ZN7daisysp10OscillatorD1Ev
 853 005c 00000000 		.word	.LANCHOR2
 854 0060 00000000 		.word	_ZN7daisysp5AdEnvD1Ev
 855 0064 00000000 		.word	.LANCHOR1
 856 0068 00000000 		.word	_ZN7daisysp5MetroD1Ev
 857 006c 00000000 		.word	.LANCHOR0
 858              	.LBE253:
 859              	.LBE255:
 860              		.cfi_endproc
 861              	.LFE5410:
 863              		.section	.init_array,"aw",%init_array
 864              		.align	2
 865 0000 00000000 		.word	_GLOBAL__sub_I_verb(target1)
 866              		.global	tick
 867              		.global	env
 868              		.global	osc
 869              		.global	verb
 870              		.section	.bss._ZL2hw,"aw",%nobits
 871              		.align	2
 872              		.set	.LANCHOR3,. + 0
 875              	_ZL2hw:
 876 0000 00000000 		.space	64
 876      00000000 
 876      00000000 
 876      00000000 
 876      00000000 
 877              		.section	.bss.env,"aw",%nobits
 878              		.align	2
 879              		.set	.LANCHOR1,. + 0
 882              	env:
 883 0000 00000000 		.space	56
 883      00000000 
 883      00000000 
 883      00000000 
ARM GAS  C:\Users\jaude\AppData\Local\Temp\cc5q4WcC.s 			page 36


 883      00000000 
 884              		.section	.bss.osc,"aw",%nobits
 885              		.align	2
 886              		.set	.LANCHOR2,. + 0
 889              	osc:
 890 0000 00000000 		.space	44
 890      00000000 
 890      00000000 
 890      00000000 
 890      00000000 
 891              		.section	.bss.tick,"aw",%nobits
 892              		.align	2
 893              		.set	.LANCHOR0,. + 0
 896              	tick:
 897 0000 00000000 		.space	16
 897      00000000 
 897      00000000 
 897      00000000 
 898              		.section	.bss.verb,"aw",%nobits
 899              		.align	2
 902              	verb:
 903 0000 00000000 		.space	396100
 903      00000000 
 903      00000000 
 903      00000000 
 903      00000000 
 904              		.text
 905              	.Letext0:
 906              		.file 14 "c:\\program files\\daisytoolchain\\arm-none-eabi\\include\\machine\\_default_types.h"
 907              		.file 15 "c:\\program files\\daisytoolchain\\arm-none-eabi\\include\\sys\\_stdint.h"
 908              		.file 16 "c:\\program files\\daisytoolchain\\arm-none-eabi\\include\\stdint.h"
 909              		.file 17 "c:\\program files\\daisytoolchain\\lib\\gcc\\arm-none-eabi\\10.2.1\\include\\stddef.h"
 910              		.file 18 "c:\\program files\\daisytoolchain\\arm-none-eabi\\include\\c++\\10.2.1\\cmath"
 911              		.file 19 "c:\\program files\\daisytoolchain\\arm-none-eabi\\include\\c++\\10.2.1\\bits\\std_abs.h"
 912              		.file 20 "c:\\program files\\daisytoolchain\\arm-none-eabi\\include\\c++\\10.2.1\\cstdint"
 913              		.file 21 "c:\\program files\\daisytoolchain\\arm-none-eabi\\include\\c++\\10.2.1\\cstdlib"
 914              		.file 22 "c:\\program files\\daisytoolchain\\arm-none-eabi\\include\\c++\\10.2.1\\type_traits"
 915              		.file 23 "c:\\program files\\daisytoolchain\\arm-none-eabi\\include\\c++\\10.2.1\\debug\\debug.h"
 916              		.file 24 "c:\\program files\\daisytoolchain\\arm-none-eabi\\include\\c++\\10.2.1\\cwchar"
 917              		.file 25 "c:\\program files\\daisytoolchain\\arm-none-eabi\\include\\c++\\10.2.1\\bits\\stl_pair.h
 918              		.file 26 "c:\\program files\\daisytoolchain\\arm-none-eabi\\include\\c++\\10.2.1\\bits\\exception_
 919              		.file 27 "c:\\program files\\daisytoolchain\\arm-none-eabi\\include\\c++\\10.2.1\\arm-none-eabi\\t
 920              		.file 28 "c:\\program files\\daisytoolchain\\arm-none-eabi\\include\\c++\\10.2.1\\clocale"
 921              		.file 29 "c:\\program files\\daisytoolchain\\arm-none-eabi\\include\\c++\\10.2.1\\cstdio"
 922              		.file 30 "c:\\program files\\daisytoolchain\\arm-none-eabi\\include\\c++\\10.2.1\\bits\\basic_stri
 923              		.file 31 "c:\\program files\\daisytoolchain\\arm-none-eabi\\include\\c++\\10.2.1\\bits\\charconv.h
 924              		.file 32 "c:\\program files\\daisytoolchain\\arm-none-eabi\\include\\c++\\10.2.1\\bits\\algorithmf
 925              		.file 33 "c:\\program files\\daisytoolchain\\arm-none-eabi\\include\\c++\\10.2.1\\cstring"
 926              		.file 34 "c:\\program files\\daisytoolchain\\arm-none-eabi\\include\\c++\\10.2.1\\cstdarg"
 927              		.file 35 "c:\\program files\\daisytoolchain\\arm-none-eabi\\include\\c++\\10.2.1\\bits\\predefined
 928              		.file 36 "c:\\program files\\daisytoolchain\\arm-none-eabi\\include\\sys\\_types.h"
 929              		.file 37 "c:\\program files\\daisytoolchain\\arm-none-eabi\\include\\sys\\reent.h"
 930              		.file 38 "c:\\program files\\daisytoolchain\\arm-none-eabi\\include\\sys\\lock.h"
 931              		.file 39 "c:\\program files\\daisytoolchain\\arm-none-eabi\\include\\math.h"
 932              		.file 40 "c:\\program files\\daisytoolchain\\arm-none-eabi\\include\\stdlib.h"
 933              		.file 41 "c:\\program files\\daisytoolchain\\arm-none-eabi\\include\\c++\\10.2.1\\math.h"
 934              		.file 42 "../../../DaisySP/Source/Utility/dsp.h"
ARM GAS  C:\Users\jaude\AppData\Local\Temp\cc5q4WcC.s 			page 37


 935              		.file 43 "c:\\program files\\daisytoolchain\\lib\\gcc\\arm-none-eabi\\10.2.1\\include\\stdarg.h"
 936              		.file 44 "c:\\program files\\daisytoolchain\\arm-none-eabi\\include\\wchar.h"
 937              		.file 45 "c:\\program files\\daisytoolchain\\arm-none-eabi\\include\\locale.h"
 938              		.file 46 "c:\\program files\\daisytoolchain\\arm-none-eabi\\include\\stdio.h"
 939              		.file 47 "c:\\program files\\daisytoolchain\\arm-none-eabi\\include\\c++\\10.2.1\\stdlib.h"
 940              		.file 48 "c:\\program files\\daisytoolchain\\arm-none-eabi\\include\\string.h"
 941              		.file 49 "../../../libDaisy/src/daisy_core.h"
 942              		.file 50 "../../../libDaisy/src/per/tim.h"
 943              		.file 51 "../../../libDaisy/src/util/wav_format.h"
 944              		.file 52 "../../../libDaisy/src/dev/max11300.h"
 945              		.file 53 "../../../libDaisy/src/per/gpio.h"
 946              		.file 54 "../../../libDaisy/src/dev/sdram.h"
 947              		.file 55 "<built-in>"
 948              		.file 56 "../../../libDaisy/src/dev/sr_595.h"
ARM GAS  C:\Users\jaude\AppData\Local\Temp\cc5q4WcC.s 			page 38

