ARM GAS  C:\Users\jaude\AppData\Local\Temp\ccMKA3wm.s 			page 1


   1              		.cpu cortex-m7
   2              		.eabi_attribute 28, 1
   3              		.eabi_attribute 20, 1
   4              		.eabi_attribute 21, 1
   5              		.eabi_attribute 23, 3
   6              		.eabi_attribute 24, 1
   7              		.eabi_attribute 25, 1
   8              		.eabi_attribute 26, 1
   9              		.eabi_attribute 30, 2
  10              		.eabi_attribute 34, 1
  11              		.eabi_attribute 18, 4
  12              		.file	"chorus.cpp"
  13              		.text
  14              	.Ltext0:
  15              		.cfi_sections	.debug_frame
  16              		.section	.text._ZN5daisy9DaisySeedD2Ev,"axG",%progbits,_ZN5daisy9DaisySeedD5Ev,comdat
  17              		.align	1
  18              		.p2align 2,,3
  19              		.weak	_ZN5daisy9DaisySeedD2Ev
  20              		.arch armv7e-m
  21              		.syntax unified
  22              		.thumb
  23              		.thumb_func
  24              		.fpu fpv5-d16
  26              	_ZN5daisy9DaisySeedD2Ev:
  27              	.LVL0:
  28              	.LFB2555:
  29              		.file 1 "../../../libDaisy/src/daisy_seed.h"
   1:../../../libDaisy/src/daisy_seed.h **** #pragma once
   2:../../../libDaisy/src/daisy_seed.h **** #ifndef DSY_SEED_H
   3:../../../libDaisy/src/daisy_seed.h **** #define DSY_SEED_H
   4:../../../libDaisy/src/daisy_seed.h **** 
   5:../../../libDaisy/src/daisy_seed.h **** #include "daisy.h"
   6:../../../libDaisy/src/daisy_seed.h **** 
   7:../../../libDaisy/src/daisy_seed.h **** //Uncomment this out if you're still using the rev2 hardware
   8:../../../libDaisy/src/daisy_seed.h **** //#define SEED_REV2
   9:../../../libDaisy/src/daisy_seed.h **** 
  10:../../../libDaisy/src/daisy_seed.h **** namespace daisy
  11:../../../libDaisy/src/daisy_seed.h **** {
  12:../../../libDaisy/src/daisy_seed.h **** /**
  13:../../../libDaisy/src/daisy_seed.h ****    @brief This is the higher-level interface for the Daisy board. \n 
  14:../../../libDaisy/src/daisy_seed.h ****     All basic peripheral configuration/initialization is setup here. \n
  15:../../../libDaisy/src/daisy_seed.h **** 
  16:../../../libDaisy/src/daisy_seed.h ****    @ingroup boards
  17:../../../libDaisy/src/daisy_seed.h **** */
  18:../../../libDaisy/src/daisy_seed.h **** class DaisySeed
  19:../../../libDaisy/src/daisy_seed.h **** {
  20:../../../libDaisy/src/daisy_seed.h ****   public:
  21:../../../libDaisy/src/daisy_seed.h ****     DaisySeed() {}
  22:../../../libDaisy/src/daisy_seed.h ****     ~DaisySeed() {}
  30              		.loc 1 22 5 view -0
  31              		.cfi_startproc
  32              		@ args = 0, pretend = 0, frame = 0
  33              		@ frame_needed = 0, uses_anonymous_args = 0
  34              		@ link register save eliminated.
  35              	.LBB246:
  36              	.LBI246:
ARM GAS  C:\Users\jaude\AppData\Local\Temp\ccMKA3wm.s 			page 2


  37              		.file 2 "../../../libDaisy/src/sys/system.h"
   1:../../../libDaisy/src/sys/system.h **** #ifndef DSY_SYSTEM_H
   2:../../../libDaisy/src/sys/system.h **** #define DSY_SYSTEM_H
   3:../../../libDaisy/src/sys/system.h **** 
   4:../../../libDaisy/src/sys/system.h **** #ifndef UNIT_TEST // for unit tests, a dummy implementation is provided below
   5:../../../libDaisy/src/sys/system.h **** 
   6:../../../libDaisy/src/sys/system.h **** #include <cstdint>
   7:../../../libDaisy/src/sys/system.h **** #include "per/tim.h"
   8:../../../libDaisy/src/sys/system.h **** 
   9:../../../libDaisy/src/sys/system.h **** namespace daisy
  10:../../../libDaisy/src/sys/system.h **** {
  11:../../../libDaisy/src/sys/system.h **** /** A handle for interacting with the Core System.
  12:../../../libDaisy/src/sys/system.h ****  ** This includes the Clock tree, MPU, global DMA initialization,
  13:../../../libDaisy/src/sys/system.h ****  ** cache handling, and any other necessary global initiailzation
  14:../../../libDaisy/src/sys/system.h ****  **
  15:../../../libDaisy/src/sys/system.h ****  ** @author shensley
  16:../../../libDaisy/src/sys/system.h ****  ** @ingroup system
  17:../../../libDaisy/src/sys/system.h ****  */
  18:../../../libDaisy/src/sys/system.h **** class System
  19:../../../libDaisy/src/sys/system.h **** {
  20:../../../libDaisy/src/sys/system.h ****   public:
  21:../../../libDaisy/src/sys/system.h ****     /** Contains settings for initializing the System */
  22:../../../libDaisy/src/sys/system.h ****     struct Config
  23:../../../libDaisy/src/sys/system.h ****     {
  24:../../../libDaisy/src/sys/system.h ****         /** Specifies the system clock frequency that feeds APB/AHB clocks, etc. */
  25:../../../libDaisy/src/sys/system.h ****         enum class SysClkFreq
  26:../../../libDaisy/src/sys/system.h ****         {
  27:../../../libDaisy/src/sys/system.h ****             FREQ_400MHZ,
  28:../../../libDaisy/src/sys/system.h ****             FREQ_480MHZ,
  29:../../../libDaisy/src/sys/system.h ****         };
  30:../../../libDaisy/src/sys/system.h **** 
  31:../../../libDaisy/src/sys/system.h ****         /** Method to call on the struct to set to defaults
  32:../../../libDaisy/src/sys/system.h ****          ** CPU Freq set to 400MHz
  33:../../../libDaisy/src/sys/system.h ****          ** Cache Enabled
  34:../../../libDaisy/src/sys/system.h ****          ** */
  35:../../../libDaisy/src/sys/system.h ****         void Defaults()
  36:../../../libDaisy/src/sys/system.h ****         {
  37:../../../libDaisy/src/sys/system.h ****             cpu_freq    = SysClkFreq::FREQ_400MHZ;
  38:../../../libDaisy/src/sys/system.h ****             use_dcache  = true;
  39:../../../libDaisy/src/sys/system.h ****             use_icache  = true;
  40:../../../libDaisy/src/sys/system.h ****             skip_clocks = false;
  41:../../../libDaisy/src/sys/system.h ****         }
  42:../../../libDaisy/src/sys/system.h **** 
  43:../../../libDaisy/src/sys/system.h ****         /** Method to call on the struct to set to boost mode:
  44:../../../libDaisy/src/sys/system.h ****          ** CPU Freq set to 480MHz
  45:../../../libDaisy/src/sys/system.h ****          ** Cache Enabled
  46:../../../libDaisy/src/sys/system.h ****          ** */
  47:../../../libDaisy/src/sys/system.h ****         void Boost()
  48:../../../libDaisy/src/sys/system.h ****         {
  49:../../../libDaisy/src/sys/system.h ****             cpu_freq    = SysClkFreq::FREQ_480MHZ;
  50:../../../libDaisy/src/sys/system.h ****             use_dcache  = true;
  51:../../../libDaisy/src/sys/system.h ****             use_icache  = true;
  52:../../../libDaisy/src/sys/system.h ****             skip_clocks = false;
  53:../../../libDaisy/src/sys/system.h ****         }
  54:../../../libDaisy/src/sys/system.h **** 
  55:../../../libDaisy/src/sys/system.h ****         SysClkFreq cpu_freq;
  56:../../../libDaisy/src/sys/system.h ****         bool       use_dcache;
ARM GAS  C:\Users\jaude\AppData\Local\Temp\ccMKA3wm.s 			page 3


  57:../../../libDaisy/src/sys/system.h ****         bool       use_icache;
  58:../../../libDaisy/src/sys/system.h ****         bool       skip_clocks;
  59:../../../libDaisy/src/sys/system.h ****     };
  60:../../../libDaisy/src/sys/system.h **** 
  61:../../../libDaisy/src/sys/system.h ****     /** Describes the different regions of memory available to the Daisy */
  62:../../../libDaisy/src/sys/system.h ****     enum MemoryRegion
  63:../../../libDaisy/src/sys/system.h ****     {
  64:../../../libDaisy/src/sys/system.h ****         INTERNAL_FLASH = 0,
  65:../../../libDaisy/src/sys/system.h ****         ITCMRAM,
  66:../../../libDaisy/src/sys/system.h ****         DTCMRAM,
  67:../../../libDaisy/src/sys/system.h ****         SRAM_D1,
  68:../../../libDaisy/src/sys/system.h ****         SRAM_D2,
  69:../../../libDaisy/src/sys/system.h ****         SRAM_D3,
  70:../../../libDaisy/src/sys/system.h ****         SDRAM,
  71:../../../libDaisy/src/sys/system.h ****         QSPI,
  72:../../../libDaisy/src/sys/system.h ****         INVALID_ADDRESS,
  73:../../../libDaisy/src/sys/system.h ****     };
  74:../../../libDaisy/src/sys/system.h **** 
  75:../../../libDaisy/src/sys/system.h ****     /** Bootloader struct for controlling bootloading parameters */
  76:../../../libDaisy/src/sys/system.h ****     struct BootInfo
  77:../../../libDaisy/src/sys/system.h ****     {
  78:../../../libDaisy/src/sys/system.h ****         enum class Type : uint32_t
  79:../../../libDaisy/src/sys/system.h ****         {
  80:../../../libDaisy/src/sys/system.h ****             INVALID      = 0x00000000,
  81:../../../libDaisy/src/sys/system.h ****             JUMP         = 0xDEADBEEF,
  82:../../../libDaisy/src/sys/system.h ****             SKIP_TIMEOUT = 0x5AFEB007,
  83:../../../libDaisy/src/sys/system.h ****             INF_TIMEOUT  = 0xB0074EFA,
  84:../../../libDaisy/src/sys/system.h ****         } status;
  85:../../../libDaisy/src/sys/system.h ****         uint32_t data;
  86:../../../libDaisy/src/sys/system.h ****         enum class Version : uint32_t
  87:../../../libDaisy/src/sys/system.h ****         {
  88:../../../libDaisy/src/sys/system.h ****             LT_v6_0 = 0, // Less than v6.0
  89:../../../libDaisy/src/sys/system.h ****             NONE,        // No bootloader present
  90:../../../libDaisy/src/sys/system.h ****             v6_0,        // v6.0
  91:../../../libDaisy/src/sys/system.h ****             v6_1,        // v6.1 or greater
  92:../../../libDaisy/src/sys/system.h ****             LAST
  93:../../../libDaisy/src/sys/system.h ****         } version;
  94:../../../libDaisy/src/sys/system.h ****     };
  95:../../../libDaisy/src/sys/system.h **** 
  96:../../../libDaisy/src/sys/system.h ****     System() {}
  97:../../../libDaisy/src/sys/system.h ****     ~System() {}
  38              		.loc 2 97 5 view .LVU1
  39              		.loc 2 97 5 is_stmt 0 view .LVU2
  40              	.LBE246:
  41              	.LBB247:
  42              	.LBI247:
  43              		.file 3 "../../../libDaisy/src/hid/usb.h"
   1:../../../libDaisy/src/hid/usb.h **** #pragma once
   2:../../../libDaisy/src/hid/usb.h **** #ifndef DSY_HID_USB_H
   3:../../../libDaisy/src/hid/usb.h **** #define DSY_HID_USB_H
   4:../../../libDaisy/src/hid/usb.h **** #include <stdint.h>
   5:../../../libDaisy/src/hid/usb.h **** #include <stdlib.h>
   6:../../../libDaisy/src/hid/usb.h **** 
   7:../../../libDaisy/src/hid/usb.h **** namespace daisy
   8:../../../libDaisy/src/hid/usb.h **** /** @addtogroup human_interface
   9:../../../libDaisy/src/hid/usb.h ****     @{
  10:../../../libDaisy/src/hid/usb.h **** */
ARM GAS  C:\Users\jaude\AppData\Local\Temp\ccMKA3wm.s 			page 4


  11:../../../libDaisy/src/hid/usb.h **** 
  12:../../../libDaisy/src/hid/usb.h **** {
  13:../../../libDaisy/src/hid/usb.h **** /** 
  14:../../../libDaisy/src/hid/usb.h ****     @brief Interface for initializing and using the USB Peripherals on the daisy
  15:../../../libDaisy/src/hid/usb.h ****     @author Stephen Hensley
  16:../../../libDaisy/src/hid/usb.h ****     @date December 2019
  17:../../../libDaisy/src/hid/usb.h **** */
  18:../../../libDaisy/src/hid/usb.h **** class UsbHandle
  19:../../../libDaisy/src/hid/usb.h **** {
  20:../../../libDaisy/src/hid/usb.h ****   public:
  21:../../../libDaisy/src/hid/usb.h ****     /** Return values for USBHandle Functions */
  22:../../../libDaisy/src/hid/usb.h ****     enum class Result
  23:../../../libDaisy/src/hid/usb.h ****     {
  24:../../../libDaisy/src/hid/usb.h ****         OK,
  25:../../../libDaisy/src/hid/usb.h ****         ERR,
  26:../../../libDaisy/src/hid/usb.h ****     };
  27:../../../libDaisy/src/hid/usb.h **** 
  28:../../../libDaisy/src/hid/usb.h ****     /** Specified which of the two USB Peripherals to initialize. */
  29:../../../libDaisy/src/hid/usb.h ****     enum UsbPeriph
  30:../../../libDaisy/src/hid/usb.h ****     {
  31:../../../libDaisy/src/hid/usb.h ****         FS_INTERNAL, /**< Internal pin */
  32:../../../libDaisy/src/hid/usb.h ****         FS_EXTERNAL, /**< FS External D+ pin is Pin 38 (GPIO32). FS External D- pin is Pin 37 (GPIO
  33:../../../libDaisy/src/hid/usb.h ****         FS_BOTH,     /**< Both */
  34:../../../libDaisy/src/hid/usb.h ****     };
  35:../../../libDaisy/src/hid/usb.h **** 
  36:../../../libDaisy/src/hid/usb.h **** 
  37:../../../libDaisy/src/hid/usb.h ****     /** Function called upon reception of a buffer */
  38:../../../libDaisy/src/hid/usb.h ****     typedef void (*ReceiveCallback)(uint8_t* buff, uint32_t* len);
  39:../../../libDaisy/src/hid/usb.h **** 
  40:../../../libDaisy/src/hid/usb.h ****     UsbHandle() {}
  41:../../../libDaisy/src/hid/usb.h **** 
  42:../../../libDaisy/src/hid/usb.h ****     ~UsbHandle() {}
  44              		.loc 3 42 5 is_stmt 1 view .LVU3
  45              		.loc 3 42 5 is_stmt 0 view .LVU4
  46              	.LBE247:
  47              	.LBB248:
  48              	.LBI248:
  49              		.file 4 "../../../libDaisy/src/per/adc.h"
   1:../../../libDaisy/src/per/adc.h **** #pragma once
   2:../../../libDaisy/src/per/adc.h **** #ifndef DSY_ADC_H
   3:../../../libDaisy/src/per/adc.h **** #define DSY_ADC_H /**< Macro */
   4:../../../libDaisy/src/per/adc.h **** #include <stdint.h>
   5:../../../libDaisy/src/per/adc.h **** #include <stdlib.h>
   6:../../../libDaisy/src/per/adc.h **** #include "daisy_core.h"
   7:../../../libDaisy/src/per/adc.h **** #include "per/gpio.h"
   8:../../../libDaisy/src/per/adc.h **** 
   9:../../../libDaisy/src/per/adc.h **** #define DSY_ADC_MAX_CHANNELS 16 /**< Maximum number of ADC channels */
  10:../../../libDaisy/src/per/adc.h **** 
  11:../../../libDaisy/src/per/adc.h **** namespace daisy
  12:../../../libDaisy/src/per/adc.h **** {
  13:../../../libDaisy/src/per/adc.h **** /** @addtogroup per_analog
  14:../../../libDaisy/src/per/adc.h ****     @{
  15:../../../libDaisy/src/per/adc.h **** */
  16:../../../libDaisy/src/per/adc.h **** 
  17:../../../libDaisy/src/per/adc.h **** /* While there may not be many configuration options here,
  18:../../../libDaisy/src/per/adc.h **** using a struct like this allows us to add more configuration
  19:../../../libDaisy/src/per/adc.h **** later without breaking existing functionality.
ARM GAS  C:\Users\jaude\AppData\Local\Temp\ccMKA3wm.s 			page 5


  20:../../../libDaisy/src/per/adc.h **** */
  21:../../../libDaisy/src/per/adc.h **** 
  22:../../../libDaisy/src/per/adc.h **** /** @brief   Configuration Structure for an ADC Channel 
  23:../../../libDaisy/src/per/adc.h ****  *  @details This can be used to configure a a single input, 
  24:../../../libDaisy/src/per/adc.h ****  *           or a multiplexed input, allowing up to 8 inputs on 
  25:../../../libDaisy/src/per/adc.h ****  *           one channel.
  26:../../../libDaisy/src/per/adc.h ****  *  @note    Sharing data lines to multiple muxes _is_ possible, but
  27:../../../libDaisy/src/per/adc.h ****  *           each channel sharing data lines must be set to the maximum
  28:../../../libDaisy/src/per/adc.h ****  *           number of channels, even if some multiplexers have fewer
  29:../../../libDaisy/src/per/adc.h ****  *           inputs connected.
  30:../../../libDaisy/src/per/adc.h **** */
  31:../../../libDaisy/src/per/adc.h **** struct AdcChannelConfig
  32:../../../libDaisy/src/per/adc.h **** {
  33:../../../libDaisy/src/per/adc.h ****     /** Which pin to use for multiplexing */
  34:../../../libDaisy/src/per/adc.h ****     enum MuxPin
  35:../../../libDaisy/src/per/adc.h ****     {
  36:../../../libDaisy/src/per/adc.h ****         MUX_SEL_0,    /**< & */
  37:../../../libDaisy/src/per/adc.h ****         MUX_SEL_1,    /**< & */
  38:../../../libDaisy/src/per/adc.h ****         MUX_SEL_2,    /**< & */
  39:../../../libDaisy/src/per/adc.h ****         MUX_SEL_LAST, /**< & */
  40:../../../libDaisy/src/per/adc.h ****     };
  41:../../../libDaisy/src/per/adc.h **** 
  42:../../../libDaisy/src/per/adc.h ****     /** \brief per channel conversion speed added to fixed time based on bitdepth, etc. */
  43:../../../libDaisy/src/per/adc.h ****     enum ConversionSpeed
  44:../../../libDaisy/src/per/adc.h ****     {
  45:../../../libDaisy/src/per/adc.h ****         SPEED_1CYCLES_5,
  46:../../../libDaisy/src/per/adc.h ****         SPEED_2CYCLES_5,
  47:../../../libDaisy/src/per/adc.h ****         SPEED_8CYCLES_5,
  48:../../../libDaisy/src/per/adc.h ****         SPEED_16CYCLES_5,
  49:../../../libDaisy/src/per/adc.h ****         SPEED_32CYCLES_5,
  50:../../../libDaisy/src/per/adc.h ****         SPEED_64CYCLES_5,
  51:../../../libDaisy/src/per/adc.h ****         SPEED_387CYCLES_5,
  52:../../../libDaisy/src/per/adc.h ****         SPEED_810CYCLES_5,
  53:../../../libDaisy/src/per/adc.h ****     };
  54:../../../libDaisy/src/per/adc.h **** 
  55:../../../libDaisy/src/per/adc.h ****     /** Initializes a single ADC pin as an ADC. 
  56:../../../libDaisy/src/per/adc.h ****     \param pin Pin to init.
  57:../../../libDaisy/src/per/adc.h ****     \param speed conversion speed for this pin defaults to 8.5 cycles
  58:../../../libDaisy/src/per/adc.h ****      */
  59:../../../libDaisy/src/per/adc.h ****     void InitSingle(dsy_gpio_pin pin, ConversionSpeed speed = SPEED_8CYCLES_5);
  60:../../../libDaisy/src/per/adc.h **** 
  61:../../../libDaisy/src/per/adc.h ****     /** 
  62:../../../libDaisy/src/per/adc.h ****     Initializes a single ADC pin as a Multiplexed ADC.
  63:../../../libDaisy/src/per/adc.h ****     Requires a CD405X Multiplexer connected to the pin.
  64:../../../libDaisy/src/per/adc.h ****     You only need to supply the mux pins that are required,
  65:../../../libDaisy/src/per/adc.h ****     e.g. a 4052 mux would only require mux_0 and mux_1.
  66:../../../libDaisy/src/per/adc.h ****     Internal Callbacks handle the pin addressing.
  67:../../../libDaisy/src/per/adc.h ****     \param adc_pin &
  68:../../../libDaisy/src/per/adc.h ****     \param mux_channels must be 1-8
  69:../../../libDaisy/src/per/adc.h ****     \param mux_0 First mux pin
  70:../../../libDaisy/src/per/adc.h ****     \param mux_1 Second mux pin
  71:../../../libDaisy/src/per/adc.h ****     \param mux_2 Third mux pin
  72:../../../libDaisy/src/per/adc.h ****     \param speed conversion speed for this pin defaults to 8.5 cycles
  73:../../../libDaisy/src/per/adc.h ****     */
  74:../../../libDaisy/src/per/adc.h ****     void InitMux(dsy_gpio_pin    adc_pin,
  75:../../../libDaisy/src/per/adc.h ****                  size_t          mux_channels,
  76:../../../libDaisy/src/per/adc.h ****                  dsy_gpio_pin    mux_0,
ARM GAS  C:\Users\jaude\AppData\Local\Temp\ccMKA3wm.s 			page 6


  77:../../../libDaisy/src/per/adc.h ****                  dsy_gpio_pin    mux_1 = {DSY_GPIOX, 0},
  78:../../../libDaisy/src/per/adc.h ****                  dsy_gpio_pin    mux_2 = {DSY_GPIOX, 0},
  79:../../../libDaisy/src/per/adc.h ****                  ConversionSpeed speed = SPEED_8CYCLES_5);
  80:../../../libDaisy/src/per/adc.h **** 
  81:../../../libDaisy/src/per/adc.h ****     dsy_gpio        pin_;                   /**< & */
  82:../../../libDaisy/src/per/adc.h ****     dsy_gpio        mux_pin_[MUX_SEL_LAST]; /**< & */
  83:../../../libDaisy/src/per/adc.h ****     uint8_t         mux_channels_;          /**< & */
  84:../../../libDaisy/src/per/adc.h ****     ConversionSpeed speed_;
  85:../../../libDaisy/src/per/adc.h **** };
  86:../../../libDaisy/src/per/adc.h **** 
  87:../../../libDaisy/src/per/adc.h **** /**
  88:../../../libDaisy/src/per/adc.h ****    @brief Handler for analog to digital conversion
  89:../../../libDaisy/src/per/adc.h **** */
  90:../../../libDaisy/src/per/adc.h **** class AdcHandle
  91:../../../libDaisy/src/per/adc.h **** {
  92:../../../libDaisy/src/per/adc.h ****   public:
  93:../../../libDaisy/src/per/adc.h ****     /** Supported oversampling amounts */
  94:../../../libDaisy/src/per/adc.h ****     enum OverSampling
  95:../../../libDaisy/src/per/adc.h ****     {
  96:../../../libDaisy/src/per/adc.h ****         OVS_NONE, /**< & */
  97:../../../libDaisy/src/per/adc.h ****         OVS_4,    /**< & */
  98:../../../libDaisy/src/per/adc.h ****         OVS_8,    /**< & */
  99:../../../libDaisy/src/per/adc.h ****         OVS_16,   /**< & */
 100:../../../libDaisy/src/per/adc.h ****         OVS_32,   /**< & */
 101:../../../libDaisy/src/per/adc.h ****         OVS_64,   /**< & */
 102:../../../libDaisy/src/per/adc.h ****         OVS_128,  /**< & */
 103:../../../libDaisy/src/per/adc.h ****         OVS_256,  /**< & */
 104:../../../libDaisy/src/per/adc.h ****         OVS_512,  /**< & */
 105:../../../libDaisy/src/per/adc.h ****         OVS_1024, /**< & */
 106:../../../libDaisy/src/per/adc.h ****         OVS_LAST, /**< & */
 107:../../../libDaisy/src/per/adc.h ****     };
 108:../../../libDaisy/src/per/adc.h **** 
 109:../../../libDaisy/src/per/adc.h ****     AdcHandle() {}
 110:../../../libDaisy/src/per/adc.h ****     ~AdcHandle() {}
  50              		.loc 4 110 5 is_stmt 1 view .LVU5
  51              		.loc 4 110 5 is_stmt 0 view .LVU6
  52              	.LBE248:
  53              	.LBB249:
  54              	.LBI249:
  55              		.file 5 "../../../libDaisy/src/hid/audio.h"
   1:../../../libDaisy/src/hid/audio.h **** #ifndef DSY_AUDIO_H
   2:../../../libDaisy/src/hid/audio.h **** #define DSY_AUDIO_H /**< & */
   3:../../../libDaisy/src/hid/audio.h **** 
   4:../../../libDaisy/src/hid/audio.h **** #include "per/sai.h"
   5:../../../libDaisy/src/hid/audio.h **** 
   6:../../../libDaisy/src/hid/audio.h **** namespace daisy
   7:../../../libDaisy/src/hid/audio.h **** {
   8:../../../libDaisy/src/hid/audio.h **** /** @brief Audio Engine Handle
   9:../../../libDaisy/src/hid/audio.h ****  *  @ingroup audio 
  10:../../../libDaisy/src/hid/audio.h ****  *  @details This class allows for higher level access to an audio engine.
  11:../../../libDaisy/src/hid/audio.h ****  *           If you're using a SOM like the DaisySeed or DaisyPatchSM (or any 
  12:../../../libDaisy/src/hid/audio.h ****  *            board that includes one of those objects) then the intialization
  13:../../../libDaisy/src/hid/audio.h ****  *            is already taken  care of.
  14:../../../libDaisy/src/hid/audio.h ****  *           If you're setting up your own custom hardware, or need to make changes
  15:../../../libDaisy/src/hid/audio.h ****  *           you will have to take the following steps:
  16:../../../libDaisy/src/hid/audio.h ****  *             1. Create and Initialize an SaiHandle or two depending on your requirements
  17:../../../libDaisy/src/hid/audio.h ****  *             2. Initialize the Audio Handle with the desired settings and the Initialized SaiHand
ARM GAS  C:\Users\jaude\AppData\Local\Temp\ccMKA3wm.s 			page 7


  18:../../../libDaisy/src/hid/audio.h ****  *             3. If the connected codec requires special configuration or initialization, do so
  19:../../../libDaisy/src/hid/audio.h ****  *             4. Write a callback method using either the AudioCallback or the InterleavingAudioCa
  20:../../../libDaisy/src/hid/audio.h ****  *             5. Start the Audio using one of the StartAudio function
  21:../../../libDaisy/src/hid/audio.h ****  */
  22:../../../libDaisy/src/hid/audio.h **** class AudioHandle
  23:../../../libDaisy/src/hid/audio.h **** {
  24:../../../libDaisy/src/hid/audio.h ****   public:
  25:../../../libDaisy/src/hid/audio.h ****     /** Manually configurable details about the Audio Engine */
  26:../../../libDaisy/src/hid/audio.h ****     /** TODO: Figure out how to get samplerate in here. */
  27:../../../libDaisy/src/hid/audio.h ****     struct Config
  28:../../../libDaisy/src/hid/audio.h ****     {
  29:../../../libDaisy/src/hid/audio.h ****         /** number of samples to process per callback */
  30:../../../libDaisy/src/hid/audio.h ****         size_t blocksize;
  31:../../../libDaisy/src/hid/audio.h **** 
  32:../../../libDaisy/src/hid/audio.h ****         /**< Sample rate of audio */
  33:../../../libDaisy/src/hid/audio.h ****         SaiHandle::Config::SampleRate samplerate;
  34:../../../libDaisy/src/hid/audio.h **** 
  35:../../../libDaisy/src/hid/audio.h ****         /** factor for adjustment before and after callback for hardware that may have extra headro
  36:../../../libDaisy/src/hid/audio.h ****         float postgain;
  37:../../../libDaisy/src/hid/audio.h **** 
  38:../../../libDaisy/src/hid/audio.h ****         /** factor for additional one-sided compensation to audio path for hardware that may
  39:../../../libDaisy/src/hid/audio.h ****          *  have unequal input/output ranges
  40:../../../libDaisy/src/hid/audio.h ****          */
  41:../../../libDaisy/src/hid/audio.h ****         float output_compensation;
  42:../../../libDaisy/src/hid/audio.h **** 
  43:../../../libDaisy/src/hid/audio.h ****         /** Sets default values for config struct */
  44:../../../libDaisy/src/hid/audio.h ****         Config()
  45:../../../libDaisy/src/hid/audio.h ****         : blocksize(48),
  46:../../../libDaisy/src/hid/audio.h ****           samplerate(SaiHandle::Config::SampleRate::SAI_48KHZ),
  47:../../../libDaisy/src/hid/audio.h ****           postgain(1.f),
  48:../../../libDaisy/src/hid/audio.h ****           output_compensation(1.f)
  49:../../../libDaisy/src/hid/audio.h ****         {
  50:../../../libDaisy/src/hid/audio.h ****         }
  51:../../../libDaisy/src/hid/audio.h ****     };
  52:../../../libDaisy/src/hid/audio.h **** 
  53:../../../libDaisy/src/hid/audio.h ****     enum class Result
  54:../../../libDaisy/src/hid/audio.h ****     {
  55:../../../libDaisy/src/hid/audio.h ****         OK,
  56:../../../libDaisy/src/hid/audio.h ****         ERR,
  57:../../../libDaisy/src/hid/audio.h ****     };
  58:../../../libDaisy/src/hid/audio.h **** 
  59:../../../libDaisy/src/hid/audio.h ****     /** Non-Interleaving input buffer
  60:../../../libDaisy/src/hid/audio.h ****      * Buffer arranged by float[chn][sample] 
  61:../../../libDaisy/src/hid/audio.h ****      * const so that the user can't modify the input
  62:../../../libDaisy/src/hid/audio.h ****      */
  63:../../../libDaisy/src/hid/audio.h ****     typedef const float* const* InputBuffer;
  64:../../../libDaisy/src/hid/audio.h **** 
  65:../../../libDaisy/src/hid/audio.h ****     /** Non-Interleaving output buffer
  66:../../../libDaisy/src/hid/audio.h ****      * Arranged by float[chn][sample] 
  67:../../../libDaisy/src/hid/audio.h ****      */
  68:../../../libDaisy/src/hid/audio.h ****     typedef float** OutputBuffer;
  69:../../../libDaisy/src/hid/audio.h **** 
  70:../../../libDaisy/src/hid/audio.h ****     /** Type for a Non-Interleaving audio callback 
  71:../../../libDaisy/src/hid/audio.h ****      * Non-Interleaving audio callbacks in daisy will be of this type
  72:../../../libDaisy/src/hid/audio.h ****      */
  73:../../../libDaisy/src/hid/audio.h ****     typedef void (*AudioCallback)(InputBuffer  in,
  74:../../../libDaisy/src/hid/audio.h ****                                   OutputBuffer out,
ARM GAS  C:\Users\jaude\AppData\Local\Temp\ccMKA3wm.s 			page 8


  75:../../../libDaisy/src/hid/audio.h ****                                   size_t       size);
  76:../../../libDaisy/src/hid/audio.h **** 
  77:../../../libDaisy/src/hid/audio.h ****     /** Interleaving Input buffer
  78:../../../libDaisy/src/hid/audio.h ****      ** audio is prepared as { L0, R0, L1, R1, . . . LN, RN }]
  79:../../../libDaisy/src/hid/audio.h ****      ** this is const, as the user shouldn't modify it
  80:../../../libDaisy/src/hid/audio.h ****     */
  81:../../../libDaisy/src/hid/audio.h ****     typedef const float* InterleavingInputBuffer;
  82:../../../libDaisy/src/hid/audio.h **** 
  83:../../../libDaisy/src/hid/audio.h ****     /** Interleaving Output buffer 
  84:../../../libDaisy/src/hid/audio.h ****      ** audio is prepared as { L0, R0, L1, R1, . . . LN, RN }
  85:../../../libDaisy/src/hid/audio.h ****     */
  86:../../../libDaisy/src/hid/audio.h ****     typedef float* InterleavingOutputBuffer;
  87:../../../libDaisy/src/hid/audio.h **** 
  88:../../../libDaisy/src/hid/audio.h ****     /** Interleaving Audio Callback 
  89:../../../libDaisy/src/hid/audio.h ****      * Interleaving audio callbacks in daisy must be of this type
  90:../../../libDaisy/src/hid/audio.h ****      */
  91:../../../libDaisy/src/hid/audio.h ****     typedef void (*InterleavingAudioCallback)(InterleavingInputBuffer  in,
  92:../../../libDaisy/src/hid/audio.h ****                                               InterleavingOutputBuffer out,
  93:../../../libDaisy/src/hid/audio.h ****                                               size_t                   size);
  94:../../../libDaisy/src/hid/audio.h **** 
  95:../../../libDaisy/src/hid/audio.h ****     AudioHandle() : pimpl_(nullptr) {}
  96:../../../libDaisy/src/hid/audio.h ****     ~AudioHandle() {}
  56              		.loc 5 96 5 is_stmt 1 view .LVU7
  57              		.loc 5 96 5 is_stmt 0 view .LVU8
  58              	.LBE249:
  59              		.loc 1 22 19 view .LVU9
  60 0000 7047     		bx	lr
  61              		.cfi_endproc
  62              	.LFE2555:
  64              		.weak	_ZN5daisy9DaisySeedD1Ev
  65              		.thumb_set _ZN5daisy9DaisySeedD1Ev,_ZN5daisy9DaisySeedD2Ev
  66 0002 00BF     		.section	.text._ZN7daisysp14AnalogBassDrumD2Ev,"axG",%progbits,_ZN7daisysp14AnalogBassDrumD5Ev,com
  67              		.align	1
  68              		.p2align 2,,3
  69              		.weak	_ZN7daisysp14AnalogBassDrumD2Ev
  70              		.syntax unified
  71              		.thumb
  72              		.thumb_func
  73              		.fpu fpv5-d16
  75              	_ZN7daisysp14AnalogBassDrumD2Ev:
  76              	.LVL1:
  77              	.LFB4268:
  78              		.file 6 "../../../DaisySP/Source/Drums/analogbassdrum.h"
   1:../../../DaisySP/Source/Drums/analogbassdrum.h **** /*
   2:../../../DaisySP/Source/Drums/analogbassdrum.h **** Copyright (c) 2020 Electrosmith, Corp, Emilie Gillet
   3:../../../DaisySP/Source/Drums/analogbassdrum.h **** 
   4:../../../DaisySP/Source/Drums/analogbassdrum.h **** Use of this source code is governed by an MIT-style
   5:../../../DaisySP/Source/Drums/analogbassdrum.h **** license that can be found in the LICENSE file or at
   6:../../../DaisySP/Source/Drums/analogbassdrum.h **** https://opensource.org/licenses/MIT.
   7:../../../DaisySP/Source/Drums/analogbassdrum.h **** */
   8:../../../DaisySP/Source/Drums/analogbassdrum.h **** 
   9:../../../DaisySP/Source/Drums/analogbassdrum.h **** #pragma once
  10:../../../DaisySP/Source/Drums/analogbassdrum.h **** #ifndef DSY_ANALOG_BD_H
  11:../../../DaisySP/Source/Drums/analogbassdrum.h **** #define DSY_ANALOG_BD_H
  12:../../../DaisySP/Source/Drums/analogbassdrum.h **** 
  13:../../../DaisySP/Source/Drums/analogbassdrum.h **** #include <stdint.h>
  14:../../../DaisySP/Source/Drums/analogbassdrum.h **** #ifdef __cplusplus
ARM GAS  C:\Users\jaude\AppData\Local\Temp\ccMKA3wm.s 			page 9


  15:../../../DaisySP/Source/Drums/analogbassdrum.h **** 
  16:../../../DaisySP/Source/Drums/analogbassdrum.h **** #include "Synthesis/oscillator.h"
  17:../../../DaisySP/Source/Drums/analogbassdrum.h **** #include "Filters/svf.h"
  18:../../../DaisySP/Source/Drums/analogbassdrum.h **** 
  19:../../../DaisySP/Source/Drums/analogbassdrum.h **** /** @file analogbassdrum.h */
  20:../../../DaisySP/Source/Drums/analogbassdrum.h **** 
  21:../../../DaisySP/Source/Drums/analogbassdrum.h **** namespace daisysp
  22:../../../DaisySP/Source/Drums/analogbassdrum.h **** {
  23:../../../DaisySP/Source/Drums/analogbassdrum.h **** /**  
  24:../../../DaisySP/Source/Drums/analogbassdrum.h ****        @brief 808 bass drum model, revisited.
  25:../../../DaisySP/Source/Drums/analogbassdrum.h ****        @author Ben Sergentanis
  26:../../../DaisySP/Source/Drums/analogbassdrum.h ****        @date Jan 2021 
  27:../../../DaisySP/Source/Drums/analogbassdrum.h ****        Ported from pichenettes/eurorack/plaits/dsp/drums/analog_bass_drum.h \n
  28:../../../DaisySP/Source/Drums/analogbassdrum.h ****        to an independent module. \n
  29:../../../DaisySP/Source/Drums/analogbassdrum.h ****        Original code written by Emilie Gillet in 2016. \n
  30:../../../DaisySP/Source/Drums/analogbassdrum.h **** */
  31:../../../DaisySP/Source/Drums/analogbassdrum.h **** class AnalogBassDrum
  32:../../../DaisySP/Source/Drums/analogbassdrum.h **** {
  33:../../../DaisySP/Source/Drums/analogbassdrum.h ****   public:
  34:../../../DaisySP/Source/Drums/analogbassdrum.h ****     AnalogBassDrum() {}
  35:../../../DaisySP/Source/Drums/analogbassdrum.h ****     ~AnalogBassDrum() {}
  79              		.loc 6 35 5 is_stmt 1 view -0
  80              		.cfi_startproc
  81              		@ args = 0, pretend = 0, frame = 0
  82              		@ frame_needed = 0, uses_anonymous_args = 0
  83              		@ link register save eliminated.
  84              	.LBB250:
  85              	.LBI250:
  86              		.file 7 "../../../DaisySP/Source/Filters/svf.h"
   1:../../../DaisySP/Source/Filters/svf.h **** /*
   2:../../../DaisySP/Source/Filters/svf.h **** Copyright (c) 2020 Electrosmith, Corp
   3:../../../DaisySP/Source/Filters/svf.h **** 
   4:../../../DaisySP/Source/Filters/svf.h **** Use of this source code is governed by an MIT-style
   5:../../../DaisySP/Source/Filters/svf.h **** license that can be found in the LICENSE file or at
   6:../../../DaisySP/Source/Filters/svf.h **** https://opensource.org/licenses/MIT.
   7:../../../DaisySP/Source/Filters/svf.h **** */
   8:../../../DaisySP/Source/Filters/svf.h **** 
   9:../../../DaisySP/Source/Filters/svf.h **** #pragma once
  10:../../../DaisySP/Source/Filters/svf.h **** #ifndef DSY_SVF_H
  11:../../../DaisySP/Source/Filters/svf.h **** #define DSY_SVF_H
  12:../../../DaisySP/Source/Filters/svf.h **** 
  13:../../../DaisySP/Source/Filters/svf.h **** namespace daisysp
  14:../../../DaisySP/Source/Filters/svf.h **** {
  15:../../../DaisySP/Source/Filters/svf.h **** /**      Double Sampled, Stable State Variable Filter
  16:../../../DaisySP/Source/Filters/svf.h **** 
  17:../../../DaisySP/Source/Filters/svf.h **** Credit to Andrew Simper from musicdsp.org
  18:../../../DaisySP/Source/Filters/svf.h **** 
  19:../../../DaisySP/Source/Filters/svf.h **** This is his "State Variable Filter (Double Sampled, Stable)"
  20:../../../DaisySP/Source/Filters/svf.h **** 
  21:../../../DaisySP/Source/Filters/svf.h **** Additional thanks to Laurent de Soras for stability limit, and 
  22:../../../DaisySP/Source/Filters/svf.h **** Stefan Diedrichsen for the correct notch output
  23:../../../DaisySP/Source/Filters/svf.h **** 
  24:../../../DaisySP/Source/Filters/svf.h **** Ported by: Stephen Hensley
  25:../../../DaisySP/Source/Filters/svf.h **** */
  26:../../../DaisySP/Source/Filters/svf.h **** class Svf
  27:../../../DaisySP/Source/Filters/svf.h **** {
  28:../../../DaisySP/Source/Filters/svf.h ****   public:
ARM GAS  C:\Users\jaude\AppData\Local\Temp\ccMKA3wm.s 			page 10


  29:../../../DaisySP/Source/Filters/svf.h ****     Svf() {}
  30:../../../DaisySP/Source/Filters/svf.h ****     ~Svf() {}
  87              		.loc 7 30 5 view .LVU11
  88              		.loc 7 30 5 is_stmt 0 view .LVU12
  89              	.LBE250:
  90              		.loc 6 35 24 view .LVU13
  91 0000 7047     		bx	lr
  92              		.cfi_endproc
  93              	.LFE4268:
  95              		.weak	_ZN7daisysp14AnalogBassDrumD1Ev
  96              		.thumb_set _ZN7daisysp14AnalogBassDrumD1Ev,_ZN7daisysp14AnalogBassDrumD2Ev
  97 0002 00BF     		.section	.text._ZN7daisysp6ChorusD2Ev,"axG",%progbits,_ZN7daisysp6ChorusD5Ev,comdat
  98              		.align	1
  99              		.p2align 2,,3
 100              		.weak	_ZN7daisysp6ChorusD2Ev
 101              		.syntax unified
 102              		.thumb
 103              		.thumb_func
 104              		.fpu fpv5-d16
 106              	_ZN7daisysp6ChorusD2Ev:
 107              	.LVL2:
 108              	.LFB4374:
 109              		.file 8 "../../../DaisySP/Source/Effects/chorus.h"
   1:../../../DaisySP/Source/Effects/chorus.h **** /*
   2:../../../DaisySP/Source/Effects/chorus.h **** Copyright (c) 2020 Electrosmith, Corp
   3:../../../DaisySP/Source/Effects/chorus.h **** 
   4:../../../DaisySP/Source/Effects/chorus.h **** Use of this source code is governed by an MIT-style
   5:../../../DaisySP/Source/Effects/chorus.h **** license that can be found in the LICENSE file or at
   6:../../../DaisySP/Source/Effects/chorus.h **** https://opensource.org/licenses/MIT.
   7:../../../DaisySP/Source/Effects/chorus.h **** */
   8:../../../DaisySP/Source/Effects/chorus.h **** 
   9:../../../DaisySP/Source/Effects/chorus.h **** #pragma once
  10:../../../DaisySP/Source/Effects/chorus.h **** #ifndef DSY_CHORUS_H
  11:../../../DaisySP/Source/Effects/chorus.h **** #define DSY_CHORUS_H
  12:../../../DaisySP/Source/Effects/chorus.h **** #ifdef __cplusplus
  13:../../../DaisySP/Source/Effects/chorus.h **** 
  14:../../../DaisySP/Source/Effects/chorus.h **** #include <stdint.h>
  15:../../../DaisySP/Source/Effects/chorus.h **** #include "Utility/delayline.h"
  16:../../../DaisySP/Source/Effects/chorus.h **** 
  17:../../../DaisySP/Source/Effects/chorus.h **** /** @file chorus.h */
  18:../../../DaisySP/Source/Effects/chorus.h **** 
  19:../../../DaisySP/Source/Effects/chorus.h **** namespace daisysp
  20:../../../DaisySP/Source/Effects/chorus.h **** {
  21:../../../DaisySP/Source/Effects/chorus.h **** /**  
  22:../../../DaisySP/Source/Effects/chorus.h ****     @brief Single Chorus engine. Used in Chorus.
  23:../../../DaisySP/Source/Effects/chorus.h ****     @author Ben Sergentanis
  24:../../../DaisySP/Source/Effects/chorus.h **** */
  25:../../../DaisySP/Source/Effects/chorus.h **** class ChorusEngine
  26:../../../DaisySP/Source/Effects/chorus.h **** {
  27:../../../DaisySP/Source/Effects/chorus.h ****   public:
  28:../../../DaisySP/Source/Effects/chorus.h ****     ChorusEngine() {}
  29:../../../DaisySP/Source/Effects/chorus.h ****     ~ChorusEngine() {}
  30:../../../DaisySP/Source/Effects/chorus.h **** 
  31:../../../DaisySP/Source/Effects/chorus.h ****     /** Initialize the module
  32:../../../DaisySP/Source/Effects/chorus.h ****         \param sample_rate Audio engine sample rate.
  33:../../../DaisySP/Source/Effects/chorus.h ****     */
  34:../../../DaisySP/Source/Effects/chorus.h ****     void Init(float sample_rate);
ARM GAS  C:\Users\jaude\AppData\Local\Temp\ccMKA3wm.s 			page 11


  35:../../../DaisySP/Source/Effects/chorus.h **** 
  36:../../../DaisySP/Source/Effects/chorus.h ****     /** Get the next sample
  37:../../../DaisySP/Source/Effects/chorus.h ****         \param in Sample to process
  38:../../../DaisySP/Source/Effects/chorus.h ****     */
  39:../../../DaisySP/Source/Effects/chorus.h ****     float Process(float in);
  40:../../../DaisySP/Source/Effects/chorus.h **** 
  41:../../../DaisySP/Source/Effects/chorus.h ****     /** How much to modulate the delay by.
  42:../../../DaisySP/Source/Effects/chorus.h ****         \param depth Works 0-1.
  43:../../../DaisySP/Source/Effects/chorus.h ****     */
  44:../../../DaisySP/Source/Effects/chorus.h ****     void SetLfoDepth(float depth);
  45:../../../DaisySP/Source/Effects/chorus.h **** 
  46:../../../DaisySP/Source/Effects/chorus.h ****     /** Set lfo frequency.
  47:../../../DaisySP/Source/Effects/chorus.h ****         \param freq Frequency in Hz
  48:../../../DaisySP/Source/Effects/chorus.h ****     */
  49:../../../DaisySP/Source/Effects/chorus.h ****     void SetLfoFreq(float freq);
  50:../../../DaisySP/Source/Effects/chorus.h **** 
  51:../../../DaisySP/Source/Effects/chorus.h ****     /** Set the internal delay rate. 
  52:../../../DaisySP/Source/Effects/chorus.h ****         \param delay Tuned for 0-1. Maps to .1 to 50 ms.
  53:../../../DaisySP/Source/Effects/chorus.h ****     */
  54:../../../DaisySP/Source/Effects/chorus.h ****     void SetDelay(float delay);
  55:../../../DaisySP/Source/Effects/chorus.h **** 
  56:../../../DaisySP/Source/Effects/chorus.h ****     /** Set the delay time in ms.
  57:../../../DaisySP/Source/Effects/chorus.h ****         \param ms Delay time in ms, 0 to 50 ms.
  58:../../../DaisySP/Source/Effects/chorus.h ****     */
  59:../../../DaisySP/Source/Effects/chorus.h ****     void SetDelayMs(float ms);
  60:../../../DaisySP/Source/Effects/chorus.h **** 
  61:../../../DaisySP/Source/Effects/chorus.h ****     /** Set the feedback amount.
  62:../../../DaisySP/Source/Effects/chorus.h ****         \param feedback Amount from 0-1.
  63:../../../DaisySP/Source/Effects/chorus.h ****     */
  64:../../../DaisySP/Source/Effects/chorus.h ****     void SetFeedback(float feedback);
  65:../../../DaisySP/Source/Effects/chorus.h **** 
  66:../../../DaisySP/Source/Effects/chorus.h ****   private:
  67:../../../DaisySP/Source/Effects/chorus.h ****     float                    sample_rate_;
  68:../../../DaisySP/Source/Effects/chorus.h ****     static constexpr int32_t kDelayLength
  69:../../../DaisySP/Source/Effects/chorus.h ****         = 2400; // 50 ms at 48kHz = .05 * 48000
  70:../../../DaisySP/Source/Effects/chorus.h **** 
  71:../../../DaisySP/Source/Effects/chorus.h ****     //triangle lfos
  72:../../../DaisySP/Source/Effects/chorus.h ****     float lfo_phase_;
  73:../../../DaisySP/Source/Effects/chorus.h ****     float lfo_freq_;
  74:../../../DaisySP/Source/Effects/chorus.h ****     float lfo_amp_;
  75:../../../DaisySP/Source/Effects/chorus.h **** 
  76:../../../DaisySP/Source/Effects/chorus.h ****     float feedback_;
  77:../../../DaisySP/Source/Effects/chorus.h **** 
  78:../../../DaisySP/Source/Effects/chorus.h ****     float delay_;
  79:../../../DaisySP/Source/Effects/chorus.h **** 
  80:../../../DaisySP/Source/Effects/chorus.h ****     DelayLine<float, kDelayLength> del_;
  81:../../../DaisySP/Source/Effects/chorus.h **** 
  82:../../../DaisySP/Source/Effects/chorus.h ****     float ProcessLfo();
  83:../../../DaisySP/Source/Effects/chorus.h **** };
  84:../../../DaisySP/Source/Effects/chorus.h **** 
  85:../../../DaisySP/Source/Effects/chorus.h **** //wraps up all of the chorus engines
  86:../../../DaisySP/Source/Effects/chorus.h **** /**  
  87:../../../DaisySP/Source/Effects/chorus.h ****     @brief Chorus Effect.
  88:../../../DaisySP/Source/Effects/chorus.h ****     @author Ben Sergentanis
  89:../../../DaisySP/Source/Effects/chorus.h ****     @date Jan 2021
  90:../../../DaisySP/Source/Effects/chorus.h ****     Based on https://www.izotope.com/en/learn/understanding-chorus-flangers-and-phasers-in-audio-pr
  91:../../../DaisySP/Source/Effects/chorus.h ****     and https://www.researchgate.net/publication/236629475_Implementing_Professional_Audio_Effects_
ARM GAS  C:\Users\jaude\AppData\Local\Temp\ccMKA3wm.s 			page 12


  92:../../../DaisySP/Source/Effects/chorus.h **** */
  93:../../../DaisySP/Source/Effects/chorus.h **** class Chorus
  94:../../../DaisySP/Source/Effects/chorus.h **** {
  95:../../../DaisySP/Source/Effects/chorus.h ****   public:
  96:../../../DaisySP/Source/Effects/chorus.h ****     Chorus() {}
  97:../../../DaisySP/Source/Effects/chorus.h ****     ~Chorus() {}
 110              		.loc 8 97 5 is_stmt 1 view -0
 111              		.cfi_startproc
 112              		@ args = 0, pretend = 0, frame = 0
 113              		@ frame_needed = 0, uses_anonymous_args = 0
 114              		@ link register save eliminated.
 115              		.loc 8 97 16 is_stmt 0 view .LVU15
 116 0000 7047     		bx	lr
 117              		.cfi_endproc
 118              	.LFE4374:
 120              		.weak	_ZN7daisysp6ChorusD1Ev
 121              		.thumb_set _ZN7daisysp6ChorusD1Ev,_ZN7daisysp6ChorusD2Ev
 122              		.section	.text._ZN7daisysp21VariableSawOscillatorD2Ev,"axG",%progbits,_ZN7daisysp21VariableSawOsci
 123              		.align	1
 124              		.p2align 2,,3
 125              		.weak	_ZN7daisysp21VariableSawOscillatorD2Ev
 126              		.syntax unified
 127              		.thumb
 128              		.thumb_func
 129              		.fpu fpv5-d16
 131              	_ZN7daisysp21VariableSawOscillatorD2Ev:
 132              	.LVL3:
 133              	.LFB4601:
 134              		.file 9 "../../../DaisySP/Source/Synthesis/variablesawosc.h"
   1:../../../DaisySP/Source/Synthesis/variablesawosc.h **** /*
   2:../../../DaisySP/Source/Synthesis/variablesawosc.h **** Copyright (c) 2020 Electrosmith, Corp, Emilie Gillet
   3:../../../DaisySP/Source/Synthesis/variablesawosc.h **** 
   4:../../../DaisySP/Source/Synthesis/variablesawosc.h **** Use of this source code is governed by an MIT-style
   5:../../../DaisySP/Source/Synthesis/variablesawosc.h **** license that can be found in the LICENSE file or at
   6:../../../DaisySP/Source/Synthesis/variablesawosc.h **** https://opensource.org/licenses/MIT.
   7:../../../DaisySP/Source/Synthesis/variablesawosc.h **** */
   8:../../../DaisySP/Source/Synthesis/variablesawosc.h **** 
   9:../../../DaisySP/Source/Synthesis/variablesawosc.h **** #pragma once
  10:../../../DaisySP/Source/Synthesis/variablesawosc.h **** #ifndef DSY_VARISAWOSCILLATOR_H
  11:../../../DaisySP/Source/Synthesis/variablesawosc.h **** #define DSY_VARISAWOSCILLATOR_H
  12:../../../DaisySP/Source/Synthesis/variablesawosc.h **** 
  13:../../../DaisySP/Source/Synthesis/variablesawosc.h **** #include <stdint.h>
  14:../../../DaisySP/Source/Synthesis/variablesawosc.h **** #ifdef __cplusplus
  15:../../../DaisySP/Source/Synthesis/variablesawosc.h **** 
  16:../../../DaisySP/Source/Synthesis/variablesawosc.h **** /** @file variablesawosc.h */
  17:../../../DaisySP/Source/Synthesis/variablesawosc.h **** namespace daisysp
  18:../../../DaisySP/Source/Synthesis/variablesawosc.h **** {
  19:../../../DaisySP/Source/Synthesis/variablesawosc.h **** /**  
  20:../../../DaisySP/Source/Synthesis/variablesawosc.h ****        @brief Variable Saw Oscillator. 
  21:../../../DaisySP/Source/Synthesis/variablesawosc.h ****        @author Ben Sergentanis
  22:../../../DaisySP/Source/Synthesis/variablesawosc.h ****        @date Dec 2020 
  23:../../../DaisySP/Source/Synthesis/variablesawosc.h ****        Saw with variable slope or notch. \n \n
  24:../../../DaisySP/Source/Synthesis/variablesawosc.h ****        Ported from pichenettes/eurorack/plaits/dsp/oscillator/variable_saw_oscillator.h \n 
  25:../../../DaisySP/Source/Synthesis/variablesawosc.h ****        \n to an independent module. \n
  26:../../../DaisySP/Source/Synthesis/variablesawosc.h ****        Original code written by Emilie Gillet in 2016. \n
  27:../../../DaisySP/Source/Synthesis/variablesawosc.h **** */
  28:../../../DaisySP/Source/Synthesis/variablesawosc.h **** class VariableSawOscillator
ARM GAS  C:\Users\jaude\AppData\Local\Temp\ccMKA3wm.s 			page 13


  29:../../../DaisySP/Source/Synthesis/variablesawosc.h **** {
  30:../../../DaisySP/Source/Synthesis/variablesawosc.h ****   public:
  31:../../../DaisySP/Source/Synthesis/variablesawosc.h ****     VariableSawOscillator() {}
  32:../../../DaisySP/Source/Synthesis/variablesawosc.h ****     ~VariableSawOscillator() {}
 135              		.loc 9 32 5 is_stmt 1 view -0
 136              		.cfi_startproc
 137              		@ args = 0, pretend = 0, frame = 0
 138              		@ frame_needed = 0, uses_anonymous_args = 0
 139              		@ link register save eliminated.
 140              		.loc 9 32 31 is_stmt 0 view .LVU17
 141 0000 7047     		bx	lr
 142              		.cfi_endproc
 143              	.LFE4601:
 145              		.weak	_ZN7daisysp21VariableSawOscillatorD1Ev
 146              		.thumb_set _ZN7daisysp21VariableSawOscillatorD1Ev,_ZN7daisysp21VariableSawOscillatorD2Ev
 147              		.section	.text._ZN7daisysp5MetroD2Ev,"axG",%progbits,_ZN7daisysp5MetroD5Ev,comdat
 148              		.align	1
 149              		.p2align 2,,3
 150              		.weak	_ZN7daisysp5MetroD2Ev
 151              		.syntax unified
 152              		.thumb
 153              		.thumb_func
 154              		.fpu fpv5-d16
 156              	_ZN7daisysp5MetroD2Ev:
 157              	.LVL4:
 158              	.LFB4660:
 159              		.file 10 "../../../DaisySP/Source/Utility/metro.h"
   1:../../../DaisySP/Source/Utility/metro.h **** /*
   2:../../../DaisySP/Source/Utility/metro.h **** Copyright (c) 2020 Electrosmith, Corp
   3:../../../DaisySP/Source/Utility/metro.h **** 
   4:../../../DaisySP/Source/Utility/metro.h **** Use of this source code is governed by an MIT-style
   5:../../../DaisySP/Source/Utility/metro.h **** license that can be found in the LICENSE file or at
   6:../../../DaisySP/Source/Utility/metro.h **** https://opensource.org/licenses/MIT.
   7:../../../DaisySP/Source/Utility/metro.h **** */
   8:../../../DaisySP/Source/Utility/metro.h **** 
   9:../../../DaisySP/Source/Utility/metro.h **** #pragma once
  10:../../../DaisySP/Source/Utility/metro.h **** #ifndef DSY_METRO_H
  11:../../../DaisySP/Source/Utility/metro.h **** #define DSY_METRO_H
  12:../../../DaisySP/Source/Utility/metro.h **** #include <stdint.h>
  13:../../../DaisySP/Source/Utility/metro.h **** #ifdef __cplusplus
  14:../../../DaisySP/Source/Utility/metro.h **** 
  15:../../../DaisySP/Source/Utility/metro.h **** namespace daisysp
  16:../../../DaisySP/Source/Utility/metro.h **** {
  17:../../../DaisySP/Source/Utility/metro.h **** /** Creates a clock signal at a specific frequency.
  18:../../../DaisySP/Source/Utility/metro.h **** */
  19:../../../DaisySP/Source/Utility/metro.h **** class Metro
  20:../../../DaisySP/Source/Utility/metro.h **** {
  21:../../../DaisySP/Source/Utility/metro.h ****   public:
  22:../../../DaisySP/Source/Utility/metro.h ****     Metro() {}
  23:../../../DaisySP/Source/Utility/metro.h ****     ~Metro() {}
 160              		.loc 10 23 5 is_stmt 1 view -0
 161              		.cfi_startproc
 162              		@ args = 0, pretend = 0, frame = 0
 163              		@ frame_needed = 0, uses_anonymous_args = 0
 164              		@ link register save eliminated.
 165              		.loc 10 23 15 is_stmt 0 view .LVU19
 166 0000 7047     		bx	lr
ARM GAS  C:\Users\jaude\AppData\Local\Temp\ccMKA3wm.s 			page 14


 167              		.cfi_endproc
 168              	.LFE4660:
 170              		.weak	_ZN7daisysp5MetroD1Ev
 171              		.thumb_set _ZN7daisysp5MetroD1Ev,_ZN7daisysp5MetroD2Ev
 172              		.section	.text._ZN7daisysp5HiHatINS_11SquareNoiseENS_9LinearVCAELb1EED2Ev,"axG",%progbits,_ZN7dais
 173              		.align	1
 174              		.p2align 2,,3
 175              		.weak	_ZN7daisysp5HiHatINS_11SquareNoiseENS_9LinearVCAELb1EED2Ev
 176              		.syntax unified
 177              		.thumb
 178              		.thumb_func
 179              		.fpu fpv5-d16
 181              	_ZN7daisysp5HiHatINS_11SquareNoiseENS_9LinearVCAELb1EED2Ev:
 182              	.LVL5:
 183              	.LFB5259:
 184              		.file 11 "../../../DaisySP/Source/Drums/hihat.h"
   1:../../../DaisySP/Source/Drums/hihat.h **** /*
   2:../../../DaisySP/Source/Drums/hihat.h **** Copyright (c) 2020 Electrosmith, Corp, Emilie Gillet
   3:../../../DaisySP/Source/Drums/hihat.h **** 
   4:../../../DaisySP/Source/Drums/hihat.h **** Use of this source code is governed by an MIT-style
   5:../../../DaisySP/Source/Drums/hihat.h **** license that can be found in the LICENSE file or at
   6:../../../DaisySP/Source/Drums/hihat.h **** https://opensource.org/licenses/MIT.
   7:../../../DaisySP/Source/Drums/hihat.h **** */
   8:../../../DaisySP/Source/Drums/hihat.h **** 
   9:../../../DaisySP/Source/Drums/hihat.h **** #pragma once
  10:../../../DaisySP/Source/Drums/hihat.h **** #ifndef DSY_HIHAT_H
  11:../../../DaisySP/Source/Drums/hihat.h **** #define DSY_HIHAT_H
  12:../../../DaisySP/Source/Drums/hihat.h **** 
  13:../../../DaisySP/Source/Drums/hihat.h **** #include "Filters/svf.h"
  14:../../../DaisySP/Source/Drums/hihat.h **** #include "Synthesis/oscillator.h"
  15:../../../DaisySP/Source/Drums/hihat.h **** 
  16:../../../DaisySP/Source/Drums/hihat.h **** #include <stdint.h>
  17:../../../DaisySP/Source/Drums/hihat.h **** #include <stdlib.h>
  18:../../../DaisySP/Source/Drums/hihat.h **** #ifdef __cplusplus
  19:../../../DaisySP/Source/Drums/hihat.h **** 
  20:../../../DaisySP/Source/Drums/hihat.h **** /** @file hihat.h */
  21:../../../DaisySP/Source/Drums/hihat.h **** 
  22:../../../DaisySP/Source/Drums/hihat.h **** namespace daisysp
  23:../../../DaisySP/Source/Drums/hihat.h **** {
  24:../../../DaisySP/Source/Drums/hihat.h **** /**  
  25:../../../DaisySP/Source/Drums/hihat.h ****        @brief 808 style "metallic noise" with 6 square oscillators.
  26:../../../DaisySP/Source/Drums/hihat.h ****        @author Ben Sergentanis
  27:../../../DaisySP/Source/Drums/hihat.h ****        @date Jan 2021
  28:../../../DaisySP/Source/Drums/hihat.h ****        Ported from pichenettes/eurorack/plaits/dsp/drums/hihat.h \n
  29:../../../DaisySP/Source/Drums/hihat.h ****        to an independent module. \n
  30:../../../DaisySP/Source/Drums/hihat.h ****        Original code written by Emilie Gillet in 2016. \n
  31:../../../DaisySP/Source/Drums/hihat.h **** */
  32:../../../DaisySP/Source/Drums/hihat.h **** class SquareNoise
  33:../../../DaisySP/Source/Drums/hihat.h **** {
  34:../../../DaisySP/Source/Drums/hihat.h ****   public:
  35:../../../DaisySP/Source/Drums/hihat.h ****     SquareNoise() {}
  36:../../../DaisySP/Source/Drums/hihat.h ****     ~SquareNoise() {}
  37:../../../DaisySP/Source/Drums/hihat.h **** 
  38:../../../DaisySP/Source/Drums/hihat.h ****     void Init(float sample_rate);
  39:../../../DaisySP/Source/Drums/hihat.h **** 
  40:../../../DaisySP/Source/Drums/hihat.h ****     float Process(float f0);
  41:../../../DaisySP/Source/Drums/hihat.h **** 
ARM GAS  C:\Users\jaude\AppData\Local\Temp\ccMKA3wm.s 			page 15


  42:../../../DaisySP/Source/Drums/hihat.h ****   private:
  43:../../../DaisySP/Source/Drums/hihat.h ****     uint32_t phase_[6];
  44:../../../DaisySP/Source/Drums/hihat.h **** };
  45:../../../DaisySP/Source/Drums/hihat.h **** 
  46:../../../DaisySP/Source/Drums/hihat.h **** /**  
  47:../../../DaisySP/Source/Drums/hihat.h ****        @brief Ring mod style metallic noise generator.
  48:../../../DaisySP/Source/Drums/hihat.h ****        @author Ben Sergentanis
  49:../../../DaisySP/Source/Drums/hihat.h ****        @date Jan 2021
  50:../../../DaisySP/Source/Drums/hihat.h ****        Ported from pichenettes/eurorack/plaits/dsp/drums/hihat.h \n
  51:../../../DaisySP/Source/Drums/hihat.h ****        to an independent module. \n
  52:../../../DaisySP/Source/Drums/hihat.h ****        Original code written by Emilie Gillet in 2016. \n
  53:../../../DaisySP/Source/Drums/hihat.h **** */
  54:../../../DaisySP/Source/Drums/hihat.h **** class RingModNoise
  55:../../../DaisySP/Source/Drums/hihat.h **** {
  56:../../../DaisySP/Source/Drums/hihat.h ****   public:
  57:../../../DaisySP/Source/Drums/hihat.h ****     RingModNoise() {}
  58:../../../DaisySP/Source/Drums/hihat.h ****     ~RingModNoise() {}
  59:../../../DaisySP/Source/Drums/hihat.h **** 
  60:../../../DaisySP/Source/Drums/hihat.h ****     void Init(float sample_rate);
  61:../../../DaisySP/Source/Drums/hihat.h **** 
  62:../../../DaisySP/Source/Drums/hihat.h ****     float Process(float f0);
  63:../../../DaisySP/Source/Drums/hihat.h **** 
  64:../../../DaisySP/Source/Drums/hihat.h ****   private:
  65:../../../DaisySP/Source/Drums/hihat.h ****     float      ProcessPair(Oscillator* osc, float f1, float f2);
  66:../../../DaisySP/Source/Drums/hihat.h ****     Oscillator oscillator_[6];
  67:../../../DaisySP/Source/Drums/hihat.h **** 
  68:../../../DaisySP/Source/Drums/hihat.h ****     float sample_rate_;
  69:../../../DaisySP/Source/Drums/hihat.h **** };
  70:../../../DaisySP/Source/Drums/hihat.h **** 
  71:../../../DaisySP/Source/Drums/hihat.h **** /**  
  72:../../../DaisySP/Source/Drums/hihat.h ****        @brief Swing type VCA
  73:../../../DaisySP/Source/Drums/hihat.h ****        @author Ben Sergentanis
  74:../../../DaisySP/Source/Drums/hihat.h ****        @date Jan 2021
  75:../../../DaisySP/Source/Drums/hihat.h ****        Ported from pichenettes/eurorack/plaits/dsp/drums/hihat.h \n
  76:../../../DaisySP/Source/Drums/hihat.h ****        to an independent module. \n
  77:../../../DaisySP/Source/Drums/hihat.h ****        Original code written by Emilie Gillet in 2016. \n
  78:../../../DaisySP/Source/Drums/hihat.h **** */
  79:../../../DaisySP/Source/Drums/hihat.h **** class SwingVCA
  80:../../../DaisySP/Source/Drums/hihat.h **** {
  81:../../../DaisySP/Source/Drums/hihat.h ****   public:
  82:../../../DaisySP/Source/Drums/hihat.h ****     float operator()(float s, float gain)
  83:../../../DaisySP/Source/Drums/hihat.h ****     {
  84:../../../DaisySP/Source/Drums/hihat.h ****         s *= s > 0.0f ? 10.0f : 0.1f;
  85:../../../DaisySP/Source/Drums/hihat.h ****         s = s / (1.0f + fabsf(s));
  86:../../../DaisySP/Source/Drums/hihat.h ****         return (s + 1.0f) * gain;
  87:../../../DaisySP/Source/Drums/hihat.h ****     }
  88:../../../DaisySP/Source/Drums/hihat.h **** };
  89:../../../DaisySP/Source/Drums/hihat.h **** 
  90:../../../DaisySP/Source/Drums/hihat.h **** /**  
  91:../../../DaisySP/Source/Drums/hihat.h ****        @brief Linear type VCA
  92:../../../DaisySP/Source/Drums/hihat.h ****        @author Ben Sergentanis
  93:../../../DaisySP/Source/Drums/hihat.h ****        @date Jan 2021
  94:../../../DaisySP/Source/Drums/hihat.h ****        Ported from pichenettes/eurorack/plaits/dsp/drums/hihat.h \n
  95:../../../DaisySP/Source/Drums/hihat.h ****        to an independent module. \n
  96:../../../DaisySP/Source/Drums/hihat.h ****        Original code written by Emilie Gillet in 2016. \n
  97:../../../DaisySP/Source/Drums/hihat.h **** */
  98:../../../DaisySP/Source/Drums/hihat.h **** class LinearVCA
ARM GAS  C:\Users\jaude\AppData\Local\Temp\ccMKA3wm.s 			page 16


  99:../../../DaisySP/Source/Drums/hihat.h **** {
 100:../../../DaisySP/Source/Drums/hihat.h ****   public:
 101:../../../DaisySP/Source/Drums/hihat.h ****     float operator()(float s, float gain) { return s * gain; }
 102:../../../DaisySP/Source/Drums/hihat.h **** };
 103:../../../DaisySP/Source/Drums/hihat.h **** 
 104:../../../DaisySP/Source/Drums/hihat.h **** /**  
 105:../../../DaisySP/Source/Drums/hihat.h ****        @brief 808 HH, with a few extra parameters to push things to the CY territory...
 106:../../../DaisySP/Source/Drums/hihat.h ****        @author Ben Sergentanis
 107:../../../DaisySP/Source/Drums/hihat.h ****        @date Jan 2021
 108:../../../DaisySP/Source/Drums/hihat.h ****        The template parameter MetallicNoiseSource allows another kind of "metallic \n
 109:../../../DaisySP/Source/Drums/hihat.h ****        noise" to be used, for results which are more similar to KR-55 or FM hi-hats. \n \n 
 110:../../../DaisySP/Source/Drums/hihat.h ****        Ported from pichenettes/eurorack/plaits/dsp/drums/hihat.h \n
 111:../../../DaisySP/Source/Drums/hihat.h ****        to an independent module. \n
 112:../../../DaisySP/Source/Drums/hihat.h ****        Original code written by Emilie Gillet in 2016. \n
 113:../../../DaisySP/Source/Drums/hihat.h **** */
 114:../../../DaisySP/Source/Drums/hihat.h **** template <typename MetallicNoiseSource = SquareNoise,
 115:../../../DaisySP/Source/Drums/hihat.h ****           typename VCA                 = LinearVCA,
 116:../../../DaisySP/Source/Drums/hihat.h ****           bool resonance               = true>
 117:../../../DaisySP/Source/Drums/hihat.h **** class HiHat
 118:../../../DaisySP/Source/Drums/hihat.h **** {
 119:../../../DaisySP/Source/Drums/hihat.h ****   public:
 120:../../../DaisySP/Source/Drums/hihat.h ****     HiHat() {}
 121:../../../DaisySP/Source/Drums/hihat.h ****     ~HiHat() {}
 185              		.loc 11 121 5 is_stmt 1 view -0
 186              		.cfi_startproc
 187              		@ args = 0, pretend = 0, frame = 0
 188              		@ frame_needed = 0, uses_anonymous_args = 0
 189              		@ link register save eliminated.
 190              	.LBB251:
 191              	.LBI251:
 192              		.loc 7 30 5 view .LVU21
 193              		.loc 7 30 5 is_stmt 0 view .LVU22
 194              	.LBE251:
 195              	.LBB252:
 196              	.LBI252:
 197              		.loc 7 30 5 is_stmt 1 view .LVU23
 198              		.loc 7 30 5 is_stmt 0 view .LVU24
 199              	.LBE252:
 200              	.LBB253:
 201              	.LBI253:
  36:../../../DaisySP/Source/Drums/hihat.h **** 
 202              		.loc 11 36 5 is_stmt 1 view .LVU25
  36:../../../DaisySP/Source/Drums/hihat.h **** 
 203              		.loc 11 36 5 is_stmt 0 view .LVU26
 204              	.LBE253:
 205              		.loc 11 121 15 view .LVU27
 206 0000 7047     		bx	lr
 207              		.cfi_endproc
 208              	.LFE5259:
 210              		.weak	_ZN7daisysp5HiHatINS_11SquareNoiseENS_9LinearVCAELb1EED1Ev
 211              		.thumb_set _ZN7daisysp5HiHatINS_11SquareNoiseENS_9LinearVCAELb1EED1Ev,_ZN7daisysp5HiHatINS_11Squar
 212 0002 00BF     		.section	.text.startup.main,"ax",%progbits
 213              		.align	1
 214              		.p2align 2,,3
 215              		.global	main
 216              		.syntax unified
 217              		.thumb
ARM GAS  C:\Users\jaude\AppData\Local\Temp\ccMKA3wm.s 			page 17


 218              		.thumb_func
 219              		.fpu fpv5-d16
 221              	main:
 222              	.LFB4683:
 223              		.file 12 "chorus.cpp"
   1:chorus.cpp    **** #include "daisy_seed.h"
   2:chorus.cpp    **** #include "daisysp.h"
   3:chorus.cpp    **** 
   4:chorus.cpp    **** using namespace daisy;
   5:chorus.cpp    **** using namespace daisysp;
   6:chorus.cpp    **** 
   7:chorus.cpp    **** DaisySeed hw;
   8:chorus.cpp    **** 
   9:chorus.cpp    **** Chorus                chorus;
  10:chorus.cpp    **** VariableSawOscillator osc;
  11:chorus.cpp    **** HiHat<>               hat;
  12:chorus.cpp    **** AnalogBassDrum        kick;
  13:chorus.cpp    **** 
  14:chorus.cpp    **** 
  15:chorus.cpp    **** Metro tick;
  16:chorus.cpp    **** 
  17:chorus.cpp    **** uint8_t h_patt = 0B11111111;
  18:chorus.cpp    **** uint8_t k_patt = 0B10001000;
  19:chorus.cpp    **** uint8_t pos    = 0B10000000;
  20:chorus.cpp    **** 
  21:chorus.cpp    **** bool bass_note; // Toggles between root/fifth
  22:chorus.cpp    **** 
  23:chorus.cpp    **** float ProcessDrums()
  24:chorus.cpp    **** {
  25:chorus.cpp    ****     bool t = tick.Process();
  26:chorus.cpp    ****     pos    = pos >> t;
  27:chorus.cpp    **** 
  28:chorus.cpp    ****     if(pos == 0 && t)
  29:chorus.cpp    ****     {
  30:chorus.cpp    ****         pos       = 0B10000000;
  31:chorus.cpp    ****         bass_note = !bass_note;
  32:chorus.cpp    ****         osc.SetFreq(mtof(bass_note ? 31.f : 24.f));
  33:chorus.cpp    ****     }
  34:chorus.cpp    **** 
  35:chorus.cpp    ****     float sig = (hat.Process(t && pos & (h_patt)) * .5f);
  36:chorus.cpp    ****     sig += (kick.Process(t && pos & (k_patt)) * 12.4f);
  37:chorus.cpp    ****     sig += (osc.Process() * 0.05f);
  38:chorus.cpp    **** 
  39:chorus.cpp    ****     return sig * 8.f;
  40:chorus.cpp    **** }
  41:chorus.cpp    **** 
  42:chorus.cpp    **** void AudioCallback(AudioHandle::InputBuffer  in,
  43:chorus.cpp    ****                    AudioHandle::OutputBuffer out,
  44:chorus.cpp    ****                    size_t                    size)
  45:chorus.cpp    **** {
  46:chorus.cpp    ****     for(size_t i = 0; i < size; i++)
  47:chorus.cpp    ****     {
  48:chorus.cpp    ****         chorus.Process(ProcessDrums());
  49:chorus.cpp    ****         out[0][i] = chorus.GetLeft();
  50:chorus.cpp    ****         out[1][i] = chorus.GetRight();
  51:chorus.cpp    ****     }
  52:chorus.cpp    **** }
ARM GAS  C:\Users\jaude\AppData\Local\Temp\ccMKA3wm.s 			page 18


  53:chorus.cpp    **** 
  54:chorus.cpp    **** int main(void)
  55:chorus.cpp    **** {
 224              		.loc 12 55 1 is_stmt 1 view -0
 225              		.cfi_startproc
 226              		@ args = 0, pretend = 0, frame = 0
 227              		@ frame_needed = 0, uses_anonymous_args = 0
  56:chorus.cpp    ****     hw.Configure();
 228              		.loc 12 56 5 view .LVU29
  55:chorus.cpp    ****     hw.Configure();
 229              		.loc 12 55 1 is_stmt 0 view .LVU30
 230 0000 38B5     		push	{r3, r4, r5, lr}
 231              		.cfi_def_cfa_offset 16
 232              		.cfi_offset 3, -16
 233              		.cfi_offset 4, -12
 234              		.cfi_offset 5, -8
 235              		.cfi_offset 14, -4
 236              		.loc 12 56 17 view .LVU31
 237 0002 6D48     		ldr	r0, .L13+16
 238              	.LBB296:
 239              	.LBB297:
 122:../../../DaisySP/Source/Drums/hihat.h **** 
 123:../../../DaisySP/Source/Drums/hihat.h ****     /** Initialize the module
 124:../../../DaisySP/Source/Drums/hihat.h ****         \param sample_rate Audio engine sample rate
 125:../../../DaisySP/Source/Drums/hihat.h ****     */
 126:../../../DaisySP/Source/Drums/hihat.h ****     void Init(float sample_rate)
 127:../../../DaisySP/Source/Drums/hihat.h ****     {
 128:../../../DaisySP/Source/Drums/hihat.h ****         sample_rate_ = sample_rate;
 240              		.loc 11 128 22 view .LVU32
 241 0004 6D4C     		ldr	r4, .L13+20
 242              	.LBE297:
 243              	.LBE296:
  57:chorus.cpp    ****     hw.Init();
  58:chorus.cpp    ****     hw.SetAudioBlockSize(4);
  59:chorus.cpp    ****     float sample_rate = hw.AudioSampleRate();
  60:chorus.cpp    **** 
  61:chorus.cpp    ****     chorus.Init(sample_rate);
  62:chorus.cpp    ****     chorus.SetLfoFreq(.33f, .2f);
  63:chorus.cpp    ****     chorus.SetLfoDepth(1.f, 1.f);
  64:chorus.cpp    ****     chorus.SetDelay(.75f, .9f);
  65:chorus.cpp    **** 
  66:chorus.cpp    ****     tick.Init(8.f, sample_rate);
  67:chorus.cpp    **** 
  68:chorus.cpp    ****     hat.Init(sample_rate);
  69:chorus.cpp    ****     hat.SetDecay(.6f);
  70:chorus.cpp    **** 
  71:chorus.cpp    ****     kick.Init(sample_rate);
  72:chorus.cpp    **** 
  73:chorus.cpp    ****     bass_note = true;
 244              		.loc 12 73 15 view .LVU33
 245 0006 6E4D     		ldr	r5, .L13+24
  55:chorus.cpp    ****     hw.Configure();
 246              		.loc 12 55 1 view .LVU34
 247 0008 2DED088B 		vpush.64	{d8, d9, d10, d11}
 248              		.cfi_def_cfa_offset 48
 249              		.cfi_offset 80, -48
 250              		.cfi_offset 81, -44
ARM GAS  C:\Users\jaude\AppData\Local\Temp\ccMKA3wm.s 			page 19


 251              		.cfi_offset 82, -40
 252              		.cfi_offset 83, -36
 253              		.cfi_offset 84, -32
 254              		.cfi_offset 85, -28
 255              		.cfi_offset 86, -24
 256              		.cfi_offset 87, -20
  56:chorus.cpp    ****     hw.Init();
 257              		.loc 12 56 17 view .LVU35
 258 000c FFF7FEFF 		bl	_ZN5daisy9DaisySeed9ConfigureEv
 259              	.LVL6:
  57:chorus.cpp    ****     hw.Init();
 260              		.loc 12 57 5 is_stmt 1 view .LVU36
  57:chorus.cpp    ****     hw.Init();
 261              		.loc 12 57 12 is_stmt 0 view .LVU37
 262 0010 0021     		movs	r1, #0
 263 0012 6948     		ldr	r0, .L13+16
 264 0014 FFF7FEFF 		bl	_ZN5daisy9DaisySeed4InitEb
 265              	.LVL7:
  58:chorus.cpp    ****     float sample_rate = hw.AudioSampleRate();
 266              		.loc 12 58 5 is_stmt 1 view .LVU38
  58:chorus.cpp    ****     float sample_rate = hw.AudioSampleRate();
 267              		.loc 12 58 25 is_stmt 0 view .LVU39
 268 0018 0421     		movs	r1, #4
 269 001a 6748     		ldr	r0, .L13+16
 270 001c FFF7FEFF 		bl	_ZN5daisy9DaisySeed17SetAudioBlockSizeEj
 271              	.LVL8:
  59:chorus.cpp    **** 
 272              		.loc 12 59 5 is_stmt 1 view .LVU40
  62:chorus.cpp    ****     chorus.SetLfoDepth(1.f, 1.f);
 273              		.loc 12 62 22 is_stmt 0 view .LVU41
 274 0020 9FED68AA 		vldr.32	s20, .L13+28
  59:chorus.cpp    **** 
 275              		.loc 12 59 43 view .LVU42
 276 0024 6448     		ldr	r0, .L13+16
 277 0026 FFF7FEFF 		bl	_ZN5daisy9DaisySeed15AudioSampleRateEv
 278              	.LVL9:
  61:chorus.cpp    ****     chorus.SetLfoFreq(.33f, .2f);
 279              		.loc 12 61 16 view .LVU43
 280 002a 6748     		ldr	r0, .L13+32
  59:chorus.cpp    **** 
 281              		.loc 12 59 43 view .LVU44
 282 002c B0EE40BA 		vmov.f32	s22, s0
 283              	.LVL10:
  61:chorus.cpp    ****     chorus.SetLfoFreq(.33f, .2f);
 284              		.loc 12 61 5 is_stmt 1 view .LVU45
  61:chorus.cpp    ****     chorus.SetLfoFreq(.33f, .2f);
 285              		.loc 12 61 16 is_stmt 0 view .LVU46
 286 0030 FFF7FEFF 		bl	_ZN7daisysp6Chorus4InitEf
 287              	.LVL11:
  62:chorus.cpp    ****     chorus.SetLfoDepth(1.f, 1.f);
 288              		.loc 12 62 5 is_stmt 1 view .LVU47
  62:chorus.cpp    ****     chorus.SetLfoDepth(1.f, 1.f);
 289              		.loc 12 62 22 is_stmt 0 view .LVU48
 290 0034 F0EE4A0A 		vmov.f32	s1, s20
 291 0038 9FED640A 		vldr.32	s0, .L13+36
 292 003c 6248     		ldr	r0, .L13+32
 293 003e FFF7FEFF 		bl	_ZN7daisysp6Chorus10SetLfoFreqEff
ARM GAS  C:\Users\jaude\AppData\Local\Temp\ccMKA3wm.s 			page 20


 294              	.LVL12:
  63:chorus.cpp    ****     chorus.SetDelay(.75f, .9f);
 295              		.loc 12 63 5 is_stmt 1 view .LVU49
  63:chorus.cpp    ****     chorus.SetDelay(.75f, .9f);
 296              		.loc 12 63 23 is_stmt 0 view .LVU50
 297 0042 F7EE000A 		vmov.f32	s1, #1.0e+0
 298 0046 6048     		ldr	r0, .L13+32
 299              	.LBB419:
 300              	.LBB413:
 129:../../../DaisySP/Source/Drums/hihat.h **** 
 130:../../../DaisySP/Source/Drums/hihat.h ****         trig_ = false;
 131:../../../DaisySP/Source/Drums/hihat.h **** 
 132:../../../DaisySP/Source/Drums/hihat.h ****         envelope_     = 0.0f;
 301              		.loc 11 132 23 view .LVU51
 302 0048 DFED61AA 		vldr.32	s21, .L13+40
 303              	.LBE413:
 304              	.LBE419:
  63:chorus.cpp    ****     chorus.SetDelay(.75f, .9f);
 305              		.loc 12 63 23 view .LVU52
 306 004c B0EE600A 		vmov.f32	s0, s1
 307 0050 FFF7FEFF 		bl	_ZN7daisysp6Chorus11SetLfoDepthEff
 308              	.LVL13:
  64:chorus.cpp    **** 
 309              		.loc 12 64 5 is_stmt 1 view .LVU53
  64:chorus.cpp    **** 
 310              		.loc 12 64 20 is_stmt 0 view .LVU54
 311 0054 B6EE080A 		vmov.f32	s0, #7.5e-1
 312 0058 5B48     		ldr	r0, .L13+32
 313 005a DFED5E0A 		vldr.32	s1, .L13+44
 314 005e FFF7FEFF 		bl	_ZN7daisysp6Chorus8SetDelayEff
 315              	.LVL14:
  66:chorus.cpp    **** 
 316              		.loc 12 66 5 is_stmt 1 view .LVU55
  66:chorus.cpp    **** 
 317              		.loc 12 66 14 is_stmt 0 view .LVU56
 318 0062 F0EE4B0A 		vmov.f32	s1, s22
 319 0066 B2EE000A 		vmov.f32	s0, #8.0e+0
 320 006a 5B48     		ldr	r0, .L13+48
 321 006c FFF7FEFF 		bl	_ZN7daisysp5Metro4InitEff
 322              	.LVL15:
  68:chorus.cpp    ****     hat.SetDecay(.6f);
 323              		.loc 12 68 5 is_stmt 1 view .LVU57
 324              	.LBB420:
 325              	.LBI296:
 126:../../../DaisySP/Source/Drums/hihat.h ****     {
 326              		.loc 11 126 10 view .LVU58
 327              	.LBB414:
 328              	.LBB298:
 329              	.LBB299:
 330              	.LBB300:
 331              	.LBB301:
 332              	.LBB302:
 333              		.file 13 "../../../DaisySP/Source/Utility/dsp.h"
   1:../../../DaisySP/Source/Utility/dsp.h **** /*
   2:../../../DaisySP/Source/Utility/dsp.h **** Copyright (c) 2020 Electrosmith, Corp, Emilie Gillet
   3:../../../DaisySP/Source/Utility/dsp.h **** 
   4:../../../DaisySP/Source/Utility/dsp.h **** Use of this source code is governed by an MIT-style
ARM GAS  C:\Users\jaude\AppData\Local\Temp\ccMKA3wm.s 			page 21


   5:../../../DaisySP/Source/Utility/dsp.h **** license that can be found in the LICENSE file or at
   6:../../../DaisySP/Source/Utility/dsp.h **** https://opensource.org/licenses/MIT.
   7:../../../DaisySP/Source/Utility/dsp.h **** */
   8:../../../DaisySP/Source/Utility/dsp.h **** 
   9:../../../DaisySP/Source/Utility/dsp.h **** /** Helpful defines, functions, and other utilities for use in/with daisysp modules.
  10:../../../DaisySP/Source/Utility/dsp.h **** */
  11:../../../DaisySP/Source/Utility/dsp.h **** #pragma once
  12:../../../DaisySP/Source/Utility/dsp.h **** #ifndef DSY_CORE_DSP
  13:../../../DaisySP/Source/Utility/dsp.h **** #define DSY_CORE_DSP
  14:../../../DaisySP/Source/Utility/dsp.h **** #include <cassert>
  15:../../../DaisySP/Source/Utility/dsp.h **** #include <cstdint>
  16:../../../DaisySP/Source/Utility/dsp.h **** #include <random>
  17:../../../DaisySP/Source/Utility/dsp.h **** #include <cmath>
  18:../../../DaisySP/Source/Utility/dsp.h **** 
  19:../../../DaisySP/Source/Utility/dsp.h **** /** PIs
  20:../../../DaisySP/Source/Utility/dsp.h **** */
  21:../../../DaisySP/Source/Utility/dsp.h **** #define PI_F 3.1415927410125732421875f
  22:../../../DaisySP/Source/Utility/dsp.h **** #define TWOPI_F (2.0f * PI_F)
  23:../../../DaisySP/Source/Utility/dsp.h **** #define HALFPI_F (PI_F * 0.5f)
  24:../../../DaisySP/Source/Utility/dsp.h **** #define DSY_MIN(in, mn) (in < mn ? in : mn)
  25:../../../DaisySP/Source/Utility/dsp.h **** #define DSY_MAX(in, mx) (in > mx ? in : mx)
  26:../../../DaisySP/Source/Utility/dsp.h **** #define DSY_CLAMP(in, mn, mx) (DSY_MIN(DSY_MAX(in, mn), mx))
  27:../../../DaisySP/Source/Utility/dsp.h **** #define DSY_COUNTOF(_arr) (sizeof(_arr) / sizeof(_arr[0]))
  28:../../../DaisySP/Source/Utility/dsp.h **** 
  29:../../../DaisySP/Source/Utility/dsp.h **** namespace daisysp
  30:../../../DaisySP/Source/Utility/dsp.h **** {
  31:../../../DaisySP/Source/Utility/dsp.h **** //Avoids division for random floats. e.g. rand() * kRandFrac
  32:../../../DaisySP/Source/Utility/dsp.h **** static constexpr float kRandFrac = 1.f / (float)RAND_MAX;
  33:../../../DaisySP/Source/Utility/dsp.h **** 
  34:../../../DaisySP/Source/Utility/dsp.h **** //Convert from semitones to other units. e.g. 2 ^ (kOneTwelfth * x)
  35:../../../DaisySP/Source/Utility/dsp.h **** static constexpr float kOneTwelfth = 1.f / 12.f;
  36:../../../DaisySP/Source/Utility/dsp.h **** 
  37:../../../DaisySP/Source/Utility/dsp.h **** /** efficient floating point min/max
  38:../../../DaisySP/Source/Utility/dsp.h **** c/o stephen mccaul
  39:../../../DaisySP/Source/Utility/dsp.h **** */
  40:../../../DaisySP/Source/Utility/dsp.h **** inline float fmax(float a, float b)
  41:../../../DaisySP/Source/Utility/dsp.h **** {
  42:../../../DaisySP/Source/Utility/dsp.h ****     float r;
  43:../../../DaisySP/Source/Utility/dsp.h **** #ifdef __arm__
  44:../../../DaisySP/Source/Utility/dsp.h ****     asm("vmaxnm.f32 %[d], %[n], %[m]" : [d] "=t"(r) : [n] "t"(a), [m] "t"(b) :);
  45:../../../DaisySP/Source/Utility/dsp.h **** #else
  46:../../../DaisySP/Source/Utility/dsp.h ****     r = (a > b) ? a : b;
  47:../../../DaisySP/Source/Utility/dsp.h **** #endif // __arm__
  48:../../../DaisySP/Source/Utility/dsp.h ****     return r;
  49:../../../DaisySP/Source/Utility/dsp.h **** }
  50:../../../DaisySP/Source/Utility/dsp.h **** 
  51:../../../DaisySP/Source/Utility/dsp.h **** inline float fmin(float a, float b)
  52:../../../DaisySP/Source/Utility/dsp.h **** {
  53:../../../DaisySP/Source/Utility/dsp.h ****     float r;
  54:../../../DaisySP/Source/Utility/dsp.h **** #ifdef __arm__
  55:../../../DaisySP/Source/Utility/dsp.h ****     asm("vminnm.f32 %[d], %[n], %[m]" : [d] "=t"(r) : [n] "t"(a), [m] "t"(b) :);
 334              		.loc 13 55 5 is_stmt 0 view .LVU59
 335 0070 B7EE005A 		vmov.f32	s10, #1.0e+0
 336              	.LBE302:
 337              	.LBE301:
 338              	.LBE300:
 339              	.LBE299:
ARM GAS  C:\Users\jaude\AppData\Local\Temp\ccMKA3wm.s 			page 22


 340              	.LBE298:
 341              	.LBB322:
 342              	.LBB323:
 343              	.LBB324:
 344              	.LBB325:
  44:../../../DaisySP/Source/Utility/dsp.h **** #else
 345              		.loc 13 44 5 view .LVU60
 346              		.syntax unified
 347              	@ 44 "../../../DaisySP/Source/Utility/dsp.h" 1
 348 0074 8AFE2A7A 		vmaxnm.f32 s14, s20, s21
 349              	@ 0 "" 2
 350              		.thumb
 351              		.syntax unified
 352              	.LBE325:
 353              	.LBE324:
 133:../../../DaisySP/Source/Drums/hihat.h ****         noise_clock_  = 0.0f;
 134:../../../DaisySP/Source/Drums/hihat.h ****         noise_sample_ = 0.0f;
 135:../../../DaisySP/Source/Drums/hihat.h ****         sustain_gain_ = 0.0f;
 136:../../../DaisySP/Source/Drums/hihat.h **** 
 137:../../../DaisySP/Source/Drums/hihat.h ****         SetFreq(3000.f);
 138:../../../DaisySP/Source/Drums/hihat.h ****         SetTone(.5f);
 139:../../../DaisySP/Source/Drums/hihat.h ****         SetDecay(.2f);
 140:../../../DaisySP/Source/Drums/hihat.h ****         SetNoisiness(.8f);
 141:../../../DaisySP/Source/Drums/hihat.h ****         SetAccent(.8f);
 142:../../../DaisySP/Source/Drums/hihat.h ****         SetSustain(false);
 143:../../../DaisySP/Source/Drums/hihat.h **** 
 144:../../../DaisySP/Source/Drums/hihat.h ****         metallic_noise_.Init(sample_rate_);
 145:../../../DaisySP/Source/Drums/hihat.h ****         noise_coloration_svf_.Init(sample_rate_);
 146:../../../DaisySP/Source/Drums/hihat.h ****         hpf_.Init(sample_rate_);
 147:../../../DaisySP/Source/Drums/hihat.h ****     }
 148:../../../DaisySP/Source/Drums/hihat.h **** 
 149:../../../DaisySP/Source/Drums/hihat.h ****     /** Get the next sample
 150:../../../DaisySP/Source/Drums/hihat.h ****         \param trigger Hit the hihat with true. Defaults to false.
 151:../../../DaisySP/Source/Drums/hihat.h ****     */
 152:../../../DaisySP/Source/Drums/hihat.h ****     float Process(bool trigger = false)
 153:../../../DaisySP/Source/Drums/hihat.h ****     {
 154:../../../DaisySP/Source/Drums/hihat.h ****         const float envelope_decay
 155:../../../DaisySP/Source/Drums/hihat.h ****             = 1.0f - 0.003f * SemitonesToRatio(-decay_ * 84.0f);
 156:../../../DaisySP/Source/Drums/hihat.h ****         const float cut_decay
 157:../../../DaisySP/Source/Drums/hihat.h ****             = 1.0f - 0.0025f * SemitonesToRatio(-decay_ * 36.0f);
 158:../../../DaisySP/Source/Drums/hihat.h **** 
 159:../../../DaisySP/Source/Drums/hihat.h ****         if(trigger || trig_)
 160:../../../DaisySP/Source/Drums/hihat.h ****         {
 161:../../../DaisySP/Source/Drums/hihat.h ****             trig_ = false;
 162:../../../DaisySP/Source/Drums/hihat.h **** 
 163:../../../DaisySP/Source/Drums/hihat.h ****             envelope_
 164:../../../DaisySP/Source/Drums/hihat.h ****                 = (1.5f + 0.5f * (1.0f - decay_)) * (0.3f + 0.7f * accent_);
 165:../../../DaisySP/Source/Drums/hihat.h ****         }
 166:../../../DaisySP/Source/Drums/hihat.h **** 
 167:../../../DaisySP/Source/Drums/hihat.h ****         // Process the metallic noise.
 168:../../../DaisySP/Source/Drums/hihat.h ****         float out = metallic_noise_.Process(2.0f * f0_);
 169:../../../DaisySP/Source/Drums/hihat.h **** 
 170:../../../DaisySP/Source/Drums/hihat.h ****         // Apply BPF on the metallic noise.
 171:../../../DaisySP/Source/Drums/hihat.h ****         float cutoff = 150.0f / sample_rate_ * SemitonesToRatio(tone_ * 72.0f);
 172:../../../DaisySP/Source/Drums/hihat.h **** 
 173:../../../DaisySP/Source/Drums/hihat.h ****         cutoff = fclamp(cutoff, 0.0f, 16000.0f / sample_rate_);
 174:../../../DaisySP/Source/Drums/hihat.h **** 
ARM GAS  C:\Users\jaude\AppData\Local\Temp\ccMKA3wm.s 			page 23


 175:../../../DaisySP/Source/Drums/hihat.h **** 
 176:../../../DaisySP/Source/Drums/hihat.h ****         noise_coloration_svf_.SetFreq(cutoff * sample_rate_);
 177:../../../DaisySP/Source/Drums/hihat.h ****         noise_coloration_svf_.SetRes(resonance ? 3.0f + 6.0f * tone_ : 1.0f);
 178:../../../DaisySP/Source/Drums/hihat.h **** 
 179:../../../DaisySP/Source/Drums/hihat.h ****         noise_coloration_svf_.Process(out);
 180:../../../DaisySP/Source/Drums/hihat.h ****         out = noise_coloration_svf_.Band();
 181:../../../DaisySP/Source/Drums/hihat.h **** 
 182:../../../DaisySP/Source/Drums/hihat.h ****         // This is not at all part of the 808 circuit! But to add more variety, we
 183:../../../DaisySP/Source/Drums/hihat.h ****         // add a variable amount of clocked noise to the output of the 6 schmitt
 184:../../../DaisySP/Source/Drums/hihat.h ****         // trigger oscillators.
 185:../../../DaisySP/Source/Drums/hihat.h ****         float noise_f = f0_ * (16.0f + 16.0f * (1.0f - noisiness_));
 186:../../../DaisySP/Source/Drums/hihat.h ****         noise_f       = fclamp(noise_f, 0.0f, 0.5f);
 187:../../../DaisySP/Source/Drums/hihat.h **** 
 188:../../../DaisySP/Source/Drums/hihat.h ****         noise_clock_ += noise_f;
 189:../../../DaisySP/Source/Drums/hihat.h ****         if(noise_clock_ >= 1.0f)
 190:../../../DaisySP/Source/Drums/hihat.h ****         {
 191:../../../DaisySP/Source/Drums/hihat.h ****             noise_clock_ -= 1.0f;
 192:../../../DaisySP/Source/Drums/hihat.h ****             noise_sample_ = rand() * kRandFrac - 0.5f;
 193:../../../DaisySP/Source/Drums/hihat.h ****         }
 194:../../../DaisySP/Source/Drums/hihat.h ****         out += noisiness_ * (noise_sample_ - out);
 195:../../../DaisySP/Source/Drums/hihat.h **** 
 196:../../../DaisySP/Source/Drums/hihat.h ****         // Apply VCA.
 197:../../../DaisySP/Source/Drums/hihat.h ****         sustain_gain_ = accent_ * decay_;
 198:../../../DaisySP/Source/Drums/hihat.h ****         VCA vca;
 199:../../../DaisySP/Source/Drums/hihat.h ****         envelope_ *= envelope_ > 0.5f ? envelope_decay : cut_decay;
 200:../../../DaisySP/Source/Drums/hihat.h ****         out = vca(out, sustain_ ? sustain_gain_ : envelope_);
 201:../../../DaisySP/Source/Drums/hihat.h **** 
 202:../../../DaisySP/Source/Drums/hihat.h ****         hpf_.SetFreq(cutoff * sample_rate_);
 203:../../../DaisySP/Source/Drums/hihat.h ****         hpf_.SetRes(.5f);
 204:../../../DaisySP/Source/Drums/hihat.h ****         hpf_.Process(out);
 205:../../../DaisySP/Source/Drums/hihat.h ****         out = hpf_.High();
 206:../../../DaisySP/Source/Drums/hihat.h **** 
 207:../../../DaisySP/Source/Drums/hihat.h ****         return out;
 208:../../../DaisySP/Source/Drums/hihat.h ****     }
 209:../../../DaisySP/Source/Drums/hihat.h **** 
 210:../../../DaisySP/Source/Drums/hihat.h ****     /** Trigger the hihat */
 211:../../../DaisySP/Source/Drums/hihat.h ****     void Trig() { trig_ = true; }
 212:../../../DaisySP/Source/Drums/hihat.h **** 
 213:../../../DaisySP/Source/Drums/hihat.h ****     /** Make the hihat ring out infinitely.
 214:../../../DaisySP/Source/Drums/hihat.h ****         \param sustain True = infinite sustain.
 215:../../../DaisySP/Source/Drums/hihat.h ****     */
 216:../../../DaisySP/Source/Drums/hihat.h ****     void SetSustain(bool sustain) { sustain_ = sustain; }
 217:../../../DaisySP/Source/Drums/hihat.h **** 
 218:../../../DaisySP/Source/Drums/hihat.h ****     /** Set how much accent to use
 219:../../../DaisySP/Source/Drums/hihat.h ****         \param accent Works 0-1.
 220:../../../DaisySP/Source/Drums/hihat.h ****     */
 221:../../../DaisySP/Source/Drums/hihat.h ****     void SetAccent(float accent) { accent_ = fclamp(accent, 0.f, 1.f); }
 222:../../../DaisySP/Source/Drums/hihat.h **** 
 223:../../../DaisySP/Source/Drums/hihat.h ****     /** Set the hihat tone's root frequency
 224:../../../DaisySP/Source/Drums/hihat.h ****         \param f0 Freq in Hz
 225:../../../DaisySP/Source/Drums/hihat.h ****     */
 226:../../../DaisySP/Source/Drums/hihat.h ****     void SetFreq(float f0)
 227:../../../DaisySP/Source/Drums/hihat.h ****     {
 228:../../../DaisySP/Source/Drums/hihat.h ****         f0 /= sample_rate_;
 229:../../../DaisySP/Source/Drums/hihat.h ****         f0_ = fclamp(f0, 0.f, 1.f);
 230:../../../DaisySP/Source/Drums/hihat.h ****     }
 231:../../../DaisySP/Source/Drums/hihat.h **** 
ARM GAS  C:\Users\jaude\AppData\Local\Temp\ccMKA3wm.s 			page 24


 232:../../../DaisySP/Source/Drums/hihat.h ****     /** Set the overall brightness / darkness of the hihat.
 233:../../../DaisySP/Source/Drums/hihat.h ****         \param tone Works from 0-1.
 234:../../../DaisySP/Source/Drums/hihat.h ****     */
 235:../../../DaisySP/Source/Drums/hihat.h ****     void SetTone(float tone) { tone_ = fclamp(tone, 0.f, 1.f); }
 236:../../../DaisySP/Source/Drums/hihat.h **** 
 237:../../../DaisySP/Source/Drums/hihat.h ****     /** Set the length of the hihat decay
 238:../../../DaisySP/Source/Drums/hihat.h ****         \param decay Works > 0. Tuned for 0-1.
 239:../../../DaisySP/Source/Drums/hihat.h ****     */
 240:../../../DaisySP/Source/Drums/hihat.h ****     void SetDecay(float decay)
 241:../../../DaisySP/Source/Drums/hihat.h ****     {
 242:../../../DaisySP/Source/Drums/hihat.h ****         decay_ = fmax(decay, 0.f);
 243:../../../DaisySP/Source/Drums/hihat.h ****         decay_ *= 1.7;
 354              		.loc 11 243 16 view .LVU61
 355 0078 9FED4B9B 		vldr.64	d9, .L13
 356 007c B7EEC77A 		vcvt.f64.f32	d7, s14
 357              	.LBE323:
 358              	.LBE322:
 359              	.LBB333:
 360              	.LBB334:
 361              	.LBB335:
 362              	.LBB336:
 363              	.LBB337:
  44:../../../DaisySP/Source/Utility/dsp.h **** #else
 364              		.loc 13 44 5 view .LVU62
 365 0080 DFED566A 		vldr.32	s13, .L13+52
 366              		.syntax unified
 367              	@ 44 "../../../DaisySP/Source/Utility/dsp.h" 1
 368 0084 C6FEAA6A 		vmaxnm.f32 s13, s13, s21
 369              	@ 0 "" 2
 370              		.thumb
 371              		.syntax unified
 372              	.LBE337:
 373              	.LBE336:
 374              	.LBE335:
 375              	.LBE334:
 376              	.LBE333:
 377              	.LBB352:
 378              	.LBB328:
 244:../../../DaisySP/Source/Drums/hihat.h ****         decay_ -= 1.2;
 379              		.loc 11 244 16 view .LVU63
 380 0088 9FED498B 		vldr.64	d8, .L13+8
 243:../../../DaisySP/Source/Drums/hihat.h ****         decay_ -= 1.2;
 381              		.loc 11 243 16 view .LVU64
 382 008c 27EE097B 		vmul.f64	d7, d7, d9
 383              	.LBE328:
 384              	.LBE352:
 385              	.LBB353:
 386              	.LBB354:
 216:../../../DaisySP/Source/Drums/hihat.h **** 
 387              		.loc 11 216 46 view .LVU65
 388 0090 0023     		movs	r3, #0
 389              	.LBE354:
 390              	.LBE353:
 391              	.LBB356:
 392              	.LBB347:
 393              	.LBB344:
 394              	.LBB339:
ARM GAS  C:\Users\jaude\AppData\Local\Temp\ccMKA3wm.s 			page 25


 395              	.LBB340:
 396              		.loc 13 55 5 view .LVU66
 397              		.syntax unified
 398              	@ 55 "../../../DaisySP/Source/Utility/dsp.h" 1
 399 0092 C6FEC56A 		vminnm.f32 s13, s13, s10
 400              	@ 0 "" 2
 401              		.thumb
 402              		.syntax unified
 403              	.LBE340:
 404              	.LBE339:
 405              	.LBE344:
 406              	.LBE347:
 407              	.LBE356:
 408              	.LBB357:
 409              	.LBB315:
 228:../../../DaisySP/Source/Drums/hihat.h ****         f0_ = fclamp(f0, 0.f, 1.f);
 410              		.loc 11 228 12 view .LVU67
 411 0096 9FED526A 		vldr.32	s12, .L13+56
 412              	.LBE315:
 413              	.LBE357:
 144:../../../DaisySP/Source/Drums/hihat.h ****         noise_coloration_svf_.Init(sample_rate_);
 414              		.loc 11 144 29 view .LVU68
 415 009a 04F12C00 		add	r0, r4, #44
 416              	.LBB358:
 417              	.LBB348:
 245:../../../DaisySP/Source/Drums/hihat.h ****     }
 246:../../../DaisySP/Source/Drums/hihat.h **** 
 247:../../../DaisySP/Source/Drums/hihat.h ****     /** Sets the mix between tone and noise
 248:../../../DaisySP/Source/Drums/hihat.h ****         \param snappy 1 = just noise. 0 = just tone.
 249:../../../DaisySP/Source/Drums/hihat.h ****     */
 250:../../../DaisySP/Source/Drums/hihat.h ****     void SetNoisiness(float noisiness)
 251:../../../DaisySP/Source/Drums/hihat.h ****     {
 252:../../../DaisySP/Source/Drums/hihat.h ****         noisiness_ = fclamp(noisiness, 0.f, 1.f);
 253:../../../DaisySP/Source/Drums/hihat.h ****         noisiness_ *= noisiness_;
 418              		.loc 11 253 20 view .LVU69
 419 009e 66EEA64A 		vmul.f32	s9, s13, s13
 420              	.LBE348:
 421              	.LBE358:
 422              	.LBB359:
 423              	.LBB360:
 221:../../../DaisySP/Source/Drums/hihat.h **** 
 424              		.loc 11 221 44 view .LVU70
 425 00a2 C4ED016A 		vstr.32	s13, [r4, #4]
 426              	.LBE360:
 427              	.LBE359:
 144:../../../DaisySP/Source/Drums/hihat.h ****         noise_coloration_svf_.Init(sample_rate_);
 428              		.loc 11 144 29 view .LVU71
 429 00a6 B0EE4B0A 		vmov.f32	s0, s22
 430              	.LBB369:
 431              	.LBB355:
 216:../../../DaisySP/Source/Drums/hihat.h **** 
 432              		.loc 11 216 46 view .LVU72
 433 00aa 2383     		strh	r3, [r4, #24]	@ movhi
 434              	.LBE355:
 435              	.LBE369:
 436              	.LBB370:
 437              	.LBB316:
ARM GAS  C:\Users\jaude\AppData\Local\Temp\ccMKA3wm.s 			page 26


 228:../../../DaisySP/Source/Drums/hihat.h ****         f0_ = fclamp(f0, 0.f, 1.f);
 438              		.loc 11 228 12 view .LVU73
 439 00ac C6EE0B5A 		vdiv.f32	s11, s12, s22
 440              	.LBE316:
 441              	.LBE370:
 128:../../../DaisySP/Source/Drums/hihat.h **** 
 442              		.loc 11 128 22 view .LVU74
 443 00b0 84ED00BA 		vstr.32	s22, [r4]
 444              	.LBB371:
 445              	.LBB349:
 446              		.loc 11 253 20 view .LVU75
 447 00b4 C4ED054A 		vstr.32	s9, [r4, #20]
 448              	.LBE349:
 449              	.LBE371:
 450              	.LBB372:
 451              	.LBB317:
 452              	.LBB311:
 453              	.LBB305:
 454              	.LBB306:
  44:../../../DaisySP/Source/Utility/dsp.h **** #else
 455              		.loc 13 44 5 view .LVU76
 456              		.syntax unified
 457              	@ 44 "../../../DaisySP/Source/Utility/dsp.h" 1
 458 00b8 C5FEAA5A 		vmaxnm.f32 s11, s11, s21
 459              	@ 0 "" 2
 460              		.thumb
 461              		.syntax unified
 462              	.LBE306:
 463              	.LBE305:
 464              	.LBE311:
 465              	.LBE317:
 466              	.LBE372:
 132:../../../DaisySP/Source/Drums/hihat.h ****         noise_clock_  = 0.0f;
 467              		.loc 11 132 23 view .LVU77
 468 00bc C4ED07AA 		vstr.32	s21, [r4, #28]
 469              	.LBB373:
 470              	.LBB318:
 471              	.LBB312:
 472              	.LBB308:
 473              	.LBB303:
 474              		.loc 13 55 5 view .LVU78
 475              		.syntax unified
 476              	@ 55 "../../../DaisySP/Source/Utility/dsp.h" 1
 477 00c0 C5FEC55A 		vminnm.f32 s11, s11, s10
 478              	@ 0 "" 2
 479              		.thumb
 480              		.syntax unified
 481              	.LBE303:
 482              	.LBE308:
 483              	.LBE312:
 484              	.LBE318:
 485              	.LBE373:
 486              	.LBB374:
 487              	.LBB329:
 243:../../../DaisySP/Source/Drums/hihat.h ****         decay_ -= 1.2;
 488              		.loc 11 243 16 view .LVU79
 489 00c4 B7EEC77B 		vcvt.f32.f64	s14, d7
ARM GAS  C:\Users\jaude\AppData\Local\Temp\ccMKA3wm.s 			page 27


 490              	.LBE329:
 491              	.LBE374:
 492              	.LBB375:
 493              	.LBB319:
 229:../../../DaisySP/Source/Drums/hihat.h ****     }
 494              		.loc 11 229 13 view .LVU80
 495 00c8 C4ED025A 		vstr.32	s11, [r4, #8]
 496              	.LBE319:
 497              	.LBE375:
 498              	.LBB376:
 499              	.LBB377:
 500              	.LBB378:
 501              	.LBB379:
 502              	.LBB380:
  44:../../../DaisySP/Source/Utility/dsp.h **** #else
 503              		.loc 13 44 5 view .LVU81
 504 00cc B6EE006A 		vmov.f32	s12, #5.0e-1
 505              	.LBE380:
 506              	.LBE379:
 507              	.LBE378:
 508              	.LBE377:
 509              	.LBE376:
 133:../../../DaisySP/Source/Drums/hihat.h ****         noise_sample_ = 0.0f;
 510              		.loc 11 133 23 view .LVU82
 511 00d0 C4ED08AA 		vstr.32	s21, [r4, #32]
 512              	.LBB398:
 513              	.LBB393:
 514              	.LBB389:
 515              	.LBB383:
 516              	.LBB381:
  44:../../../DaisySP/Source/Utility/dsp.h **** #else
 517              		.loc 13 44 5 view .LVU83
 518              		.syntax unified
 519              	@ 44 "../../../DaisySP/Source/Utility/dsp.h" 1
 520 00d4 86FE2A6A 		vmaxnm.f32 s12, s12, s21
 521              	@ 0 "" 2
 522              		.thumb
 523              		.syntax unified
 524              	.LBE381:
 525              	.LBE383:
 526              	.LBE389:
 527              	.LBE393:
 528              	.LBE398:
 529              	.LBB399:
 530              	.LBB330:
 244:../../../DaisySP/Source/Drums/hihat.h ****     }
 531              		.loc 11 244 16 view .LVU84
 532 00d8 B7EEC77A 		vcvt.f64.f32	d7, s14
 533              	.LBE330:
 534              	.LBE399:
 134:../../../DaisySP/Source/Drums/hihat.h ****         sustain_gain_ = 0.0f;
 535              		.loc 11 134 23 view .LVU85
 536 00dc C4ED09AA 		vstr.32	s21, [r4, #36]
 537              	.LBB400:
 538              	.LBB394:
 539              	.LBB390:
 540              	.LBB384:
ARM GAS  C:\Users\jaude\AppData\Local\Temp\ccMKA3wm.s 			page 28


 541              	.LBB385:
 542              		.loc 13 55 5 view .LVU86
 543              		.syntax unified
 544              	@ 55 "../../../DaisySP/Source/Utility/dsp.h" 1
 545 00e0 86FE456A 		vminnm.f32 s12, s12, s10
 546              	@ 0 "" 2
 547              		.thumb
 548              		.syntax unified
 549              	.LBE385:
 550              	.LBE384:
 551              	.LBE390:
 552              	.LBE394:
 553              	.LBE400:
 135:../../../DaisySP/Source/Drums/hihat.h **** 
 554              		.loc 11 135 23 view .LVU87
 555 00e4 C4ED0AAA 		vstr.32	s21, [r4, #40]
 556              	.LVL16:
 557              	.LBB401:
 558              	.LBI298:
 226:../../../DaisySP/Source/Drums/hihat.h ****     {
 559              		.loc 11 226 10 is_stmt 1 view .LVU88
 560              	.LBB320:
 561              	.LBB313:
 562              	.LBI300:
  56:../../../DaisySP/Source/Utility/dsp.h **** #else
  57:../../../DaisySP/Source/Utility/dsp.h ****     r = (a < b) ? a : b;
  58:../../../DaisySP/Source/Utility/dsp.h **** #endif // __arm__
  59:../../../DaisySP/Source/Utility/dsp.h ****     return r;
  60:../../../DaisySP/Source/Utility/dsp.h **** }
  61:../../../DaisySP/Source/Utility/dsp.h **** 
  62:../../../DaisySP/Source/Utility/dsp.h **** /** quick fp clamp
  63:../../../DaisySP/Source/Utility/dsp.h **** */
  64:../../../DaisySP/Source/Utility/dsp.h **** inline float fclamp(float in, float min, float max)
 563              		.loc 13 64 14 view .LVU89
 564              	.LBE313:
 565              	.LBE320:
 566              	.LBE401:
 567              	.LBE414:
 568              	.LBE420:
  65:../../../DaisySP/Source/Utility/dsp.h **** {
  66:../../../DaisySP/Source/Utility/dsp.h ****     return fmin(fmax(in, min), max);
 569              		.loc 13 66 5 view .LVU90
 570              	.LBB421:
 571              	.LBB415:
 572              	.LBB402:
 573              	.LBB321:
 574              	.LBB314:
 575              	.LBB309:
 576              	.LBI305:
  40:../../../DaisySP/Source/Utility/dsp.h **** {
 577              		.loc 13 40 14 view .LVU91
 578              	.LBB307:
  42:../../../DaisySP/Source/Utility/dsp.h **** #ifdef __arm__
 579              		.loc 13 42 5 view .LVU92
  44:../../../DaisySP/Source/Utility/dsp.h **** #else
 580              		.loc 13 44 5 view .LVU93
  48:../../../DaisySP/Source/Utility/dsp.h **** }
ARM GAS  C:\Users\jaude\AppData\Local\Temp\ccMKA3wm.s 			page 29


 581              		.loc 13 48 5 view .LVU94
  48:../../../DaisySP/Source/Utility/dsp.h **** }
 582              		.loc 13 48 5 is_stmt 0 view .LVU95
 583              	.LBE307:
 584              	.LBE309:
 585              	.LBB310:
 586              	.LBI301:
  51:../../../DaisySP/Source/Utility/dsp.h **** {
 587              		.loc 13 51 14 is_stmt 1 view .LVU96
 588              	.LBB304:
  53:../../../DaisySP/Source/Utility/dsp.h **** #ifdef __arm__
 589              		.loc 13 53 5 view .LVU97
  55:../../../DaisySP/Source/Utility/dsp.h **** #else
 590              		.loc 13 55 5 view .LVU98
  59:../../../DaisySP/Source/Utility/dsp.h **** }
 591              		.loc 13 59 5 view .LVU99
  59:../../../DaisySP/Source/Utility/dsp.h **** }
 592              		.loc 13 59 5 is_stmt 0 view .LVU100
 593              	.LBE304:
 594              	.LBE310:
 595              	.LBE314:
 596              	.LBE321:
 597              	.LBE402:
 598              	.LBB403:
 599              	.LBI376:
 235:../../../DaisySP/Source/Drums/hihat.h **** 
 600              		.loc 11 235 10 is_stmt 1 view .LVU101
 601              	.LBB395:
 602              	.LBB391:
 603              	.LBI378:
  64:../../../DaisySP/Source/Utility/dsp.h **** {
 604              		.loc 13 64 14 view .LVU102
 605              	.LBE391:
 606              	.LBE395:
 607              	.LBE403:
 608              	.LBE415:
 609              	.LBE421:
 610              		.loc 13 66 5 view .LVU103
 611              	.LBB422:
 612              	.LBB416:
 613              	.LBB404:
 614              	.LBB396:
 615              	.LBB392:
 616              	.LBB387:
 617              	.LBI379:
  40:../../../DaisySP/Source/Utility/dsp.h **** {
 618              		.loc 13 40 14 view .LVU104
 619              	.LBB382:
  42:../../../DaisySP/Source/Utility/dsp.h **** #ifdef __arm__
 620              		.loc 13 42 5 view .LVU105
  44:../../../DaisySP/Source/Utility/dsp.h **** #else
 621              		.loc 13 44 5 view .LVU106
  48:../../../DaisySP/Source/Utility/dsp.h **** }
 622              		.loc 13 48 5 view .LVU107
  48:../../../DaisySP/Source/Utility/dsp.h **** }
 623              		.loc 13 48 5 is_stmt 0 view .LVU108
 624              	.LBE382:
ARM GAS  C:\Users\jaude\AppData\Local\Temp\ccMKA3wm.s 			page 30


 625              	.LBE387:
 626              	.LBB388:
 627              	.LBI384:
  51:../../../DaisySP/Source/Utility/dsp.h **** {
 628              		.loc 13 51 14 is_stmt 1 view .LVU109
 629              	.LBB386:
  53:../../../DaisySP/Source/Utility/dsp.h **** #ifdef __arm__
 630              		.loc 13 53 5 view .LVU110
  55:../../../DaisySP/Source/Utility/dsp.h **** #else
 631              		.loc 13 55 5 view .LVU111
  59:../../../DaisySP/Source/Utility/dsp.h **** }
 632              		.loc 13 59 5 view .LVU112
  59:../../../DaisySP/Source/Utility/dsp.h **** }
 633              		.loc 13 59 5 is_stmt 0 view .LVU113
 634              	.LBE386:
 635              	.LBE388:
 636              	.LBE392:
 637              	.LBE396:
 638              	.LBE404:
 639              	.LBB405:
 640              	.LBB331:
 244:../../../DaisySP/Source/Drums/hihat.h ****     }
 641              		.loc 11 244 16 view .LVU114
 642 00e8 37EE487B 		vsub.f64	d7, d7, d8
 643              	.LBE331:
 644              	.LBE405:
 645              	.LBB406:
 646              	.LBB397:
 235:../../../DaisySP/Source/Drums/hihat.h **** 
 647              		.loc 11 235 38 view .LVU115
 648 00ec 84ED036A 		vstr.32	s12, [r4, #12]
 649              	.LVL17:
 235:../../../DaisySP/Source/Drums/hihat.h **** 
 650              		.loc 11 235 38 view .LVU116
 651              	.LBE397:
 652              	.LBE406:
 653              	.LBB407:
 654              	.LBI322:
 240:../../../DaisySP/Source/Drums/hihat.h ****     {
 655              		.loc 11 240 10 is_stmt 1 view .LVU117
 656              	.LBB332:
 657              	.LBB327:
 658              	.LBI324:
  40:../../../DaisySP/Source/Utility/dsp.h **** {
 659              		.loc 13 40 14 view .LVU118
 660              	.LBB326:
  42:../../../DaisySP/Source/Utility/dsp.h **** #ifdef __arm__
 661              		.loc 13 42 5 view .LVU119
  44:../../../DaisySP/Source/Utility/dsp.h **** #else
 662              		.loc 13 44 5 view .LVU120
  48:../../../DaisySP/Source/Utility/dsp.h **** }
 663              		.loc 13 48 5 view .LVU121
  48:../../../DaisySP/Source/Utility/dsp.h **** }
 664              		.loc 13 48 5 is_stmt 0 view .LVU122
 665              	.LBE326:
 666              	.LBE327:
 244:../../../DaisySP/Source/Drums/hihat.h ****     }
ARM GAS  C:\Users\jaude\AppData\Local\Temp\ccMKA3wm.s 			page 31


 667              		.loc 11 244 16 view .LVU123
 668 00f0 B7EEC77B 		vcvt.f32.f64	s14, d7
 669 00f4 84ED047A 		vstr.32	s14, [r4, #16]
 670              	.LVL18:
 244:../../../DaisySP/Source/Drums/hihat.h ****     }
 671              		.loc 11 244 16 view .LVU124
 672              	.LBE332:
 673              	.LBE407:
 674              	.LBB408:
 675              	.LBI333:
 250:../../../DaisySP/Source/Drums/hihat.h ****     {
 676              		.loc 11 250 10 is_stmt 1 view .LVU125
 677              	.LBB350:
 678              	.LBB345:
 679              	.LBI335:
  64:../../../DaisySP/Source/Utility/dsp.h **** {
 680              		.loc 13 64 14 view .LVU126
 681              	.LBE345:
 682              	.LBE350:
 683              	.LBE408:
 684              	.LBE416:
 685              	.LBE422:
 686              		.loc 13 66 5 view .LVU127
 687              	.LBB423:
 688              	.LBB417:
 689              	.LBB409:
 690              	.LBB351:
 691              	.LBB346:
 692              	.LBB342:
 693              	.LBI336:
  40:../../../DaisySP/Source/Utility/dsp.h **** {
 694              		.loc 13 40 14 view .LVU128
 695              	.LBB338:
  42:../../../DaisySP/Source/Utility/dsp.h **** #ifdef __arm__
 696              		.loc 13 42 5 view .LVU129
  44:../../../DaisySP/Source/Utility/dsp.h **** #else
 697              		.loc 13 44 5 view .LVU130
  48:../../../DaisySP/Source/Utility/dsp.h **** }
 698              		.loc 13 48 5 view .LVU131
  48:../../../DaisySP/Source/Utility/dsp.h **** }
 699              		.loc 13 48 5 is_stmt 0 view .LVU132
 700              	.LBE338:
 701              	.LBE342:
 702              	.LBB343:
 703              	.LBI339:
  51:../../../DaisySP/Source/Utility/dsp.h **** {
 704              		.loc 13 51 14 is_stmt 1 view .LVU133
 705              	.LBB341:
  53:../../../DaisySP/Source/Utility/dsp.h **** #ifdef __arm__
 706              		.loc 13 53 5 view .LVU134
  55:../../../DaisySP/Source/Utility/dsp.h **** #else
 707              		.loc 13 55 5 view .LVU135
  59:../../../DaisySP/Source/Utility/dsp.h **** }
 708              		.loc 13 59 5 view .LVU136
  59:../../../DaisySP/Source/Utility/dsp.h **** }
 709              		.loc 13 59 5 is_stmt 0 view .LVU137
 710              	.LBE341:
ARM GAS  C:\Users\jaude\AppData\Local\Temp\ccMKA3wm.s 			page 32


 711              	.LBE343:
 712              	.LBE346:
 713              	.LBE351:
 714              	.LBE409:
 715              	.LBB410:
 716              	.LBI359:
 221:../../../DaisySP/Source/Drums/hihat.h **** 
 717              		.loc 11 221 10 is_stmt 1 view .LVU138
 718              	.LBB367:
 719              	.LBB361:
 720              	.LBI361:
  64:../../../DaisySP/Source/Utility/dsp.h **** {
 721              		.loc 13 64 14 view .LVU139
 722              	.LBE361:
 723              	.LBE367:
 724              	.LBE410:
 725              	.LBE417:
 726              	.LBE423:
 727              		.loc 13 66 5 view .LVU140
 728              	.LBB424:
 729              	.LBB418:
 730              	.LBB411:
 731              	.LBB368:
 732              	.LBB366:
 733              	.LBB362:
 734              	.LBI362:
  40:../../../DaisySP/Source/Utility/dsp.h **** {
 735              		.loc 13 40 14 view .LVU141
 736              	.LBB363:
  42:../../../DaisySP/Source/Utility/dsp.h **** #ifdef __arm__
 737              		.loc 13 42 5 view .LVU142
  44:../../../DaisySP/Source/Utility/dsp.h **** #else
 738              		.loc 13 44 5 view .LVU143
  48:../../../DaisySP/Source/Utility/dsp.h **** }
 739              		.loc 13 48 5 view .LVU144
  48:../../../DaisySP/Source/Utility/dsp.h **** }
 740              		.loc 13 48 5 is_stmt 0 view .LVU145
 741              	.LBE363:
 742              	.LBE362:
 743              	.LBB364:
 744              	.LBI364:
  51:../../../DaisySP/Source/Utility/dsp.h **** {
 745              		.loc 13 51 14 is_stmt 1 view .LVU146
 746              	.LBB365:
  53:../../../DaisySP/Source/Utility/dsp.h **** #ifdef __arm__
 747              		.loc 13 53 5 view .LVU147
  55:../../../DaisySP/Source/Utility/dsp.h **** #else
 748              		.loc 13 55 5 view .LVU148
  59:../../../DaisySP/Source/Utility/dsp.h **** }
 749              		.loc 13 59 5 view .LVU149
  59:../../../DaisySP/Source/Utility/dsp.h **** }
 750              		.loc 13 59 5 is_stmt 0 view .LVU150
 751              	.LBE365:
 752              	.LBE364:
 753              	.LBE366:
 754              	.LBE368:
 755              	.LBE411:
ARM GAS  C:\Users\jaude\AppData\Local\Temp\ccMKA3wm.s 			page 33


 756              	.LBB412:
 757              	.LBI353:
 216:../../../DaisySP/Source/Drums/hihat.h **** 
 758              		.loc 11 216 10 is_stmt 1 view .LVU151
 216:../../../DaisySP/Source/Drums/hihat.h **** 
 759              		.loc 11 216 10 is_stmt 0 view .LVU152
 760              	.LBE412:
 144:../../../DaisySP/Source/Drums/hihat.h ****         noise_coloration_svf_.Init(sample_rate_);
 761              		.loc 11 144 29 view .LVU153
 762 00f8 FFF7FEFF 		bl	_ZN7daisysp11SquareNoise4InitEf
 763              	.LVL19:
 145:../../../DaisySP/Source/Drums/hihat.h ****         hpf_.Init(sample_rate_);
 764              		.loc 11 145 35 view .LVU154
 765 00fc 2046     		mov	r0, r4
 766 00fe 94ED000A 		vldr.32	s0, [r4]
 767 0102 4430     		adds	r0, r0, #68
 768 0104 FFF7FEFF 		bl	_ZN7daisysp3Svf4InitEf
 769              	.LVL20:
 146:../../../DaisySP/Source/Drums/hihat.h ****     }
 770              		.loc 11 146 18 view .LVU155
 771 0108 2046     		mov	r0, r4
 772 010a 94ED000A 		vldr.32	s0, [r4]
 773 010e 9030     		adds	r0, r0, #144
 774 0110 FFF7FEFF 		bl	_ZN7daisysp3Svf4InitEf
 775              	.LVL21:
 146:../../../DaisySP/Source/Drums/hihat.h ****     }
 776              		.loc 11 146 18 view .LVU156
 777              	.LBE418:
 778              	.LBE424:
  69:chorus.cpp    **** 
 779              		.loc 12 69 5 is_stmt 1 view .LVU157
 780              	.LBB425:
 781              	.LBI425:
 240:../../../DaisySP/Source/Drums/hihat.h ****     {
 782              		.loc 11 240 10 view .LVU158
 783              	.LBB426:
 784              	.LBB427:
 785              	.LBI427:
  40:../../../DaisySP/Source/Utility/dsp.h **** {
 786              		.loc 13 40 14 view .LVU159
 787              	.LBB428:
  42:../../../DaisySP/Source/Utility/dsp.h **** #ifdef __arm__
 788              		.loc 13 42 5 view .LVU160
  44:../../../DaisySP/Source/Utility/dsp.h **** #else
 789              		.loc 13 44 5 view .LVU161
 790 0114 9FED337A 		vldr.32	s14, .L13+60
 791              		.syntax unified
 792              	@ 44 "../../../DaisySP/Source/Utility/dsp.h" 1
 793 0118 87FE2A7A 		vmaxnm.f32 s14, s14, s21
 794              	@ 0 "" 2
 795              	.LVL22:
  48:../../../DaisySP/Source/Utility/dsp.h **** }
 796              		.loc 13 48 5 view .LVU162
  48:../../../DaisySP/Source/Utility/dsp.h **** }
 797              		.loc 13 48 5 is_stmt 0 view .LVU163
 798              		.thumb
 799              		.syntax unified
ARM GAS  C:\Users\jaude\AppData\Local\Temp\ccMKA3wm.s 			page 34


 800              	.LBE428:
 801              	.LBE427:
 243:../../../DaisySP/Source/Drums/hihat.h ****         decay_ -= 1.2;
 802              		.loc 11 243 16 view .LVU164
 803 011c B7EEC77A 		vcvt.f64.f32	d7, s14
 804              	.LBE426:
 805              	.LBE425:
  71:chorus.cpp    **** 
 806              		.loc 12 71 14 view .LVU165
 807 0120 3148     		ldr	r0, .L13+64
 808 0122 B0EE4B0A 		vmov.f32	s0, s22
 809              	.LBB430:
 810              	.LBB429:
 243:../../../DaisySP/Source/Drums/hihat.h ****         decay_ -= 1.2;
 811              		.loc 11 243 16 view .LVU166
 812 0126 27EE099B 		vmul.f64	d9, d7, d9
 813 012a B7EEC99B 		vcvt.f32.f64	s18, d9
 244:../../../DaisySP/Source/Drums/hihat.h ****     }
 814              		.loc 11 244 16 view .LVU167
 815 012e B7EEC99A 		vcvt.f64.f32	d9, s18
 816 0132 39EE488B 		vsub.f64	d8, d9, d8
 817 0136 B7EEC88B 		vcvt.f32.f64	s16, d8
 818 013a 84ED048A 		vstr.32	s16, [r4, #16]
 819              	.LVL23:
 244:../../../DaisySP/Source/Drums/hihat.h ****     }
 820              		.loc 11 244 16 view .LVU168
 821              	.LBE429:
 822              	.LBE430:
  71:chorus.cpp    **** 
 823              		.loc 12 71 5 is_stmt 1 view .LVU169
  71:chorus.cpp    **** 
 824              		.loc 12 71 14 is_stmt 0 view .LVU170
 825 013e FFF7FEFF 		bl	_ZN7daisysp14AnalogBassDrum4InitEf
 826              	.LVL24:
 827              		.loc 12 73 5 is_stmt 1 view .LVU171
 828              		.loc 12 73 15 is_stmt 0 view .LVU172
 829 0142 0123     		movs	r3, #1
  74:chorus.cpp    ****     osc.Init(sample_rate);
 830              		.loc 12 74 13 view .LVU173
 831 0144 B0EE4B0A 		vmov.f32	s0, s22
 832 0148 2848     		ldr	r0, .L13+68
  73:chorus.cpp    ****     osc.Init(sample_rate);
 833              		.loc 12 73 15 view .LVU174
 834 014a 2B70     		strb	r3, [r5]
 835              		.loc 12 74 5 is_stmt 1 view .LVU175
 836              		.loc 12 74 13 is_stmt 0 view .LVU176
 837 014c FFF7FEFF 		bl	_ZN7daisysp21VariableSawOscillator4InitEf
 838              	.LVL25:
  75:chorus.cpp    ****     osc.SetPW(0.25f);
 839              		.loc 12 75 5 is_stmt 1 view .LVU177
 840              		.loc 12 75 14 is_stmt 0 view .LVU178
 841 0150 B5EE000A 		vmov.f32	s0, #2.5e-1
 842 0154 2548     		ldr	r0, .L13+68
 843 0156 FFF7FEFF 		bl	_ZN7daisysp21VariableSawOscillator5SetPWEf
 844              	.LVL26:
  76:chorus.cpp    ****     osc.SetWaveshape(0.11f);
 845              		.loc 12 76 5 is_stmt 1 view .LVU179
ARM GAS  C:\Users\jaude\AppData\Local\Temp\ccMKA3wm.s 			page 35


 846              		.loc 12 76 21 is_stmt 0 view .LVU180
 847 015a 2448     		ldr	r0, .L13+68
 848 015c 9FED240A 		vldr.32	s0, .L13+72
 849 0160 FFF7FEFF 		bl	_ZN7daisysp21VariableSawOscillator12SetWaveshapeEf
 850              	.LVL27:
  77:chorus.cpp    ****     osc.SetFreq(mtof(bass_note ? 31.f : 24.f));
 851              		.loc 12 77 5 is_stmt 1 view .LVU181
 852              		.loc 12 77 16 is_stmt 0 view .LVU182
 853 0164 2B78     		ldrb	r3, [r5]	@ zero_extendqisi2
 854 0166 F3EE086A 		vmov.f32	s13, #2.4e+1
 855              	.LBB431:
 856              	.LBB432:
  67:../../../DaisySP/Source/Utility/dsp.h **** }
  68:../../../DaisySP/Source/Utility/dsp.h **** 
  69:../../../DaisySP/Source/Utility/dsp.h **** /** From Musicdsp.org "Fast power and root estimates for 32bit floats)
  70:../../../DaisySP/Source/Utility/dsp.h **** Original code by Stefan Stenzel
  71:../../../DaisySP/Source/Utility/dsp.h **** These are approximations
  72:../../../DaisySP/Source/Utility/dsp.h **** */
  73:../../../DaisySP/Source/Utility/dsp.h **** inline float fastpower(float f, int n)
  74:../../../DaisySP/Source/Utility/dsp.h **** {
  75:../../../DaisySP/Source/Utility/dsp.h ****     long *lp, l;
  76:../../../DaisySP/Source/Utility/dsp.h ****     lp = (long *)(&f);
  77:../../../DaisySP/Source/Utility/dsp.h ****     l  = *lp;
  78:../../../DaisySP/Source/Utility/dsp.h ****     l -= 0x3F800000;
  79:../../../DaisySP/Source/Utility/dsp.h ****     l <<= (n - 1);
  80:../../../DaisySP/Source/Utility/dsp.h ****     l += 0x3F800000;
  81:../../../DaisySP/Source/Utility/dsp.h ****     *lp = l;
  82:../../../DaisySP/Source/Utility/dsp.h ****     return f;
  83:../../../DaisySP/Source/Utility/dsp.h **** }
  84:../../../DaisySP/Source/Utility/dsp.h **** 
  85:../../../DaisySP/Source/Utility/dsp.h **** inline float fastroot(float f, int n)
  86:../../../DaisySP/Source/Utility/dsp.h **** {
  87:../../../DaisySP/Source/Utility/dsp.h ****     long *lp, l;
  88:../../../DaisySP/Source/Utility/dsp.h ****     lp = (long *)(&f);
  89:../../../DaisySP/Source/Utility/dsp.h ****     l  = *lp;
  90:../../../DaisySP/Source/Utility/dsp.h ****     l -= 0x3F800000;
  91:../../../DaisySP/Source/Utility/dsp.h ****     l >>= (n - 1);
  92:../../../DaisySP/Source/Utility/dsp.h ****     l += 0x3F800000;
  93:../../../DaisySP/Source/Utility/dsp.h ****     *lp = l;
  94:../../../DaisySP/Source/Utility/dsp.h ****     return f;
  95:../../../DaisySP/Source/Utility/dsp.h **** }
  96:../../../DaisySP/Source/Utility/dsp.h **** 
  97:../../../DaisySP/Source/Utility/dsp.h **** /** Significantly more efficient than fmodf(x, 1.0f) for calculating
  98:../../../DaisySP/Source/Utility/dsp.h ****  *  the decimal part of a floating point value.
  99:../../../DaisySP/Source/Utility/dsp.h ****  */
 100:../../../DaisySP/Source/Utility/dsp.h **** inline float fastmod1f(float x)
 101:../../../DaisySP/Source/Utility/dsp.h **** {
 102:../../../DaisySP/Source/Utility/dsp.h ****     return x - static_cast<int>(x);
 103:../../../DaisySP/Source/Utility/dsp.h **** }
 104:../../../DaisySP/Source/Utility/dsp.h **** 
 105:../../../DaisySP/Source/Utility/dsp.h **** /** From http://openaudio.blogspot.com/2017/02/faster-log10-and-pow.html
 106:../../../DaisySP/Source/Utility/dsp.h **** No approximation, pow10f(x) gives a 90% speed increase over powf(10.f, x)
 107:../../../DaisySP/Source/Utility/dsp.h **** */
 108:../../../DaisySP/Source/Utility/dsp.h **** inline float pow10f(float f)
 109:../../../DaisySP/Source/Utility/dsp.h **** {
 110:../../../DaisySP/Source/Utility/dsp.h ****     return expf(2.302585092994046f * f);
 111:../../../DaisySP/Source/Utility/dsp.h **** }
ARM GAS  C:\Users\jaude\AppData\Local\Temp\ccMKA3wm.s 			page 36


 112:../../../DaisySP/Source/Utility/dsp.h **** 
 113:../../../DaisySP/Source/Utility/dsp.h **** /* Original code for fastlog2f by Dr. Paul Beckmann from the ARM community forum, adapted from the 
 114:../../../DaisySP/Source/Utility/dsp.h **** About 25% performance increase over std::log10f
 115:../../../DaisySP/Source/Utility/dsp.h **** */
 116:../../../DaisySP/Source/Utility/dsp.h **** inline float fastlog2f(float f)
 117:../../../DaisySP/Source/Utility/dsp.h **** {
 118:../../../DaisySP/Source/Utility/dsp.h ****     float frac;
 119:../../../DaisySP/Source/Utility/dsp.h ****     int   exp;
 120:../../../DaisySP/Source/Utility/dsp.h ****     frac = frexpf(fabsf(f), &exp);
 121:../../../DaisySP/Source/Utility/dsp.h ****     f    = 1.23149591368684f;
 122:../../../DaisySP/Source/Utility/dsp.h ****     f *= frac;
 123:../../../DaisySP/Source/Utility/dsp.h ****     f += -4.11852516267426f;
 124:../../../DaisySP/Source/Utility/dsp.h ****     f *= frac;
 125:../../../DaisySP/Source/Utility/dsp.h ****     f += 6.02197014179219f;
 126:../../../DaisySP/Source/Utility/dsp.h ****     f *= frac;
 127:../../../DaisySP/Source/Utility/dsp.h ****     f += -3.13396450166353f;
 128:../../../DaisySP/Source/Utility/dsp.h ****     f += exp;
 129:../../../DaisySP/Source/Utility/dsp.h ****     return (f);
 130:../../../DaisySP/Source/Utility/dsp.h **** }
 131:../../../DaisySP/Source/Utility/dsp.h **** 
 132:../../../DaisySP/Source/Utility/dsp.h **** inline float fastlog10f(float f)
 133:../../../DaisySP/Source/Utility/dsp.h **** {
 134:../../../DaisySP/Source/Utility/dsp.h ****     return fastlog2f(f) * 0.3010299956639812f;
 135:../../../DaisySP/Source/Utility/dsp.h **** }
 136:../../../DaisySP/Source/Utility/dsp.h **** 
 137:../../../DaisySP/Source/Utility/dsp.h **** /** Midi to frequency helper
 138:../../../DaisySP/Source/Utility/dsp.h **** */
 139:../../../DaisySP/Source/Utility/dsp.h **** inline float mtof(float m)
 140:../../../DaisySP/Source/Utility/dsp.h **** {
 141:../../../DaisySP/Source/Utility/dsp.h ****     return powf(2, (m - 69.0f) / 12.0f) * 440.0f;
 857              		.loc 13 141 23 view .LVU183
 858 016a 9FED227A 		vldr.32	s14, .L13+76
 859              	.LBE432:
 860              	.LBE431:
 861              		.loc 12 77 16 view .LVU184
 862 016e F3EE0F7A 		vmov.f32	s15, #3.1e+1
 863 0172 002B     		cmp	r3, #0
 864              	.LBB435:
 865              	.LBB433:
 866              		.loc 13 141 16 view .LVU185
 867 0174 F2EE080A 		vmov.f32	s1, #1.2e+1
 868 0178 B0EE000A 		vmov.f32	s0, #2.0e+0
 869              	.LBE433:
 870              	.LBE435:
 871              		.loc 12 77 16 view .LVU186
 872 017c 46FEA77A 		vseleq.f32	s15, s13, s15
 873              	.LVL28:
 874              	.LBB436:
 875              	.LBI431:
 139:../../../DaisySP/Source/Utility/dsp.h **** {
 876              		.loc 13 139 14 is_stmt 1 view .LVU187
 877              	.LBB434:
 878              		.loc 13 141 5 view .LVU188
 879              		.loc 13 141 23 is_stmt 0 view .LVU189
 880 0180 77EEC77A 		vsub.f32	s15, s15, s14
 881              	.LVL29:
 882              		.loc 13 141 16 view .LVU190
ARM GAS  C:\Users\jaude\AppData\Local\Temp\ccMKA3wm.s 			page 37


 883 0184 C7EEA00A 		vdiv.f32	s1, s15, s1
 884 0188 FFF7FEFF 		bl	powf
 885              	.LVL30:
 886              		.loc 13 141 43 view .LVU191
 887 018c DFED1A7A 		vldr.32	s15, .L13+80
 888              	.LBE434:
 889              	.LBE436:
 890              		.loc 12 77 16 view .LVU192
 891 0190 1648     		ldr	r0, .L13+68
 892 0192 20EE270A 		vmul.f32	s0, s0, s15
 893 0196 FFF7FEFF 		bl	_ZN7daisysp21VariableSawOscillator7SetFreqEf
 894              	.LVL31:
  78:chorus.cpp    **** 
  79:chorus.cpp    ****     hw.StartAudio(AudioCallback);
 895              		.loc 12 79 5 is_stmt 1 view .LVU193
 896              		.loc 12 79 18 is_stmt 0 view .LVU194
 897 019a 1849     		ldr	r1, .L13+84
 898 019c 0648     		ldr	r0, .L13+16
 899 019e FFF7FEFF 		bl	_ZN5daisy9DaisySeed10StartAudioEPFvPKPKfPPfjE
 900              	.LVL32:
 901              	.L10:
  80:chorus.cpp    ****     while(1) {}
 902              		.loc 12 80 5 is_stmt 1 discriminator 1 view .LVU195
 903              		.loc 12 80 5 discriminator 1 view .LVU196
 904              		.loc 12 80 5 discriminator 1 view .LVU197
 905              		.loc 12 80 5 discriminator 1 view .LVU198
 906 01a2 FEE7     		b	.L10
 907              	.L14:
 908 01a4 AFF30080 		.align	3
 909              	.L13:
 910 01a8 33333333 		.word	858993459
 911 01ac 3333FB3F 		.word	1073427251
 912 01b0 33333333 		.word	858993459
 913 01b4 3333F33F 		.word	1072902963
 914 01b8 00000000 		.word	.LANCHOR0
 915 01bc 00000000 		.word	.LANCHOR2
 916 01c0 00000000 		.word	.LANCHOR4
 917 01c4 CDCC4C3E 		.word	1045220557
 918 01c8 00000000 		.word	chorus
 919 01cc C3F5A83E 		.word	1051260355
 920 01d0 00000000 		.word	0
 921 01d4 6666663F 		.word	1063675494
 922 01d8 00000000 		.word	.LANCHOR1
 923 01dc CDCC4C3F 		.word	1061997773
 924 01e0 00803B45 		.word	1161527296
 925 01e4 9A99193F 		.word	1058642330
 926 01e8 00000000 		.word	.LANCHOR3
 927 01ec 00000000 		.word	.LANCHOR5
 928 01f0 AE47E13D 		.word	1038174126
 929 01f4 00008A42 		.word	1116340224
 930 01f8 0000DC43 		.word	1138491392
 931 01fc 00000000 		.word	_Z13AudioCallbackPKPKfPPfj
 932              		.cfi_endproc
 933              	.LFE4683:
 935              		.section	.text._ZN7daisysp5HiHatINS_11SquareNoiseENS_9LinearVCAELb1EE7ProcessEb,"axG",%progbits,_Z
 936              		.align	1
 937              		.p2align 2,,3
ARM GAS  C:\Users\jaude\AppData\Local\Temp\ccMKA3wm.s 			page 38


 938              		.weak	_ZN7daisysp5HiHatINS_11SquareNoiseENS_9LinearVCAELb1EE7ProcessEb
 939              		.syntax unified
 940              		.thumb
 941              		.thumb_func
 942              		.fpu fpv5-d16
 944              	_ZN7daisysp5HiHatINS_11SquareNoiseENS_9LinearVCAELb1EE7ProcessEb:
 945              	.LVL33:
 946              	.LFB4992:
 152:../../../DaisySP/Source/Drums/hihat.h ****     {
 947              		.loc 11 152 11 view -0
 948              		.cfi_startproc
 949              		@ args = 0, pretend = 0, frame = 8
 950              		@ frame_needed = 0, uses_anonymous_args = 0
 155:../../../DaisySP/Source/Drums/hihat.h ****         const float cut_decay
 951              		.loc 11 155 47 is_stmt 0 view .LVU200
 952 0000 DFED827A 		vldr.32	s15, .L30
 953              	.LBB437:
 954              	.LBB438:
 254:../../../DaisySP/Source/Drums/hihat.h ****     }
 255:../../../DaisySP/Source/Drums/hihat.h **** 
 256:../../../DaisySP/Source/Drums/hihat.h **** 
 257:../../../DaisySP/Source/Drums/hihat.h ****   private:
 258:../../../DaisySP/Source/Drums/hihat.h ****     float sample_rate_;
 259:../../../DaisySP/Source/Drums/hihat.h **** 
 260:../../../DaisySP/Source/Drums/hihat.h ****     float accent_, f0_, tone_, decay_, noisiness_;
 261:../../../DaisySP/Source/Drums/hihat.h ****     bool  sustain_;
 262:../../../DaisySP/Source/Drums/hihat.h ****     bool  trig_;
 263:../../../DaisySP/Source/Drums/hihat.h **** 
 264:../../../DaisySP/Source/Drums/hihat.h ****     float SemitonesToRatio(float in) { return powf(2.f, in * kOneTwelfth); }
 955              		.loc 11 264 51 view .LVU201
 956 0004 B0EE000A 		vmov.f32	s0, #2.0e+0
 957              	.LBE438:
 958              	.LBE437:
 155:../../../DaisySP/Source/Drums/hihat.h ****         const float cut_decay
 959              		.loc 11 155 47 view .LVU202
 960 0008 D0ED040A 		vldr.32	s1, [r0, #16]
 961 000c 60EEE70A 		vnmul.f32	s1, s1, s15
 152:../../../DaisySP/Source/Drums/hihat.h ****     {
 962              		.loc 11 152 11 view .LVU203
 963 0010 30B5     		push	{r4, r5, lr}
 964              		.cfi_def_cfa_offset 12
 965              		.cfi_offset 4, -12
 966              		.cfi_offset 5, -8
 967              		.cfi_offset 14, -4
 968 0012 2DED068B 		vpush.64	{d8, d9, d10}
 969              		.cfi_def_cfa_offset 36
 970              		.cfi_offset 80, -36
 971              		.cfi_offset 81, -32
 972              		.cfi_offset 82, -28
 973              		.cfi_offset 83, -24
 974              		.cfi_offset 84, -20
 975              		.cfi_offset 85, -16
 976              	.LBB442:
 977              	.LBB439:
 978              		.loc 11 264 51 view .LVU204
 979 0016 9FED7E8A 		vldr.32	s16, .L30+4
 980              	.LBE439:
ARM GAS  C:\Users\jaude\AppData\Local\Temp\ccMKA3wm.s 			page 39


 981              	.LBE442:
 152:../../../DaisySP/Source/Drums/hihat.h ****     {
 982              		.loc 11 152 11 view .LVU205
 983 001a 0446     		mov	r4, r0
 984              	.LVL34:
 985              	.LBB443:
 986              	.LBI437:
 987              		.loc 11 264 11 is_stmt 1 view .LVU206
 988              	.LBE443:
 152:../../../DaisySP/Source/Drums/hihat.h ****     {
 989              		.loc 11 152 11 is_stmt 0 view .LVU207
 990 001c 83B0     		sub	sp, sp, #12
 991              		.cfi_def_cfa_offset 48
 152:../../../DaisySP/Source/Drums/hihat.h ****     {
 992              		.loc 11 152 11 view .LVU208
 993 001e 0D46     		mov	r5, r1
 994              	.LBB444:
 995              	.LBB440:
 996              		.loc 11 264 51 view .LVU209
 997 0020 60EE880A 		vmul.f32	s1, s1, s16
 998 0024 FFF7FEFF 		bl	powf
 999              	.LVL35:
 1000              		.loc 11 264 51 view .LVU210
 1001              	.LBE440:
 1002              	.LBE444:
 157:../../../DaisySP/Source/Drums/hihat.h **** 
 1003              		.loc 11 157 48 view .LVU211
 1004 0028 D4ED040A 		vldr.32	s1, [r4, #16]
 1005 002c DFED797A 		vldr.32	s15, .L30+8
 1006              	.LBB445:
 1007              	.LBB441:
 1008              		.loc 11 264 51 view .LVU212
 1009 0030 F0EE409A 		vmov.f32	s19, s0
 1010              	.LBE441:
 1011              	.LBE445:
 1012              	.LBB446:
 1013              	.LBB447:
 1014 0034 B0EE000A 		vmov.f32	s0, #2.0e+0
 1015              	.LVL36:
 1016              		.loc 11 264 51 view .LVU213
 1017              	.LBE447:
 1018              	.LBI446:
 1019              		.loc 11 264 11 is_stmt 1 view .LVU214
 1020              	.LBE446:
 157:../../../DaisySP/Source/Drums/hihat.h **** 
 1021              		.loc 11 157 48 is_stmt 0 view .LVU215
 1022 0038 60EEE70A 		vnmul.f32	s1, s1, s15
 1023              	.LVL37:
 1024              	.LBB449:
 1025              	.LBB448:
 1026              		.loc 11 264 51 view .LVU216
 1027 003c 60EE880A 		vmul.f32	s1, s1, s16
 1028 0040 FFF7FEFF 		bl	powf
 1029              	.LVL38:
 1030              		.loc 11 264 51 view .LVU217
 1031 0044 B0EE409A 		vmov.f32	s18, s0
 1032              	.LVL39:
ARM GAS  C:\Users\jaude\AppData\Local\Temp\ccMKA3wm.s 			page 40


 1033              		.loc 11 264 51 view .LVU218
 1034              	.LBE448:
 1035              	.LBE449:
 159:../../../DaisySP/Source/Drums/hihat.h ****         {
 1036              		.loc 11 159 9 view .LVU219
 1037 0048 002D     		cmp	r5, #0
 1038 004a 40F0A980 		bne	.L16
 159:../../../DaisySP/Source/Drums/hihat.h ****         {
 1039              		.loc 11 159 20 discriminator 1 view .LVU220
 1040 004e 637E     		ldrb	r3, [r4, #25]	@ zero_extendqisi2
 1041 0050 002B     		cmp	r3, #0
 1042 0052 40F0A580 		bne	.L16
 1043              	.L17:
 168:../../../DaisySP/Source/Drums/hihat.h **** 
 1044              		.loc 11 168 44 view .LVU221
 1045 0056 94ED020A 		vldr.32	s0, [r4, #8]
 1046              	.LVL40:
 168:../../../DaisySP/Source/Drums/hihat.h **** 
 1047              		.loc 11 168 44 view .LVU222
 1048 005a 04F12C00 		add	r0, r4, #44
 173:../../../DaisySP/Source/Drums/hihat.h **** 
 1049              		.loc 11 173 50 view .LVU223
 1050 005e 2546     		mov	r5, r4
 1051              	.LBB450:
 1052              	.LBB451:
 1053              	.LBB452:
  44:../../../DaisySP/Source/Utility/dsp.h **** #else
 1054              		.loc 13 44 5 view .LVU224
 1055 0060 DFED6DAA 		vldr.32	s21, .L30+12
 1056              	.LBE452:
 1057              	.LBE451:
 1058              	.LBE450:
 168:../../../DaisySP/Source/Drums/hihat.h **** 
 1059              		.loc 11 168 44 view .LVU225
 1060 0064 30EE000A 		vadd.f32	s0, s0, s0
 1061 0068 FFF7FEFF 		bl	_ZN7daisysp11SquareNoise7ProcessEf
 1062              	.LVL41:
 171:../../../DaisySP/Source/Drums/hihat.h **** 
 1063              		.loc 11 171 31 view .LVU226
 1064 006c 9FED6B6A 		vldr.32	s12, .L30+16
 1065 0070 D4ED006A 		vldr.32	s13, [r4]
 168:../../../DaisySP/Source/Drums/hihat.h **** 
 1066              		.loc 11 168 44 view .LVU227
 1067 0074 B0EE40AA 		vmov.f32	s20, s0
 171:../../../DaisySP/Source/Drums/hihat.h **** 
 1068              		.loc 11 171 64 view .LVU228
 1069 0078 9FED697A 		vldr.32	s14, .L30+20
 1070              	.LBB459:
 1071              	.LBB460:
 1072              		.loc 11 264 51 view .LVU229
 1073 007c B0EE000A 		vmov.f32	s0, #2.0e+0
 1074              	.LVL42:
 1075              		.loc 11 264 51 view .LVU230
 1076              	.LBE460:
 1077              	.LBI459:
 1078              		.loc 11 264 11 is_stmt 1 view .LVU231
 1079              	.LBE459:
ARM GAS  C:\Users\jaude\AppData\Local\Temp\ccMKA3wm.s 			page 41


 171:../../../DaisySP/Source/Drums/hihat.h **** 
 1080              		.loc 11 171 31 is_stmt 0 view .LVU232
 1081 0080 C6EE268A 		vdiv.f32	s17, s12, s13
 171:../../../DaisySP/Source/Drums/hihat.h **** 
 1082              		.loc 11 171 64 view .LVU233
 1083 0084 D4ED037A 		vldr.32	s15, [r4, #12]
 1084              	.LBB463:
 1085              	.LBB461:
 1086              		.loc 11 264 51 view .LVU234
 1087 0088 DFED610A 		vldr.32	s1, .L30+4
 1088              	.LBE461:
 1089              	.LBE463:
 173:../../../DaisySP/Source/Drums/hihat.h **** 
 1090              		.loc 11 173 50 view .LVU235
 1091 008c 4435     		adds	r5, r5, #68
 1092              	.LVL43:
 171:../../../DaisySP/Source/Drums/hihat.h **** 
 1093              		.loc 11 171 64 view .LVU236
 1094 008e 67EE877A 		vmul.f32	s15, s15, s14
 1095              	.LVL44:
 1096              	.LBB464:
 1097              	.LBB462:
 1098              		.loc 11 264 51 view .LVU237
 1099 0092 67EEA00A 		vmul.f32	s1, s15, s1
 1100 0096 FFF7FEFF 		bl	powf
 1101              	.LVL45:
 1102              		.loc 11 264 51 view .LVU238
 1103              	.LBE462:
 1104              	.LBE464:
 173:../../../DaisySP/Source/Drums/hihat.h **** 
 1105              		.loc 11 173 24 view .LVU239
 1106 009a DFED626A 		vldr.32	s13, .L30+24
 173:../../../DaisySP/Source/Drums/hihat.h **** 
 1107              		.loc 11 173 50 view .LVU240
 1108 009e D4ED007A 		vldr.32	s15, [r4]
 1109              	.LVL46:
 1110              	.LBB465:
 1111              	.LBI450:
  64:../../../DaisySP/Source/Utility/dsp.h **** {
 1112              		.loc 13 64 14 is_stmt 1 view .LVU241
 1113              	.LBE465:
  66:../../../DaisySP/Source/Utility/dsp.h **** }
 1114              		.loc 13 66 5 view .LVU242
 1115              	.LBB466:
 1116              	.LBB455:
 1117              	.LBI451:
  40:../../../DaisySP/Source/Utility/dsp.h **** {
 1118              		.loc 13 40 14 view .LVU243
 1119              	.LBB453:
  42:../../../DaisySP/Source/Utility/dsp.h **** #ifdef __arm__
 1120              		.loc 13 42 5 view .LVU244
  44:../../../DaisySP/Source/Utility/dsp.h **** #else
 1121              		.loc 13 44 5 view .LVU245
 1122              	.LBE453:
 1123              	.LBE455:
 1124              	.LBE466:
 176:../../../DaisySP/Source/Drums/hihat.h ****         noise_coloration_svf_.SetRes(resonance ? 3.0f + 6.0f * tone_ : 1.0f);
ARM GAS  C:\Users\jaude\AppData\Local\Temp\ccMKA3wm.s 			page 42


 1125              		.loc 11 176 38 is_stmt 0 view .LVU246
 1126 00a2 2846     		mov	r0, r5
 173:../../../DaisySP/Source/Drums/hihat.h **** 
 1127              		.loc 11 173 24 view .LVU247
 1128 00a4 86EEA77A 		vdiv.f32	s14, s13, s15
 1129              	.LVL47:
 171:../../../DaisySP/Source/Drums/hihat.h **** 
 1130              		.loc 11 171 15 view .LVU248
 1131 00a8 68EE808A 		vmul.f32	s17, s17, s0
 1132              	.LVL48:
 1133              	.LBB467:
 1134              	.LBB456:
 1135              	.LBB454:
  44:../../../DaisySP/Source/Utility/dsp.h **** #else
 1136              		.loc 13 44 5 view .LVU249
 1137              		.syntax unified
 1138              	@ 44 "../../../DaisySP/Source/Utility/dsp.h" 1
 1139 00ac C8FEAA8A 		vmaxnm.f32 s17, s17, s21
 1140              	@ 0 "" 2
 1141              	.LVL49:
  48:../../../DaisySP/Source/Utility/dsp.h **** }
 1142              		.loc 13 48 5 is_stmt 1 view .LVU250
  48:../../../DaisySP/Source/Utility/dsp.h **** }
 1143              		.loc 13 48 5 is_stmt 0 view .LVU251
 1144              		.thumb
 1145              		.syntax unified
 1146              	.LBE454:
 1147              	.LBE456:
 1148              	.LBB457:
 1149              	.LBI457:
  51:../../../DaisySP/Source/Utility/dsp.h **** {
 1150              		.loc 13 51 14 is_stmt 1 view .LVU252
 1151              	.LBB458:
  53:../../../DaisySP/Source/Utility/dsp.h **** #ifdef __arm__
 1152              		.loc 13 53 5 view .LVU253
  55:../../../DaisySP/Source/Utility/dsp.h **** #else
 1153              		.loc 13 55 5 view .LVU254
 1154              		.syntax unified
 1155              	@ 55 "../../../DaisySP/Source/Utility/dsp.h" 1
 1156 00b0 C8FEC78A 		vminnm.f32 s17, s17, s14
 1157              	@ 0 "" 2
 1158              	.LVL50:
  59:../../../DaisySP/Source/Utility/dsp.h **** }
 1159              		.loc 13 59 5 view .LVU255
  59:../../../DaisySP/Source/Utility/dsp.h **** }
 1160              		.loc 13 59 5 is_stmt 0 view .LVU256
 1161              		.thumb
 1162              		.syntax unified
 1163              	.LBE458:
 1164              	.LBE457:
 1165              	.LBE467:
 176:../../../DaisySP/Source/Drums/hihat.h ****         noise_coloration_svf_.SetRes(resonance ? 3.0f + 6.0f * tone_ : 1.0f);
 1166              		.loc 11 176 38 view .LVU257
 1167 00b4 27EEA80A 		vmul.f32	s0, s15, s17
 1168 00b8 FFF7FEFF 		bl	_ZN7daisysp3Svf7SetFreqEf
 1169              	.LVL51:
 177:../../../DaisySP/Source/Drums/hihat.h **** 
ARM GAS  C:\Users\jaude\AppData\Local\Temp\ccMKA3wm.s 			page 43


 1170              		.loc 11 177 37 view .LVU258
 1171 00bc F1EE087A 		vmov.f32	s15, #6.0e+0
 1172 00c0 B0EE080A 		vmov.f32	s0, #3.0e+0
 1173 00c4 94ED037A 		vldr.32	s14, [r4, #12]
 1174 00c8 2846     		mov	r0, r5
 1175 00ca A7EE270A 		vfma.f32	s0, s14, s15
 1176 00ce FFF7FEFF 		bl	_ZN7daisysp3Svf6SetResEf
 1177              	.LVL52:
 179:../../../DaisySP/Source/Drums/hihat.h ****         out = noise_coloration_svf_.Band();
 1178              		.loc 11 179 38 view .LVU259
 1179 00d2 B0EE4A0A 		vmov.f32	s0, s20
 1180 00d6 2846     		mov	r0, r5
 1181 00d8 FFF7FEFF 		bl	_ZN7daisysp3Svf7ProcessEf
 1182              	.LVL53:
 1183              	.LBB468:
 1184              	.LBI468:
  31:../../../DaisySP/Source/Filters/svf.h ****     /** Initializes the filter
  32:../../../DaisySP/Source/Filters/svf.h ****         float sample_rate - sample rate of the audio engine being run, and the frequency that the P
  33:../../../DaisySP/Source/Filters/svf.h ****     */
  34:../../../DaisySP/Source/Filters/svf.h ****     void Init(float sample_rate);
  35:../../../DaisySP/Source/Filters/svf.h **** 
  36:../../../DaisySP/Source/Filters/svf.h **** 
  37:../../../DaisySP/Source/Filters/svf.h ****     /** 
  38:../../../DaisySP/Source/Filters/svf.h ****         Process the input signal, updating all of the outputs.
  39:../../../DaisySP/Source/Filters/svf.h ****     */
  40:../../../DaisySP/Source/Filters/svf.h ****     void Process(float in);
  41:../../../DaisySP/Source/Filters/svf.h **** 
  42:../../../DaisySP/Source/Filters/svf.h **** 
  43:../../../DaisySP/Source/Filters/svf.h ****     /** sets the frequency of the cutoff frequency. 
  44:../../../DaisySP/Source/Filters/svf.h ****         f must be between 0.0 and sample_rate / 3
  45:../../../DaisySP/Source/Filters/svf.h ****     */
  46:../../../DaisySP/Source/Filters/svf.h ****     void SetFreq(float f);
  47:../../../DaisySP/Source/Filters/svf.h **** 
  48:../../../DaisySP/Source/Filters/svf.h ****     /** sets the resonance of the filter.
  49:../../../DaisySP/Source/Filters/svf.h ****         Must be between 0.0 and 1.0 to ensure stability.
  50:../../../DaisySP/Source/Filters/svf.h ****     */
  51:../../../DaisySP/Source/Filters/svf.h ****     void SetRes(float r);
  52:../../../DaisySP/Source/Filters/svf.h **** 
  53:../../../DaisySP/Source/Filters/svf.h ****     /** sets the drive of the filter 
  54:../../../DaisySP/Source/Filters/svf.h ****         affects the response of the resonance of the filter
  55:../../../DaisySP/Source/Filters/svf.h ****     */
  56:../../../DaisySP/Source/Filters/svf.h ****     void SetDrive(float d);
  57:../../../DaisySP/Source/Filters/svf.h ****     /** lowpass output
  58:../../../DaisySP/Source/Filters/svf.h ****         \return low pass output of the filter
  59:../../../DaisySP/Source/Filters/svf.h ****     */
  60:../../../DaisySP/Source/Filters/svf.h ****     inline float Low() { return out_low_; }
  61:../../../DaisySP/Source/Filters/svf.h ****     /** highpass output
  62:../../../DaisySP/Source/Filters/svf.h ****         \return high pass output of the filter
  63:../../../DaisySP/Source/Filters/svf.h ****     */
  64:../../../DaisySP/Source/Filters/svf.h ****     inline float High() { return out_high_; }
  65:../../../DaisySP/Source/Filters/svf.h ****     /** bandpass output
  66:../../../DaisySP/Source/Filters/svf.h ****         \return band pass output of the filter
  67:../../../DaisySP/Source/Filters/svf.h ****     */
  68:../../../DaisySP/Source/Filters/svf.h ****     inline float Band() { return out_band_; }
 1185              		.loc 7 68 18 is_stmt 1 view .LVU260
 1186              	.LBB469:
 1187              		.loc 7 68 27 view .LVU261
ARM GAS  C:\Users\jaude\AppData\Local\Temp\ccMKA3wm.s 			page 44


 1188              	.LBE469:
 1189              	.LBE468:
 185:../../../DaisySP/Source/Drums/hihat.h ****         noise_f       = fclamp(noise_f, 0.0f, 0.5f);
 1190              		.loc 11 185 54 is_stmt 0 view .LVU262
 1191 00dc F7EE006A 		vmov.f32	s13, #1.0e+0
 185:../../../DaisySP/Source/Drums/hihat.h ****         noise_f       = fclamp(noise_f, 0.0f, 0.5f);
 1192              		.loc 11 185 56 view .LVU263
 1193 00e0 D4ED055A 		vldr.32	s11, [r4, #20]
 185:../../../DaisySP/Source/Drums/hihat.h ****         noise_f       = fclamp(noise_f, 0.0f, 0.5f);
 1194              		.loc 11 185 38 view .LVU264
 1195 00e4 B3EE007A 		vmov.f32	s14, #1.6e+1
 188:../../../DaisySP/Source/Drums/hihat.h ****         if(noise_clock_ >= 1.0f)
 1196              		.loc 11 188 22 view .LVU265
 1197 00e8 94ED086A 		vldr.32	s12, [r4, #32]
 1198              	.LBB471:
 1199              	.LBB472:
 1200              	.LBB473:
  55:../../../DaisySP/Source/Utility/dsp.h **** #else
 1201              		.loc 13 55 5 view .LVU266
 1202 00ec B6EE005A 		vmov.f32	s10, #5.0e-1
 1203              	.LBE473:
 1204              	.LBE472:
 1205              	.LBE471:
 185:../../../DaisySP/Source/Drums/hihat.h ****         noise_f       = fclamp(noise_f, 0.0f, 0.5f);
 1206              		.loc 11 185 54 view .LVU267
 1207 00f0 76EEE54A 		vsub.f32	s9, s13, s11
 185:../../../DaisySP/Source/Drums/hihat.h ****         noise_f       = fclamp(noise_f, 0.0f, 0.5f);
 1208              		.loc 11 185 15 view .LVU268
 1209 00f4 D4ED027A 		vldr.32	s15, [r4, #8]
 1210              	.LBB480:
 1211              	.LBB470:
 1212              		.loc 7 68 34 view .LVU269
 1213 00f8 94ED1F8A 		vldr.32	s16, [r4, #124]
 1214              	.LVL54:
 1215              		.loc 7 68 34 view .LVU270
 1216              	.LBE470:
 1217              	.LBE480:
 185:../../../DaisySP/Source/Drums/hihat.h ****         noise_f       = fclamp(noise_f, 0.0f, 0.5f);
 1218              		.loc 11 185 38 view .LVU271
 1219 00fc A4EE877A 		vfma.f32	s14, s9, s14
 1220              	.LVL55:
 1221              	.LBB481:
 1222              	.LBI471:
  64:../../../DaisySP/Source/Utility/dsp.h **** {
 1223              		.loc 13 64 14 is_stmt 1 view .LVU272
 1224              	.LBE481:
  66:../../../DaisySP/Source/Utility/dsp.h **** }
 1225              		.loc 13 66 5 view .LVU273
 1226              	.LBB482:
 1227              	.LBB475:
 1228              	.LBI475:
  40:../../../DaisySP/Source/Utility/dsp.h **** {
 1229              		.loc 13 40 14 view .LVU274
 1230              	.LBB476:
  42:../../../DaisySP/Source/Utility/dsp.h **** #ifdef __arm__
 1231              		.loc 13 42 5 view .LVU275
  44:../../../DaisySP/Source/Utility/dsp.h **** #else
ARM GAS  C:\Users\jaude\AppData\Local\Temp\ccMKA3wm.s 			page 45


 1232              		.loc 13 44 5 view .LVU276
 1233              	.LBE476:
 1234              	.LBE475:
 1235              	.LBE482:
 185:../../../DaisySP/Source/Drums/hihat.h ****         noise_f       = fclamp(noise_f, 0.0f, 0.5f);
 1236              		.loc 11 185 15 is_stmt 0 view .LVU277
 1237 0100 67EE277A 		vmul.f32	s15, s14, s15
 1238              	.LVL56:
 1239              	.LBB483:
 1240              	.LBB478:
 1241              	.LBB477:
  44:../../../DaisySP/Source/Utility/dsp.h **** #else
 1242              		.loc 13 44 5 view .LVU278
 1243              		.syntax unified
 1244              	@ 44 "../../../DaisySP/Source/Utility/dsp.h" 1
 1245 0104 C7FEAA7A 		vmaxnm.f32 s15, s15, s21
 1246              	@ 0 "" 2
 1247              	.LVL57:
  48:../../../DaisySP/Source/Utility/dsp.h **** }
 1248              		.loc 13 48 5 is_stmt 1 view .LVU279
  48:../../../DaisySP/Source/Utility/dsp.h **** }
 1249              		.loc 13 48 5 is_stmt 0 view .LVU280
 1250              		.thumb
 1251              		.syntax unified
 1252              	.LBE477:
 1253              	.LBE478:
 1254              	.LBB479:
 1255              	.LBI472:
  51:../../../DaisySP/Source/Utility/dsp.h **** {
 1256              		.loc 13 51 14 is_stmt 1 view .LVU281
 1257              	.LBB474:
  53:../../../DaisySP/Source/Utility/dsp.h **** #ifdef __arm__
 1258              		.loc 13 53 5 view .LVU282
  55:../../../DaisySP/Source/Utility/dsp.h **** #else
 1259              		.loc 13 55 5 view .LVU283
 1260              		.syntax unified
 1261              	@ 55 "../../../DaisySP/Source/Utility/dsp.h" 1
 1262 0108 C7FEC57A 		vminnm.f32 s15, s15, s10
 1263              	@ 0 "" 2
 1264              	.LVL58:
  59:../../../DaisySP/Source/Utility/dsp.h **** }
 1265              		.loc 13 59 5 view .LVU284
  59:../../../DaisySP/Source/Utility/dsp.h **** }
 1266              		.loc 13 59 5 is_stmt 0 view .LVU285
 1267              		.thumb
 1268              		.syntax unified
 1269              	.LBE474:
 1270              	.LBE479:
 1271              	.LBE483:
 188:../../../DaisySP/Source/Drums/hihat.h ****         if(noise_clock_ >= 1.0f)
 1272              		.loc 11 188 22 view .LVU286
 1273 010c 77EE867A 		vadd.f32	s15, s15, s12
 1274              	.LVL59:
 189:../../../DaisySP/Source/Drums/hihat.h ****         {
 1275              		.loc 11 189 9 view .LVU287
 1276 0110 F4EEE67A 		vcmpe.f32	s15, s13
 188:../../../DaisySP/Source/Drums/hihat.h ****         if(noise_clock_ >= 1.0f)
ARM GAS  C:\Users\jaude\AppData\Local\Temp\ccMKA3wm.s 			page 46


 1277              		.loc 11 188 22 view .LVU288
 1278 0114 C4ED087A 		vstr.32	s15, [r4, #32]
 189:../../../DaisySP/Source/Drums/hihat.h ****         {
 1279              		.loc 11 189 9 view .LVU289
 1280 0118 F1EE10FA 		vmrs	APSR_nzcv, FPSCR
 1281 011c 60DA     		bge	.L18
 194:../../../DaisySP/Source/Drums/hihat.h **** 
 1282              		.loc 11 194 30 view .LVU290
 1283 011e D4ED096A 		vldr.32	s13, [r4, #36]
 1284              	.L19:
 199:../../../DaisySP/Source/Drums/hihat.h ****         out = vca(out, sustain_ ? sustain_gain_ : envelope_);
 1285              		.loc 11 199 39 view .LVU291
 1286 0122 B6EE005A 		vmov.f32	s10, #5.0e-1
 197:../../../DaisySP/Source/Drums/hihat.h ****         VCA vca;
 1287              		.loc 11 197 33 view .LVU292
 1288 0126 94ED017A 		vldr.32	s14, [r4, #4]
 194:../../../DaisySP/Source/Drums/hihat.h **** 
 1289              		.loc 11 194 44 view .LVU293
 1290 012a 36EEC86A 		vsub.f32	s12, s13, s16
 199:../../../DaisySP/Source/Drums/hihat.h ****         out = vca(out, sustain_ ? sustain_gain_ : envelope_);
 1291              		.loc 11 199 19 view .LVU294
 1292 012e D4ED076A 		vldr.32	s13, [r4, #28]
 197:../../../DaisySP/Source/Drums/hihat.h ****         VCA vca;
 1293              		.loc 11 197 33 view .LVU295
 1294 0132 D4ED047A 		vldr.32	s15, [r4, #16]
 199:../../../DaisySP/Source/Drums/hihat.h ****         out = vca(out, sustain_ ? sustain_gain_ : envelope_);
 1295              		.loc 11 199 39 view .LVU296
 1296 0136 F4EEC56A 		vcmpe.f32	s13, s10
 197:../../../DaisySP/Source/Drums/hihat.h ****         VCA vca;
 1297              		.loc 11 197 33 view .LVU297
 1298 013a 67EE277A 		vmul.f32	s15, s14, s15
 194:../../../DaisySP/Source/Drums/hihat.h **** 
 1299              		.loc 11 194 13 view .LVU298
 1300 013e A6EE258A 		vfma.f32	s16, s12, s11
 1301              	.LVL60:
 199:../../../DaisySP/Source/Drums/hihat.h ****         out = vca(out, sustain_ ? sustain_gain_ : envelope_);
 1302              		.loc 11 199 39 view .LVU299
 1303 0142 F1EE10FA 		vmrs	APSR_nzcv, FPSCR
 154:../../../DaisySP/Source/Drums/hihat.h ****             = 1.0f - 0.003f * SemitonesToRatio(-decay_ * 84.0f);
 1304              		.loc 11 154 21 view .LVU300
 1305 0146 B7EE007A 		vmov.f32	s14, #1.0e+0
 197:../../../DaisySP/Source/Drums/hihat.h ****         VCA vca;
 1306              		.loc 11 197 23 view .LVU301
 1307 014a C4ED0A7A 		vstr.32	s15, [r4, #40]
 199:../../../DaisySP/Source/Drums/hihat.h ****         out = vca(out, sustain_ ? sustain_gain_ : envelope_);
 1308              		.loc 11 199 39 view .LVU302
 1309 014e 42DD     		ble	.L28
 154:../../../DaisySP/Source/Drums/hihat.h ****             = 1.0f - 0.003f * SemitonesToRatio(-decay_ * 84.0f);
 1310              		.loc 11 154 21 view .LVU303
 1311 0150 9FED356A 		vldr.32	s12, .L30+28
 1312 0154 A9EEC67A 		vfms.f32	s14, s19, s12
 1313              	.L22:
 200:../../../DaisySP/Source/Drums/hihat.h **** 
 1314              		.loc 11 200 18 discriminator 4 view .LVU304
 1315 0158 237E     		ldrb	r3, [r4, #24]	@ zero_extendqisi2
 199:../../../DaisySP/Source/Drums/hihat.h ****         out = vca(out, sustain_ ? sustain_gain_ : envelope_);
 1316              		.loc 11 199 19 discriminator 4 view .LVU305
ARM GAS  C:\Users\jaude\AppData\Local\Temp\ccMKA3wm.s 			page 47


 1317 015a 26EE877A 		vmul.f32	s14, s13, s14
 202:../../../DaisySP/Source/Drums/hihat.h ****         hpf_.SetRes(.5f);
 1318              		.loc 11 202 21 discriminator 4 view .LVU306
 1319 015e 2046     		mov	r0, r4
 1320 0160 94ED000A 		vldr.32	s0, [r4]
 200:../../../DaisySP/Source/Drums/hihat.h **** 
 1321              		.loc 11 200 18 discriminator 4 view .LVU307
 1322 0164 002B     		cmp	r3, #0
 202:../../../DaisySP/Source/Drums/hihat.h ****         hpf_.SetRes(.5f);
 1323              		.loc 11 202 21 discriminator 4 view .LVU308
 1324 0166 00F19000 		add	r0, r0, #144
 199:../../../DaisySP/Source/Drums/hihat.h ****         out = vca(out, sustain_ ? sustain_gain_ : envelope_);
 1325              		.loc 11 199 19 discriminator 4 view .LVU309
 1326 016a 84ED077A 		vstr.32	s14, [r4, #28]
 200:../../../DaisySP/Source/Drums/hihat.h **** 
 1327              		.loc 11 200 18 discriminator 4 view .LVU310
 1328 016e 47FE277A 		vseleq.f32	s15, s14, s15
 1329              	.LVL61:
 1330              	.LBB484:
 1331              	.LBI484:
 101:../../../DaisySP/Source/Drums/hihat.h **** };
 1332              		.loc 11 101 11 is_stmt 1 discriminator 4 view .LVU311
 1333              	.LBB485:
 101:../../../DaisySP/Source/Drums/hihat.h **** };
 1334              		.loc 11 101 45 discriminator 4 view .LVU312
 101:../../../DaisySP/Source/Drums/hihat.h **** };
 1335              		.loc 11 101 56 is_stmt 0 discriminator 4 view .LVU313
 1336 0172 27EE888A 		vmul.f32	s16, s15, s16
 1337              	.LVL62:
 101:../../../DaisySP/Source/Drums/hihat.h **** };
 1338              		.loc 11 101 56 discriminator 4 view .LVU314
 1339              	.LBE485:
 1340              	.LBE484:
 202:../../../DaisySP/Source/Drums/hihat.h ****         hpf_.SetRes(.5f);
 1341              		.loc 11 202 21 discriminator 4 view .LVU315
 1342 0176 28EE800A 		vmul.f32	s0, s17, s0
 1343 017a 0190     		str	r0, [sp, #4]
 1344 017c FFF7FEFF 		bl	_ZN7daisysp3Svf7SetFreqEf
 1345              	.LVL63:
 203:../../../DaisySP/Source/Drums/hihat.h ****         hpf_.Process(out);
 1346              		.loc 11 203 20 discriminator 4 view .LVU316
 1347 0180 0198     		ldr	r0, [sp, #4]
 1348 0182 B6EE000A 		vmov.f32	s0, #5.0e-1
 1349 0186 FFF7FEFF 		bl	_ZN7daisysp3Svf6SetResEf
 1350              	.LVL64:
 204:../../../DaisySP/Source/Drums/hihat.h ****         out = hpf_.High();
 1351              		.loc 11 204 21 discriminator 4 view .LVU317
 1352 018a B0EE480A 		vmov.f32	s0, s16
 1353 018e 0198     		ldr	r0, [sp, #4]
 1354 0190 FFF7FEFF 		bl	_ZN7daisysp3Svf7ProcessEf
 1355              	.LVL65:
 1356              	.LBB486:
 1357              	.LBI486:
  64:../../../DaisySP/Source/Filters/svf.h ****     /** bandpass output
 1358              		.loc 7 64 18 is_stmt 1 discriminator 4 view .LVU318
 1359              	.LBB487:
  64:../../../DaisySP/Source/Filters/svf.h ****     /** bandpass output
ARM GAS  C:\Users\jaude\AppData\Local\Temp\ccMKA3wm.s 			page 48


 1360              		.loc 7 64 27 discriminator 4 view .LVU319
  64:../../../DaisySP/Source/Filters/svf.h ****     /** bandpass output
 1361              		.loc 7 64 27 is_stmt 0 discriminator 4 view .LVU320
 1362              	.LBE487:
 1363              	.LBE486:
 208:../../../DaisySP/Source/Drums/hihat.h **** 
 1364              		.loc 11 208 5 discriminator 4 view .LVU321
 1365 0194 94ED310A 		vldr.32	s0, [r4, #196]
 1366 0198 03B0     		add	sp, sp, #12
 1367              		.cfi_remember_state
 1368              		.cfi_def_cfa_offset 36
 1369              		@ sp needed
 1370 019a BDEC068B 		vldm	sp!, {d8-d10}
 1371              		.cfi_restore 84
 1372              		.cfi_restore 85
 1373              		.cfi_restore 82
 1374              		.cfi_restore 83
 1375              		.cfi_restore 80
 1376              		.cfi_restore 81
 1377              		.cfi_def_cfa_offset 12
 1378              	.LVL66:
 208:../../../DaisySP/Source/Drums/hihat.h **** 
 1379              		.loc 11 208 5 discriminator 4 view .LVU322
 1380 019e 30BD     		pop	{r4, r5, pc}
 1381              	.LVL67:
 1382              	.L16:
 1383              		.cfi_restore_state
 164:../../../DaisySP/Source/Drums/hihat.h ****         }
 1384              		.loc 11 164 40 view .LVU323
 1385 01a0 F7EE006A 		vmov.f32	s13, #1.0e+0
 1386 01a4 94ED047A 		vldr.32	s14, [r4, #16]
 164:../../../DaisySP/Source/Drums/hihat.h ****         }
 1387              		.loc 11 164 25 view .LVU324
 1388 01a8 B6EE006A 		vmov.f32	s12, #5.0e-1
 164:../../../DaisySP/Source/Drums/hihat.h ****         }
 1389              		.loc 11 164 59 view .LVU325
 1390 01ac 94ED015A 		vldr.32	s10, [r4, #4]
 164:../../../DaisySP/Source/Drums/hihat.h ****         }
 1391              		.loc 11 164 25 view .LVU326
 1392 01b0 F7EE087A 		vmov.f32	s15, #1.5e+0
 164:../../../DaisySP/Source/Drums/hihat.h ****         }
 1393              		.loc 11 164 59 view .LVU327
 1394 01b4 DFED1D5A 		vldr.32	s11, .L30+32
 164:../../../DaisySP/Source/Drums/hihat.h ****         }
 1395              		.loc 11 164 40 view .LVU328
 1396 01b8 76EEC76A 		vsub.f32	s13, s13, s14
 164:../../../DaisySP/Source/Drums/hihat.h ****         }
 1397              		.loc 11 164 59 view .LVU329
 1398 01bc 9FED1C7A 		vldr.32	s14, .L30+36
 161:../../../DaisySP/Source/Drums/hihat.h **** 
 1399              		.loc 11 161 19 view .LVU330
 1400 01c0 0023     		movs	r3, #0
 164:../../../DaisySP/Source/Drums/hihat.h ****         }
 1401              		.loc 11 164 59 view .LVU331
 1402 01c2 A5EE257A 		vfma.f32	s14, s10, s11
 164:../../../DaisySP/Source/Drums/hihat.h ****         }
 1403              		.loc 11 164 25 view .LVU332
ARM GAS  C:\Users\jaude\AppData\Local\Temp\ccMKA3wm.s 			page 49


 1404 01c6 E6EE867A 		vfma.f32	s15, s13, s12
 161:../../../DaisySP/Source/Drums/hihat.h **** 
 1405              		.loc 11 161 19 view .LVU333
 1406 01ca 6376     		strb	r3, [r4, #25]
 164:../../../DaisySP/Source/Drums/hihat.h ****         }
 1407              		.loc 11 164 51 view .LVU334
 1408 01cc 67EE877A 		vmul.f32	s15, s15, s14
 164:../../../DaisySP/Source/Drums/hihat.h ****         }
 1409              		.loc 11 164 17 view .LVU335
 1410 01d0 C4ED077A 		vstr.32	s15, [r4, #28]
 1411 01d4 3FE7     		b	.L17
 1412              	.LVL68:
 1413              	.L28:
 156:../../../DaisySP/Source/Drums/hihat.h ****             = 1.0f - 0.0025f * SemitonesToRatio(-decay_ * 36.0f);
 1414              		.loc 11 156 21 view .LVU336
 1415 01d6 9FED176A 		vldr.32	s12, .L30+40
 1416 01da A9EE467A 		vfms.f32	s14, s18, s12
 1417 01de BBE7     		b	.L22
 1418              	.L18:
 191:../../../DaisySP/Source/Drums/hihat.h ****             noise_sample_ = rand() * kRandFrac - 0.5f;
 1419              		.loc 11 191 26 view .LVU337
 1420 01e0 77EEE67A 		vsub.f32	s15, s15, s13
 1421 01e4 C4ED087A 		vstr.32	s15, [r4, #32]
 192:../../../DaisySP/Source/Drums/hihat.h ****         }
 1422              		.loc 11 192 33 view .LVU338
 1423 01e8 FFF7FEFF 		bl	rand
 1424              	.LVL69:
 192:../../../DaisySP/Source/Drums/hihat.h ****         }
 1425              		.loc 11 192 36 view .LVU339
 1426 01ec 07EE900A 		vmov	s15, r0	@ int
 192:../../../DaisySP/Source/Drums/hihat.h ****         }
 1427              		.loc 11 192 48 view .LVU340
 1428 01f0 FEEE006A 		vmov.f32	s13, #-5.0e-1
 1429 01f4 9FED107A 		vldr.32	s14, .L30+44
 192:../../../DaisySP/Source/Drums/hihat.h ****         }
 1430              		.loc 11 192 36 view .LVU341
 1431 01f8 F8EEE77A 		vcvt.f32.s32	s15, s15
 194:../../../DaisySP/Source/Drums/hihat.h **** 
 1432              		.loc 11 194 16 view .LVU342
 1433 01fc D4ED055A 		vldr.32	s11, [r4, #20]
 192:../../../DaisySP/Source/Drums/hihat.h ****         }
 1434              		.loc 11 192 48 view .LVU343
 1435 0200 E7EE876A 		vfma.f32	s13, s15, s14
 192:../../../DaisySP/Source/Drums/hihat.h ****         }
 1436              		.loc 11 192 27 view .LVU344
 1437 0204 C4ED096A 		vstr.32	s13, [r4, #36]
 1438 0208 8BE7     		b	.L19
 1439              	.L31:
 1440 020a 00BF     		.align	2
 1441              	.L30:
 1442 020c 0000A842 		.word	1118306304
 1443 0210 ABAAAA3D 		.word	1034594987
 1444 0214 00001042 		.word	1108344832
 1445 0218 00000000 		.word	0
 1446 021c 00001643 		.word	1125515264
 1447 0220 00009042 		.word	1116733440
 1448 0224 00007A46 		.word	1182400512
ARM GAS  C:\Users\jaude\AppData\Local\Temp\ccMKA3wm.s 			page 50


 1449 0228 A69B443B 		.word	994352038
 1450 022c 3333333F 		.word	1060320051
 1451 0230 9A99993E 		.word	1050253722
 1452 0234 0AD7233B 		.word	992204554
 1453 0238 00000030 		.word	805306368
 1454              		.cfi_endproc
 1455              	.LFE4992:
 1457              		.section	.text._Z12ProcessDrumsv,"ax",%progbits
 1458              		.align	1
 1459              		.p2align 2,,3
 1460              		.global	_Z12ProcessDrumsv
 1461              		.syntax unified
 1462              		.thumb
 1463              		.thumb_func
 1464              		.fpu fpv5-d16
 1466              	_Z12ProcessDrumsv:
 1467              	.LFB4681:
  24:chorus.cpp    ****     bool t = tick.Process();
 1468              		.loc 12 24 1 is_stmt 1 view -0
 1469              		.cfi_startproc
 1470              		@ args = 0, pretend = 0, frame = 0
 1471              		@ frame_needed = 0, uses_anonymous_args = 0
  25:chorus.cpp    ****     pos    = pos >> t;
 1472              		.loc 12 25 5 view .LVU346
  24:chorus.cpp    ****     bool t = tick.Process();
 1473              		.loc 12 24 1 is_stmt 0 view .LVU347
 1474 0000 10B5     		push	{r4, lr}
 1475              		.cfi_def_cfa_offset 8
 1476              		.cfi_offset 4, -8
 1477              		.cfi_offset 14, -4
  25:chorus.cpp    ****     pos    = pos >> t;
 1478              		.loc 12 25 26 view .LVU348
 1479 0002 3348     		ldr	r0, .L49
  26:chorus.cpp    **** 
 1480              		.loc 12 26 14 view .LVU349
 1481 0004 334C     		ldr	r4, .L49+4
  24:chorus.cpp    ****     bool t = tick.Process();
 1482              		.loc 12 24 1 view .LVU350
 1483 0006 2DED028B 		vpush.64	{d8}
 1484              		.cfi_def_cfa_offset 16
 1485              		.cfi_offset 80, -16
 1486              		.cfi_offset 81, -12
  25:chorus.cpp    ****     pos    = pos >> t;
 1487              		.loc 12 25 26 view .LVU351
 1488 000a FFF7FEFF 		bl	_ZN7daisysp5Metro7ProcessEv
 1489              	.LVL70:
  26:chorus.cpp    **** 
 1490              		.loc 12 26 5 is_stmt 1 view .LVU352
  25:chorus.cpp    ****     pos    = pos >> t;
 1491              		.loc 12 25 27 is_stmt 0 view .LVU353
 1492 000e 021E     		subs	r2, r0, #0
  26:chorus.cpp    **** 
 1493              		.loc 12 26 14 view .LVU354
 1494 0010 2378     		ldrb	r3, [r4]	@ zero_extendqisi2
  25:chorus.cpp    ****     pos    = pos >> t;
 1495              		.loc 12 25 27 view .LVU355
 1496 0012 18BF     		it	ne
ARM GAS  C:\Users\jaude\AppData\Local\Temp\ccMKA3wm.s 			page 51


 1497 0014 0122     		movne	r2, #1
  26:chorus.cpp    **** 
 1498              		.loc 12 26 18 view .LVU356
 1499 0016 1341     		asrs	r3, r3, r2
  26:chorus.cpp    **** 
 1500              		.loc 12 26 12 view .LVU357
 1501 0018 D9B2     		uxtb	r1, r3
 1502 001a 2170     		strb	r1, [r4]
  28:chorus.cpp    ****     {
 1503              		.loc 12 28 5 is_stmt 1 view .LVU358
 1504 001c 002B     		cmp	r3, #0
 1505 001e 2FD1     		bne	.L33
  28:chorus.cpp    ****     {
 1506              		.loc 12 28 17 is_stmt 0 discriminator 1 view .LVU359
 1507 0020 0028     		cmp	r0, #0
 1508 0022 2FD0     		beq	.L34
  30:chorus.cpp    ****         bass_note = !bass_note;
 1509              		.loc 12 30 9 is_stmt 1 view .LVU360
  31:chorus.cpp    ****         osc.SetFreq(mtof(bass_note ? 31.f : 24.f));
 1510              		.loc 12 31 21 is_stmt 0 view .LVU361
 1511 0024 2C4A     		ldr	r2, .L49+8
  32:chorus.cpp    ****     }
 1512              		.loc 12 32 20 view .LVU362
 1513 0026 F8EE0E7A 		vmov.f32	s15, #-3.75e+0
 1514 002a DFED2C0A 		vldr.32	s1, .L49+12
  30:chorus.cpp    ****         bass_note = !bass_note;
 1515              		.loc 12 30 19 view .LVU363
 1516 002e 8021     		movs	r1, #128
  31:chorus.cpp    ****         osc.SetFreq(mtof(bass_note ? 31.f : 24.f));
 1517              		.loc 12 31 21 view .LVU364
 1518 0030 1378     		ldrb	r3, [r2]	@ zero_extendqisi2
 1519              	.LBB490:
 1520              	.LBB491:
 1521              		.loc 13 141 16 view .LVU365
 1522 0032 B0EE000A 		vmov.f32	s0, #2.0e+0
 1523              	.LBE491:
 1524              	.LBE490:
  30:chorus.cpp    ****         bass_note = !bass_note;
 1525              		.loc 12 30 19 view .LVU366
 1526 0036 2170     		strb	r1, [r4]
  31:chorus.cpp    ****         osc.SetFreq(mtof(bass_note ? 31.f : 24.f));
 1527              		.loc 12 31 9 is_stmt 1 view .LVU367
  31:chorus.cpp    ****         osc.SetFreq(mtof(bass_note ? 31.f : 24.f));
 1528              		.loc 12 31 21 is_stmt 0 view .LVU368
 1529 0038 83F00103 		eor	r3, r3, #1
  32:chorus.cpp    ****     }
 1530              		.loc 12 32 20 view .LVU369
 1531 003c 002B     		cmp	r3, #0
  31:chorus.cpp    ****         osc.SetFreq(mtof(bass_note ? 31.f : 24.f));
 1532              		.loc 12 31 19 view .LVU370
 1533 003e 1370     		strb	r3, [r2]
  32:chorus.cpp    ****     }
 1534              		.loc 12 32 9 is_stmt 1 view .LVU371
 1535              	.LBB493:
 1536              	.LBI490:
 139:../../../DaisySP/Source/Utility/dsp.h **** {
 1537              		.loc 13 139 14 view .LVU372
ARM GAS  C:\Users\jaude\AppData\Local\Temp\ccMKA3wm.s 			page 52


 1538              	.LBB492:
 1539              		.loc 13 141 5 view .LVU373
 1540              		.loc 13 141 16 is_stmt 0 view .LVU374
 1541 0040 47FEA00A 		vseleq.f32	s1, s15, s1
 1542 0044 FFF7FEFF 		bl	powf
 1543              	.LVL71:
 1544              		.loc 13 141 43 view .LVU375
 1545 0048 DFED257A 		vldr.32	s15, .L49+16
 1546              	.LBE492:
 1547              	.LBE493:
  32:chorus.cpp    ****     }
 1548              		.loc 12 32 20 view .LVU376
 1549 004c 2548     		ldr	r0, .L49+20
 1550 004e 20EE270A 		vmul.f32	s0, s0, s15
 1551 0052 FFF7FEFF 		bl	_ZN7daisysp21VariableSawOscillator7SetFreqEf
 1552              	.LVL72:
  35:chorus.cpp    ****     sig += (kick.Process(t && pos & (k_patt)) * 12.4f);
 1553              		.loc 12 35 5 is_stmt 1 view .LVU377
  35:chorus.cpp    ****     sig += (kick.Process(t && pos & (k_patt)) * 12.4f);
 1554              		.loc 12 35 39 is_stmt 0 view .LVU378
 1555 0056 2178     		ldrb	r1, [r4]	@ zero_extendqisi2
 1556              	.L36:
 1557 0058 234B     		ldr	r3, .L49+24
 1558 005a 1B78     		ldrb	r3, [r3]	@ zero_extendqisi2
  35:chorus.cpp    ****     sig += (kick.Process(t && pos & (k_patt)) * 12.4f);
 1559              		.loc 12 35 29 view .LVU379
 1560 005c 1940     		ands	r1, r1, r3
 1561 005e 2FD0     		beq	.L48
  35:chorus.cpp    ****     sig += (kick.Process(t && pos & (k_patt)) * 12.4f);
 1562              		.loc 12 35 56 view .LVU380
 1563 0060 B6EE008A 		vmov.f32	s16, #5.0e-1
  35:chorus.cpp    ****     sig += (kick.Process(t && pos & (k_patt)) * 12.4f);
 1564              		.loc 12 35 29 view .LVU381
 1565 0064 0121     		movs	r1, #1
 1566 0066 2148     		ldr	r0, .L49+28
 1567 0068 FFF7FEFF 		bl	_ZN7daisysp5HiHatINS_11SquareNoiseENS_9LinearVCAELb1EE7ProcessEb
 1568              	.LVL73:
  35:chorus.cpp    ****     sig += (kick.Process(t && pos & (k_patt)) * 12.4f);
 1569              		.loc 12 35 56 view .LVU382
 1570 006c 20EE088A 		vmul.f32	s16, s0, s16
 1571              	.LVL74:
  36:chorus.cpp    ****     sig += (osc.Process() * 0.05f);
 1572              		.loc 12 36 5 is_stmt 1 view .LVU383
 1573              	.L37:
  36:chorus.cpp    ****     sig += (osc.Process() * 0.05f);
 1574              		.loc 12 36 35 is_stmt 0 discriminator 1 view .LVU384
 1575 0070 1F4B     		ldr	r3, .L49+32
 1576 0072 2278     		ldrb	r2, [r4]	@ zero_extendqisi2
 1577 0074 1B78     		ldrb	r3, [r3]	@ zero_extendqisi2
  36:chorus.cpp    ****     sig += (osc.Process() * 0.05f);
 1578              		.loc 12 36 25 discriminator 1 view .LVU385
 1579 0076 1A42     		tst	r2, r3
 1580 0078 14BF     		ite	ne
 1581 007a 0121     		movne	r1, #1
 1582 007c 0021     		moveq	r1, #0
 1583 007e 0AE0     		b	.L38
 1584              	.LVL75:
ARM GAS  C:\Users\jaude\AppData\Local\Temp\ccMKA3wm.s 			page 53


 1585              	.L33:
  35:chorus.cpp    ****     sig += (kick.Process(t && pos & (k_patt)) * 12.4f);
 1586              		.loc 12 35 5 is_stmt 1 view .LVU386
  35:chorus.cpp    ****     sig += (kick.Process(t && pos & (k_patt)) * 12.4f);
 1587              		.loc 12 35 29 is_stmt 0 view .LVU387
 1588 0080 0028     		cmp	r0, #0
 1589 0082 E9D1     		bne	.L36
 1590              	.L34:
  35:chorus.cpp    ****     sig += (kick.Process(t && pos & (k_patt)) * 12.4f);
 1591              		.loc 12 35 56 view .LVU388
 1592 0084 B6EE008A 		vmov.f32	s16, #5.0e-1
  35:chorus.cpp    ****     sig += (kick.Process(t && pos & (k_patt)) * 12.4f);
 1593              		.loc 12 35 29 view .LVU389
 1594 0088 0021     		movs	r1, #0
 1595 008a 1848     		ldr	r0, .L49+28
 1596              	.LVL76:
  35:chorus.cpp    ****     sig += (kick.Process(t && pos & (k_patt)) * 12.4f);
 1597              		.loc 12 35 29 view .LVU390
 1598 008c FFF7FEFF 		bl	_ZN7daisysp5HiHatINS_11SquareNoiseENS_9LinearVCAELb1EE7ProcessEb
 1599              	.LVL77:
  36:chorus.cpp    ****     sig += (osc.Process() * 0.05f);
 1600              		.loc 12 36 25 view .LVU391
 1601 0090 0021     		movs	r1, #0
  35:chorus.cpp    ****     sig += (kick.Process(t && pos & (k_patt)) * 12.4f);
 1602              		.loc 12 35 56 view .LVU392
 1603 0092 20EE088A 		vmul.f32	s16, s0, s16
 1604              	.LVL78:
  36:chorus.cpp    ****     sig += (osc.Process() * 0.05f);
 1605              		.loc 12 36 5 is_stmt 1 view .LVU393
 1606              	.L38:
  36:chorus.cpp    ****     sig += (osc.Process() * 0.05f);
 1607              		.loc 12 36 25 is_stmt 0 discriminator 6 view .LVU394
 1608 0096 1748     		ldr	r0, .L49+36
 1609 0098 FFF7FEFF 		bl	_ZN7daisysp14AnalogBassDrum7ProcessEb
 1610              	.LVL79:
  36:chorus.cpp    ****     sig += (osc.Process() * 0.05f);
 1611              		.loc 12 36 9 discriminator 6 view .LVU395
 1612 009c DFED167A 		vldr.32	s15, .L49+40
  37:chorus.cpp    **** 
 1613              		.loc 12 37 24 discriminator 6 view .LVU396
 1614 00a0 1048     		ldr	r0, .L49+20
  36:chorus.cpp    ****     sig += (osc.Process() * 0.05f);
 1615              		.loc 12 36 9 discriminator 6 view .LVU397
 1616 00a2 A0EE278A 		vfma.f32	s16, s0, s15
 1617              	.LVL80:
  37:chorus.cpp    **** 
 1618              		.loc 12 37 5 is_stmt 1 discriminator 6 view .LVU398
  37:chorus.cpp    **** 
 1619              		.loc 12 37 24 is_stmt 0 discriminator 6 view .LVU399
 1620 00a6 FFF7FEFF 		bl	_ZN7daisysp21VariableSawOscillator7ProcessEv
 1621              	.LVL81:
  37:chorus.cpp    **** 
 1622              		.loc 12 37 9 discriminator 6 view .LVU400
 1623 00aa 9FED147A 		vldr.32	s14, .L49+44
  39:chorus.cpp    **** }
 1624              		.loc 12 39 18 discriminator 6 view .LVU401
 1625 00ae F2EE007A 		vmov.f32	s15, #8.0e+0
ARM GAS  C:\Users\jaude\AppData\Local\Temp\ccMKA3wm.s 			page 54


  37:chorus.cpp    **** 
 1626              		.loc 12 37 9 discriminator 6 view .LVU402
 1627 00b2 A0EE078A 		vfma.f32	s16, s0, s14
 1628              	.LVL82:
  39:chorus.cpp    **** }
 1629              		.loc 12 39 5 is_stmt 1 discriminator 6 view .LVU403
  39:chorus.cpp    **** }
 1630              		.loc 12 39 18 is_stmt 0 discriminator 6 view .LVU404
 1631 00b6 28EE270A 		vmul.f32	s0, s16, s15
  40:chorus.cpp    **** 
 1632              		.loc 12 40 1 discriminator 6 view .LVU405
 1633 00ba BDEC028B 		vldm	sp!, {d8}
 1634              		.cfi_remember_state
 1635              		.cfi_restore 80
 1636              		.cfi_restore 81
 1637              		.cfi_def_cfa_offset 8
 1638              	.LVL83:
  40:chorus.cpp    **** 
 1639              		.loc 12 40 1 discriminator 6 view .LVU406
 1640 00be 10BD     		pop	{r4, pc}
 1641              	.L48:
 1642              		.cfi_restore_state
  35:chorus.cpp    ****     sig += (kick.Process(t && pos & (k_patt)) * 12.4f);
 1643              		.loc 12 35 56 view .LVU407
 1644 00c0 B6EE008A 		vmov.f32	s16, #5.0e-1
  35:chorus.cpp    ****     sig += (kick.Process(t && pos & (k_patt)) * 12.4f);
 1645              		.loc 12 35 29 view .LVU408
 1646 00c4 0948     		ldr	r0, .L49+28
 1647 00c6 FFF7FEFF 		bl	_ZN7daisysp5HiHatINS_11SquareNoiseENS_9LinearVCAELb1EE7ProcessEb
 1648              	.LVL84:
  35:chorus.cpp    ****     sig += (kick.Process(t && pos & (k_patt)) * 12.4f);
 1649              		.loc 12 35 56 view .LVU409
 1650 00ca 20EE088A 		vmul.f32	s16, s0, s16
 1651              	.LVL85:
  36:chorus.cpp    ****     sig += (osc.Process() * 0.05f);
 1652              		.loc 12 36 5 is_stmt 1 view .LVU410
 1653 00ce CFE7     		b	.L37
 1654              	.L50:
 1655              		.align	2
 1656              	.L49:
 1657 00d0 00000000 		.word	.LANCHOR1
 1658 00d4 00000000 		.word	.LANCHOR6
 1659 00d8 00000000 		.word	.LANCHOR4
 1660 00dc ABAA4AC0 		.word	-1068848469
 1661 00e0 0000DC43 		.word	1138491392
 1662 00e4 00000000 		.word	.LANCHOR5
 1663 00e8 00000000 		.word	.LANCHOR8
 1664 00ec 00000000 		.word	.LANCHOR2
 1665 00f0 00000000 		.word	.LANCHOR7
 1666 00f4 00000000 		.word	.LANCHOR3
 1667 00f8 66664641 		.word	1095132774
 1668 00fc CDCC4C3D 		.word	1028443341
 1669              		.cfi_endproc
 1670              	.LFE4681:
 1672              		.section	.text._Z13AudioCallbackPKPKfPPfj,"ax",%progbits
 1673              		.align	1
 1674              		.p2align 2,,3
ARM GAS  C:\Users\jaude\AppData\Local\Temp\ccMKA3wm.s 			page 55


 1675              		.global	_Z13AudioCallbackPKPKfPPfj
 1676              		.syntax unified
 1677              		.thumb
 1678              		.thumb_func
 1679              		.fpu fpv5-d16
 1681              	_Z13AudioCallbackPKPKfPPfj:
 1682              	.LVL86:
 1683              	.LFB4682:
  45:chorus.cpp    ****     for(size_t i = 0; i < size; i++)
 1684              		.loc 12 45 1 view -0
 1685              		.cfi_startproc
 1686              		@ args = 0, pretend = 0, frame = 0
 1687              		@ frame_needed = 0, uses_anonymous_args = 0
  46:chorus.cpp    ****     {
 1688              		.loc 12 46 5 view .LVU412
 1689              	.LBB494:
  46:chorus.cpp    ****     {
 1690              		.loc 12 46 25 view .LVU413
 1691 0000 FAB1     		cbz	r2, .L59
 1692              	.LBE494:
  45:chorus.cpp    ****     for(size_t i = 0; i < size; i++)
 1693              		.loc 12 45 1 is_stmt 0 view .LVU414
 1694 0002 2DE9F843 		push	{r3, r4, r5, r6, r7, r8, r9, lr}
 1695              		.cfi_def_cfa_offset 32
 1696              		.cfi_offset 3, -32
 1697              		.cfi_offset 4, -28
 1698              		.cfi_offset 5, -24
 1699              		.cfi_offset 6, -20
 1700              		.cfi_offset 7, -16
 1701              		.cfi_offset 8, -12
 1702              		.cfi_offset 9, -8
 1703              		.cfi_offset 14, -4
 1704 0006 0F46     		mov	r7, r1
 1705 0008 9146     		mov	r9, r2
 1706              	.LBB495:
  46:chorus.cpp    ****     {
 1707              		.loc 12 46 16 view .LVU415
 1708 000a 0024     		movs	r4, #0
 1709              	.LVL87:
 1710              	.L53:
  48:chorus.cpp    ****         out[0][i] = chorus.GetLeft();
 1711              		.loc 12 48 9 is_stmt 1 discriminator 2 view .LVU416
  48:chorus.cpp    ****         out[0][i] = chorus.GetLeft();
 1712              		.loc 12 48 23 is_stmt 0 discriminator 2 view .LVU417
 1713 000c FFF7FEFF 		bl	_Z12ProcessDrumsv
 1714              	.LVL88:
 1715 0010 0C48     		ldr	r0, .L62
 1716 0012 FFF7FEFF 		bl	_ZN7daisysp6Chorus7ProcessEf
 1717              	.LVL89:
  49:chorus.cpp    ****         out[1][i] = chorus.GetRight();
 1718              		.loc 12 49 9 is_stmt 1 discriminator 2 view .LVU418
  49:chorus.cpp    ****         out[1][i] = chorus.GetRight();
 1719              		.loc 12 49 17 is_stmt 0 discriminator 2 view .LVU419
 1720 0016 3B68     		ldr	r3, [r7]
  49:chorus.cpp    ****         out[1][i] = chorus.GetRight();
 1721              		.loc 12 49 35 discriminator 2 view .LVU420
 1722 0018 0A48     		ldr	r0, .L62
ARM GAS  C:\Users\jaude\AppData\Local\Temp\ccMKA3wm.s 			page 56


 1723 001a 4FEA8408 		lsl	r8, r4, #2
  49:chorus.cpp    ****         out[1][i] = chorus.GetRight();
 1724              		.loc 12 49 17 discriminator 2 view .LVU421
 1725 001e 03EB8406 		add	r6, r3, r4, lsl #2
  46:chorus.cpp    ****     {
 1726              		.loc 12 46 5 discriminator 2 view .LVU422
 1727 0022 0134     		adds	r4, r4, #1
 1728              	.LVL90:
  49:chorus.cpp    ****         out[1][i] = chorus.GetRight();
 1729              		.loc 12 49 35 discriminator 2 view .LVU423
 1730 0024 FFF7FEFF 		bl	_ZN7daisysp6Chorus7GetLeftEv
 1731              	.LVL91:
  50:chorus.cpp    ****     }
 1732              		.loc 12 50 17 discriminator 2 view .LVU424
 1733 0028 7D68     		ldr	r5, [r7, #4]
  50:chorus.cpp    ****     }
 1734              		.loc 12 50 36 discriminator 2 view .LVU425
 1735 002a 0648     		ldr	r0, .L62
  49:chorus.cpp    ****         out[1][i] = chorus.GetRight();
 1736              		.loc 12 49 19 discriminator 2 view .LVU426
 1737 002c 86ED000A 		vstr.32	s0, [r6]
  50:chorus.cpp    ****     }
 1738              		.loc 12 50 9 is_stmt 1 discriminator 2 view .LVU427
  50:chorus.cpp    ****     }
 1739              		.loc 12 50 17 is_stmt 0 discriminator 2 view .LVU428
 1740 0030 4544     		add	r5, r5, r8
  50:chorus.cpp    ****     }
 1741              		.loc 12 50 36 discriminator 2 view .LVU429
 1742 0032 FFF7FEFF 		bl	_ZN7daisysp6Chorus8GetRightEv
 1743              	.LVL92:
  46:chorus.cpp    ****     {
 1744              		.loc 12 46 25 discriminator 2 view .LVU430
 1745 0036 A145     		cmp	r9, r4
  50:chorus.cpp    ****     }
 1746              		.loc 12 50 19 discriminator 2 view .LVU431
 1747 0038 85ED000A 		vstr.32	s0, [r5]
  46:chorus.cpp    ****     {
 1748              		.loc 12 46 5 is_stmt 1 discriminator 2 view .LVU432
 1749              	.LVL93:
  46:chorus.cpp    ****     {
 1750              		.loc 12 46 25 discriminator 2 view .LVU433
 1751 003c E6D1     		bne	.L53
 1752              	.LBE495:
  52:chorus.cpp    **** 
 1753              		.loc 12 52 1 is_stmt 0 view .LVU434
 1754 003e BDE8F883 		pop	{r3, r4, r5, r6, r7, r8, r9, pc}
 1755              	.LVL94:
 1756              	.L59:
 1757              		.cfi_def_cfa_offset 0
 1758              		.cfi_restore 3
 1759              		.cfi_restore 4
 1760              		.cfi_restore 5
 1761              		.cfi_restore 6
 1762              		.cfi_restore 7
 1763              		.cfi_restore 8
 1764              		.cfi_restore 9
 1765              		.cfi_restore 14
ARM GAS  C:\Users\jaude\AppData\Local\Temp\ccMKA3wm.s 			page 57


  52:chorus.cpp    **** 
 1766              		.loc 12 52 1 view .LVU435
 1767 0042 7047     		bx	lr
 1768              	.L63:
 1769              		.align	2
 1770              	.L62:
 1771 0044 00000000 		.word	chorus
 1772              		.cfi_endproc
 1773              	.LFE4682:
 1775              		.section	.text.startup._GLOBAL__sub_I_hw,"ax",%progbits
 1776              		.align	1
 1777              		.p2align 2,,3
 1778              		.syntax unified
 1779              		.thumb
 1780              		.thumb_func
 1781              		.fpu fpv5-d16
 1783              	_GLOBAL__sub_I_hw:
 1784              	.LFB5261:
  81:chorus.cpp    **** }
 1785              		.loc 12 81 1 is_stmt 1 view -0
 1786              		.cfi_startproc
 1787              		@ args = 0, pretend = 0, frame = 0
 1788              		@ frame_needed = 0, uses_anonymous_args = 0
 1789              	.LBB538:
 1790              	.LBI538:
 1791              		.loc 12 81 1 view .LVU437
 1792              	.LVL95:
 1793              	.LBB539:
 1794              	.LBB540:
 1795              	.LBI540:
  21:../../../libDaisy/src/daisy_seed.h ****     ~DaisySeed() {}
 1796              		.loc 1 21 5 view .LVU438
 1797              	.LBB541:
 1798              	.LBB542:
 1799              	.LBI542:
 1800              		.file 14 "../../../libDaisy/src/per/qspi.h"
   1:../../../libDaisy/src/per/qspi.h **** #ifndef DSY_QSPI
   2:../../../libDaisy/src/per/qspi.h **** #define DSY_QSPI /**< Macro */
   3:../../../libDaisy/src/per/qspi.h **** 
   4:../../../libDaisy/src/per/qspi.h **** #ifndef UNIT_TEST // for unit tests, a dummy implementation
   5:../../../libDaisy/src/per/qspi.h **** 
   6:../../../libDaisy/src/per/qspi.h **** #include <cstdint>
   7:../../../libDaisy/src/per/qspi.h **** #include "daisy_core.h" // Added for dsy_gpio_pin typedef
   8:../../../libDaisy/src/per/qspi.h **** 
   9:../../../libDaisy/src/per/qspi.h **** #define DSY_QSPI_TEXT       \
  10:../../../libDaisy/src/per/qspi.h ****     __attribute__((section( \
  11:../../../libDaisy/src/per/qspi.h ****         ".qspiflash_text"))) /**< used for reading memory in memory_mapped mode. */
  12:../../../libDaisy/src/per/qspi.h **** #define DSY_QSPI_DATA       \
  13:../../../libDaisy/src/per/qspi.h ****     __attribute__((section( \
  14:../../../libDaisy/src/per/qspi.h ****         ".qspiflash_data"))) /**< used for reading memory in memory_mapped mode. */
  15:../../../libDaisy/src/per/qspi.h **** #define DSY_QSPI_BSS        \
  16:../../../libDaisy/src/per/qspi.h ****     __attribute__((section( \
  17:../../../libDaisy/src/per/qspi.h ****         ".qspiflash_bss"))) /**< used for reading memory in memory_mapped mode. */
  18:../../../libDaisy/src/per/qspi.h **** 
  19:../../../libDaisy/src/per/qspi.h **** namespace daisy
  20:../../../libDaisy/src/per/qspi.h **** {
  21:../../../libDaisy/src/per/qspi.h **** /** @addtogroup serial
ARM GAS  C:\Users\jaude\AppData\Local\Temp\ccMKA3wm.s 			page 58


  22:../../../libDaisy/src/per/qspi.h **** @{
  23:../../../libDaisy/src/per/qspi.h **** */
  24:../../../libDaisy/src/per/qspi.h **** 
  25:../../../libDaisy/src/per/qspi.h **** /** 
  26:../../../libDaisy/src/per/qspi.h ****  Driver for QSPI peripheral to interface with external flash memory. \n 
  27:../../../libDaisy/src/per/qspi.h ****     Currently supported QSPI Devices: \n 
  28:../../../libDaisy/src/per/qspi.h ****     * IS25LP080D
  29:../../../libDaisy/src/per/qspi.h **** */
  30:../../../libDaisy/src/per/qspi.h **** class QSPIHandle
  31:../../../libDaisy/src/per/qspi.h **** {
  32:../../../libDaisy/src/per/qspi.h ****   public:
  33:../../../libDaisy/src/per/qspi.h ****     enum Result
  34:../../../libDaisy/src/per/qspi.h ****     {
  35:../../../libDaisy/src/per/qspi.h ****         OK = 0,
  36:../../../libDaisy/src/per/qspi.h ****         ERR
  37:../../../libDaisy/src/per/qspi.h ****     };
  38:../../../libDaisy/src/per/qspi.h **** 
  39:../../../libDaisy/src/per/qspi.h ****     /** Indicates the current status of the module. 
  40:../../../libDaisy/src/per/qspi.h ****          *  Warnings are indicated by a leading W.
  41:../../../libDaisy/src/per/qspi.h ****          *  Errors are indicated by a leading E and cause an immediate exit.
  42:../../../libDaisy/src/per/qspi.h ****          * 
  43:../../../libDaisy/src/per/qspi.h ****          *  \param GOOD - No errors have been reported.
  44:../../../libDaisy/src/per/qspi.h ****          *  \param E_HAL_ERROR - HAL code did not return HAL_OK.
  45:../../../libDaisy/src/per/qspi.h ****          *  \param E_SWITCHING_MODES - An error was encountered while switching QSPI peripheral mod
  46:../../../libDaisy/src/per/qspi.h ****          *  \param E_INVALID_MODE - QSPI should not be written to while the program is executing fr
  47:../../../libDaisy/src/per/qspi.h ****          */
  48:../../../libDaisy/src/per/qspi.h ****     enum Status
  49:../../../libDaisy/src/per/qspi.h ****     {
  50:../../../libDaisy/src/per/qspi.h ****         GOOD = 0,
  51:../../../libDaisy/src/per/qspi.h ****         E_HAL_ERROR,
  52:../../../libDaisy/src/per/qspi.h ****         E_SWITCHING_MODES,
  53:../../../libDaisy/src/per/qspi.h ****         E_INVALID_MODE,
  54:../../../libDaisy/src/per/qspi.h ****     };
  55:../../../libDaisy/src/per/qspi.h **** 
  56:../../../libDaisy/src/per/qspi.h ****     /** Configuration structure for interfacing with QSPI Driver */
  57:../../../libDaisy/src/per/qspi.h ****     struct Config
  58:../../../libDaisy/src/per/qspi.h ****     {
  59:../../../libDaisy/src/per/qspi.h ****         /** Flash Devices supported. (Both of these are more-or-less the same, just different sizes
  60:../../../libDaisy/src/per/qspi.h ****         enum Device
  61:../../../libDaisy/src/per/qspi.h ****         {
  62:../../../libDaisy/src/per/qspi.h ****             IS25LP080D,  /**< & */
  63:../../../libDaisy/src/per/qspi.h ****             IS25LP064A,  /**< & */
  64:../../../libDaisy/src/per/qspi.h ****             DEVICE_LAST, /**< & */
  65:../../../libDaisy/src/per/qspi.h ****         };
  66:../../../libDaisy/src/per/qspi.h **** 
  67:../../../libDaisy/src/per/qspi.h ****         /** 
  68:../../../libDaisy/src/per/qspi.h ****         Modes of operation.
  69:../../../libDaisy/src/per/qspi.h ****         Memory Mapped mode: QSPI configured so that the QSPI can be
  70:../../../libDaisy/src/per/qspi.h ****         read from starting address 0x90000000. Writing is not
  71:../../../libDaisy/src/per/qspi.h ****         possible in this mode. \n 
  72:../../../libDaisy/src/per/qspi.h ****         Indirect Polling mode: Device driver enabled. 
  73:../../../libDaisy/src/per/qspi.h ****         */
  74:../../../libDaisy/src/per/qspi.h ****         enum Mode
  75:../../../libDaisy/src/per/qspi.h ****         {
  76:../../../libDaisy/src/per/qspi.h ****             MEMORY_MAPPED,    /**< & */
  77:../../../libDaisy/src/per/qspi.h ****             INDIRECT_POLLING, /**< & */
  78:../../../libDaisy/src/per/qspi.h ****             MODE_LAST,
ARM GAS  C:\Users\jaude\AppData\Local\Temp\ccMKA3wm.s 			page 59


  79:../../../libDaisy/src/per/qspi.h ****         };
  80:../../../libDaisy/src/per/qspi.h **** 
  81:../../../libDaisy/src/per/qspi.h ****         //SCK,  CE# (active low)
  82:../../../libDaisy/src/per/qspi.h ****         struct
  83:../../../libDaisy/src/per/qspi.h ****         {
  84:../../../libDaisy/src/per/qspi.h ****             dsy_gpio_pin io0; /**< & */
  85:../../../libDaisy/src/per/qspi.h ****             dsy_gpio_pin io1; /**< & */
  86:../../../libDaisy/src/per/qspi.h ****             dsy_gpio_pin io2; /**< & */
  87:../../../libDaisy/src/per/qspi.h ****             dsy_gpio_pin io3; /**< & */
  88:../../../libDaisy/src/per/qspi.h ****             dsy_gpio_pin clk; /**< & */
  89:../../../libDaisy/src/per/qspi.h ****             dsy_gpio_pin ncs; /**< & */
  90:../../../libDaisy/src/per/qspi.h ****         } pin_config;
  91:../../../libDaisy/src/per/qspi.h **** 
  92:../../../libDaisy/src/per/qspi.h ****         Device device;
  93:../../../libDaisy/src/per/qspi.h ****         Mode   mode;
  94:../../../libDaisy/src/per/qspi.h ****     };
  95:../../../libDaisy/src/per/qspi.h **** 
  96:../../../libDaisy/src/per/qspi.h ****     /** 
  97:../../../libDaisy/src/per/qspi.h ****         Initializes QSPI peripheral, and Resets, and prepares memory for access.
  98:../../../libDaisy/src/per/qspi.h ****         \param config should be populated with the mode, device and pin_config before calling this 
  99:../../../libDaisy/src/per/qspi.h ****         \return Result::OK or Result::ERR
 100:../../../libDaisy/src/per/qspi.h ****         */
 101:../../../libDaisy/src/per/qspi.h ****     Result Init(const Config& config);
 102:../../../libDaisy/src/per/qspi.h **** 
 103:../../../libDaisy/src/per/qspi.h ****     /** Returns the current config. */
 104:../../../libDaisy/src/per/qspi.h ****     const Config& GetConfig() const;
 105:../../../libDaisy/src/per/qspi.h **** 
 106:../../../libDaisy/src/per/qspi.h ****     // Couldn't this just be called before anything else in init? That
 107:../../../libDaisy/src/per/qspi.h ****     // would make manually calling it unnecessary.
 108:../../../libDaisy/src/per/qspi.h ****     /** 
 109:../../../libDaisy/src/per/qspi.h ****         Deinitializes the peripheral
 110:../../../libDaisy/src/per/qspi.h ****         This should be called before reinitializing QSPI in a different mode.
 111:../../../libDaisy/src/per/qspi.h ****         \return Result::OK or Result::ERR
 112:../../../libDaisy/src/per/qspi.h ****         */
 113:../../../libDaisy/src/per/qspi.h ****     Result DeInit();
 114:../../../libDaisy/src/per/qspi.h **** 
 115:../../../libDaisy/src/per/qspi.h ****     /** 
 116:../../../libDaisy/src/per/qspi.h ****         Writes a single page to to the specified address on the QSPI chip.
 117:../../../libDaisy/src/per/qspi.h ****         For IS25LP*, page size is 256 bytes.
 118:../../../libDaisy/src/per/qspi.h ****         \param address Address to write to
 119:../../../libDaisy/src/per/qspi.h ****         \param size Buffer size
 120:../../../libDaisy/src/per/qspi.h ****         \param buffer Buffer to write
 121:../../../libDaisy/src/per/qspi.h ****         \return Result::OK or Result::ERR
 122:../../../libDaisy/src/per/qspi.h ****         */
 123:../../../libDaisy/src/per/qspi.h ****     Result WritePage(uint32_t address, uint32_t size, uint8_t* buffer);
 124:../../../libDaisy/src/per/qspi.h **** 
 125:../../../libDaisy/src/per/qspi.h ****     /** 
 126:../../../libDaisy/src/per/qspi.h ****         Writes data in buffer to to the QSPI. Starting at address to address+size 
 127:../../../libDaisy/src/per/qspi.h ****         \param address Address to write to
 128:../../../libDaisy/src/per/qspi.h ****         \param size Buffer size
 129:../../../libDaisy/src/per/qspi.h ****         \param buffer Buffer to write
 130:../../../libDaisy/src/per/qspi.h ****         \return Result::OK or Result::ERR
 131:../../../libDaisy/src/per/qspi.h ****         */
 132:../../../libDaisy/src/per/qspi.h ****     Result Write(uint32_t address, uint32_t size, uint8_t* buffer);
 133:../../../libDaisy/src/per/qspi.h **** 
 134:../../../libDaisy/src/per/qspi.h ****     /** 
 135:../../../libDaisy/src/per/qspi.h ****         Erases the area specified on the chip.
ARM GAS  C:\Users\jaude\AppData\Local\Temp\ccMKA3wm.s 			page 60


 136:../../../libDaisy/src/per/qspi.h ****         Erasures will happen by 4K, 32K or 64K increments.
 137:../../../libDaisy/src/per/qspi.h ****         Smallest erase possible is 4kB at a time. (on IS25LP*)
 138:../../../libDaisy/src/per/qspi.h ****         \param start_addr Address to begin erasing from
 139:../../../libDaisy/src/per/qspi.h ****         \param end_addr  Address to stop erasing at
 140:../../../libDaisy/src/per/qspi.h ****         \return Result::OK or Result::ERR
 141:../../../libDaisy/src/per/qspi.h ****         */
 142:../../../libDaisy/src/per/qspi.h ****     Result Erase(uint32_t start_addr, uint32_t end_addr);
 143:../../../libDaisy/src/per/qspi.h **** 
 144:../../../libDaisy/src/per/qspi.h ****     /**  
 145:../../../libDaisy/src/per/qspi.h ****          Erases a single sector of the chip.  
 146:../../../libDaisy/src/per/qspi.h ****         TODO: Document the size of this function. 
 147:../../../libDaisy/src/per/qspi.h ****         \param address Address of sector to erase
 148:../../../libDaisy/src/per/qspi.h ****         \return Result::OK or Result::ERR
 149:../../../libDaisy/src/per/qspi.h ****         */
 150:../../../libDaisy/src/per/qspi.h ****     Result EraseSector(uint32_t address);
 151:../../../libDaisy/src/per/qspi.h **** 
 152:../../../libDaisy/src/per/qspi.h ****     /** Returns the current class status. Useful for debugging.
 153:../../../libDaisy/src/per/qspi.h ****      *  \returns Status
 154:../../../libDaisy/src/per/qspi.h ****      */
 155:../../../libDaisy/src/per/qspi.h ****     Status GetStatus();
 156:../../../libDaisy/src/per/qspi.h **** 
 157:../../../libDaisy/src/per/qspi.h ****     /** Returns a pointer to the actual memory used 
 158:../../../libDaisy/src/per/qspi.h ****      *  The memory at this address is read-only
 159:../../../libDaisy/src/per/qspi.h ****      *  to write to it use the Write function.
 160:../../../libDaisy/src/per/qspi.h ****      * 
 161:../../../libDaisy/src/per/qspi.h ****      *  \param offset returns the pointer starting this 
 162:../../../libDaisy/src/per/qspi.h ****      *                many bytes into the memory
 163:../../../libDaisy/src/per/qspi.h ****     */
 164:../../../libDaisy/src/per/qspi.h ****     void* GetData(uint32_t offset = 0);
 165:../../../libDaisy/src/per/qspi.h **** 
 166:../../../libDaisy/src/per/qspi.h ****     QSPIHandle() : pimpl_(nullptr) {}
 1801              		.loc 14 166 5 view .LVU439
 1802              	.LBE542:
 1803              	.LBE541:
 1804              	.LBE540:
 1805              	.LBE539:
 1806              	.LBE538:
 1807              		.loc 12 81 1 is_stmt 0 view .LVU440
 1808 0000 08B5     		push	{r3, lr}
 1809              		.cfi_def_cfa_offset 8
 1810              		.cfi_offset 3, -8
 1811              		.cfi_offset 14, -4
 1812              	.LBB584:
 1813              	.LBB581:
 1814              	.LBB563:
 1815              	.LBB561:
 1816              	.LBB547:
 1817              	.LBB543:
 1818              	.LBB544:
 1819              		.loc 14 166 34 view .LVU441
 1820 0002 1348     		ldr	r0, .L66
 1821 0004 0023     		movs	r3, #0
 1822              	.LBE544:
 1823              	.LBE543:
 1824              	.LBE547:
 1825              	.LBE561:
 1826              	.LBE563:
ARM GAS  C:\Users\jaude\AppData\Local\Temp\ccMKA3wm.s 			page 61


   7:chorus.cpp    **** 
 1827              		.loc 12 7 11 view .LVU442
 1828 0006 134A     		ldr	r2, .L66+4
 1829              	.LBB564:
 1830              	.LBB562:
 1831              	.LBB548:
 1832              	.LBB546:
 1833              	.LBB545:
 1834              		.loc 14 166 34 view .LVU443
 1835 0008 0360     		str	r3, [r0]
 1836              	.LVL96:
 1837              		.loc 14 166 34 view .LVU444
 1838              	.LBE545:
 1839              	.LBE546:
 1840              	.LBE548:
 1841              	.LBB549:
 1842              	.LBI549:
  95:../../../libDaisy/src/hid/audio.h ****     ~AudioHandle() {}
 1843              		.loc 5 95 5 is_stmt 1 view .LVU445
 1844              	.LBB550:
 1845              	.LBB551:
  95:../../../libDaisy/src/hid/audio.h ****     ~AudioHandle() {}
 1846              		.loc 5 95 35 is_stmt 0 view .LVU446
 1847 000a 4361     		str	r3, [r0, #20]
 1848              	.LVL97:
  95:../../../libDaisy/src/hid/audio.h ****     ~AudioHandle() {}
 1849              		.loc 5 95 35 view .LVU447
 1850              	.LBE551:
 1851              	.LBE550:
 1852              	.LBE549:
 1853              	.LBB552:
 1854              	.LBI552:
 109:../../../libDaisy/src/per/adc.h ****     ~AdcHandle() {}
 1855              		.loc 4 109 5 is_stmt 1 view .LVU448
 109:../../../libDaisy/src/per/adc.h ****     ~AdcHandle() {}
 1856              		.loc 4 109 5 is_stmt 0 view .LVU449
 1857              	.LBE552:
 1858              	.LBB553:
 1859              	.LBI553:
 1860              		.file 15 "../../../libDaisy/src/per/dac.h"
   1:../../../libDaisy/src/per/dac.h **** #pragma once
   2:../../../libDaisy/src/per/dac.h **** #ifndef DSY_DAC_H
   3:../../../libDaisy/src/per/dac.h **** #define DSY_DAC_H
   4:../../../libDaisy/src/per/dac.h **** 
   5:../../../libDaisy/src/per/dac.h **** #include "daisy_core.h"
   6:../../../libDaisy/src/per/dac.h **** 
   7:../../../libDaisy/src/per/dac.h **** namespace daisy
   8:../../../libDaisy/src/per/dac.h **** {
   9:../../../libDaisy/src/per/dac.h **** /** @brief DAC handle for Built-in DAC Peripheral 
  10:../../../libDaisy/src/per/dac.h ****  *  @ingroup per_analog
  11:../../../libDaisy/src/per/dac.h ****  ** 
  12:../../../libDaisy/src/per/dac.h ****  ** For now only Normal Mode is supported,
  13:../../../libDaisy/src/per/dac.h ****  ** Sample and hold mode provides reduced power consumption, but requires a bit more setup.
  14:../../../libDaisy/src/per/dac.h ****  **
  15:../../../libDaisy/src/per/dac.h ****  ** For now connecting the DAC through other internal peripherals is also not supported.
  16:../../../libDaisy/src/per/dac.h ****  **
  17:../../../libDaisy/src/per/dac.h ****  ** Since the DAC channels have dedicated pins we don't need to pass in a pin config like with
ARM GAS  C:\Users\jaude\AppData\Local\Temp\ccMKA3wm.s 			page 62


  18:../../../libDaisy/src/per/dac.h ****  ** other modules. However, it is still important to not try to use the DAC pins for anything else.
  19:../../../libDaisy/src/per/dac.h ****  ** DAC Channel 1 is on PA4, and DAC Channel 2 is on PA5
  20:../../../libDaisy/src/per/dac.h ****  ***/
  21:../../../libDaisy/src/per/dac.h **** class DacHandle
  22:../../../libDaisy/src/per/dac.h **** {
  23:../../../libDaisy/src/per/dac.h ****   public:
  24:../../../libDaisy/src/per/dac.h ****     /** Return Values for the DacHandle class */
  25:../../../libDaisy/src/per/dac.h ****     enum class Result
  26:../../../libDaisy/src/per/dac.h ****     {
  27:../../../libDaisy/src/per/dac.h ****         OK,
  28:../../../libDaisy/src/per/dac.h ****         ERR,
  29:../../../libDaisy/src/per/dac.h ****     };
  30:../../../libDaisy/src/per/dac.h **** 
  31:../../../libDaisy/src/per/dac.h ****     /** Selects which channel(s) will be configured for use. */
  32:../../../libDaisy/src/per/dac.h ****     enum class Channel
  33:../../../libDaisy/src/per/dac.h ****     {
  34:../../../libDaisy/src/per/dac.h ****         ONE,
  35:../../../libDaisy/src/per/dac.h ****         TWO,
  36:../../../libDaisy/src/per/dac.h ****         BOTH,
  37:../../../libDaisy/src/per/dac.h ****     };
  38:../../../libDaisy/src/per/dac.h **** 
  39:../../../libDaisy/src/per/dac.h ****     /** Sets the Mode for the DAC channels.
  40:../../../libDaisy/src/per/dac.h ****      **
  41:../../../libDaisy/src/per/dac.h ****      ** Polling mode uses the blocking mode to transmit a single value at a time.
  42:../../../libDaisy/src/per/dac.h ****      **
  43:../../../libDaisy/src/per/dac.h ****      ** DMA mode uses a buffer, and periodically transmits it triggering a 
  44:../../../libDaisy/src/per/dac.h ****      ** callback to fill the buffer when it is ready for more samples.
  45:../../../libDaisy/src/per/dac.h ****      ***/
  46:../../../libDaisy/src/per/dac.h ****     enum class Mode
  47:../../../libDaisy/src/per/dac.h ****     {
  48:../../../libDaisy/src/per/dac.h ****         POLLING,
  49:../../../libDaisy/src/per/dac.h ****         DMA,
  50:../../../libDaisy/src/per/dac.h ****     };
  51:../../../libDaisy/src/per/dac.h **** 
  52:../../../libDaisy/src/per/dac.h ****     /** Sets the number of bits per sample transmitted out of the DAC.
  53:../../../libDaisy/src/per/dac.h ****      ** The output range will be: 0V - VDDA
  54:../../../libDaisy/src/per/dac.h ****      ** The resolution will be roughly: bitdepth / (VDDA - 0V) 
  55:../../../libDaisy/src/per/dac.h ****      ***/
  56:../../../libDaisy/src/per/dac.h ****     enum class BitDepth
  57:../../../libDaisy/src/per/dac.h ****     {
  58:../../../libDaisy/src/per/dac.h ****         BITS_8,
  59:../../../libDaisy/src/per/dac.h ****         BITS_12
  60:../../../libDaisy/src/per/dac.h ****     };
  61:../../../libDaisy/src/per/dac.h **** 
  62:../../../libDaisy/src/per/dac.h ****     /** Sets whether the DAC output is buffered for higher drive ability. */
  63:../../../libDaisy/src/per/dac.h ****     enum class BufferState
  64:../../../libDaisy/src/per/dac.h ****     {
  65:../../../libDaisy/src/per/dac.h ****         ENABLED,
  66:../../../libDaisy/src/per/dac.h ****         DISABLED,
  67:../../../libDaisy/src/per/dac.h ****     };
  68:../../../libDaisy/src/per/dac.h **** 
  69:../../../libDaisy/src/per/dac.h ****     /** Configuration structure for initializing the DAC structure. */
  70:../../../libDaisy/src/per/dac.h ****     struct Config
  71:../../../libDaisy/src/per/dac.h ****     {
  72:../../../libDaisy/src/per/dac.h ****         /** Target Samplerate in Hz used to configure the internal 
  73:../../../libDaisy/src/per/dac.h ****          ** timebase for DMA mode. Does nothing in POLLING mode.
  74:../../../libDaisy/src/per/dac.h ****          ** If the value is 0 at Init time this will default to 48000Hz 
ARM GAS  C:\Users\jaude\AppData\Local\Temp\ccMKA3wm.s 			page 63


  75:../../../libDaisy/src/per/dac.h ****          ** otherwise the driver will attempt meet the target.*/
  76:../../../libDaisy/src/per/dac.h ****         uint32_t target_samplerate;
  77:../../../libDaisy/src/per/dac.h **** 
  78:../../../libDaisy/src/per/dac.h ****         Channel     chn;
  79:../../../libDaisy/src/per/dac.h ****         Mode        mode;
  80:../../../libDaisy/src/per/dac.h ****         BitDepth    bitdepth;
  81:../../../libDaisy/src/per/dac.h ****         BufferState buff_state;
  82:../../../libDaisy/src/per/dac.h ****     };
  83:../../../libDaisy/src/per/dac.h **** 
  84:../../../libDaisy/src/per/dac.h ****     DacHandle() : pimpl_(nullptr) {}
 1861              		.loc 15 84 5 is_stmt 1 view .LVU450
 1862              	.LBB554:
 1863              	.LBB555:
 1864              		.loc 15 84 33 is_stmt 0 view .LVU451
 1865 000c 0362     		str	r3, [r0, #32]
 1866              	.LVL98:
 1867              		.loc 15 84 33 view .LVU452
 1868              	.LBE555:
 1869              	.LBE554:
 1870              	.LBE553:
 1871              	.LBB556:
 1872              	.LBI556:
  40:../../../libDaisy/src/hid/usb.h **** 
 1873              		.loc 3 40 5 is_stmt 1 view .LVU453
  40:../../../libDaisy/src/hid/usb.h **** 
 1874              		.loc 3 40 5 is_stmt 0 view .LVU454
 1875              	.LBE556:
 1876              	.LBB557:
 1877              	.LBI557:
  96:../../../libDaisy/src/sys/system.h ****     ~System() {}
 1878              		.loc 2 96 5 is_stmt 1 view .LVU455
  96:../../../libDaisy/src/sys/system.h ****     ~System() {}
 1879              		.loc 2 96 5 is_stmt 0 view .LVU456
 1880              	.LBE557:
 1881              	.LBB558:
 1882              	.LBI558:
 1883              		.file 16 "../../../libDaisy/src/per/sai.h"
   1:../../../libDaisy/src/per/sai.h **** #pragma once
   2:../../../libDaisy/src/per/sai.h **** #ifndef DSY_SAI_H
   3:../../../libDaisy/src/per/sai.h **** #define DSY_SAI_H
   4:../../../libDaisy/src/per/sai.h **** 
   5:../../../libDaisy/src/per/sai.h **** #include "daisy_core.h"
   6:../../../libDaisy/src/per/sai.h **** 
   7:../../../libDaisy/src/per/sai.h **** namespace daisy
   8:../../../libDaisy/src/per/sai.h **** {
   9:../../../libDaisy/src/per/sai.h **** /** 
  10:../../../libDaisy/src/per/sai.h ****  * Support for I2S Audio Protocol with different bit-depth, samplerate options
  11:../../../libDaisy/src/per/sai.h ****  * Allows for master or slave, as well as freedom of selecting direction, 
  12:../../../libDaisy/src/per/sai.h ****  * and other behavior for each peripheral, and block.
  13:../../../libDaisy/src/per/sai.h ****  * 
  14:../../../libDaisy/src/per/sai.h ****  * DMA Transfer commands must use buffers located within non-cached memory or use cache maintenance
  15:../../../libDaisy/src/per/sai.h ****  * To declare an unitialized global element in the DMA memory section:
  16:../../../libDaisy/src/per/sai.h ****  *    int32_t DSY_DMA_BUFFER_SECTOR my_buffer[96];
  17:../../../libDaisy/src/per/sai.h ****  *
  18:../../../libDaisy/src/per/sai.h ****  * Callback functions will be called once per half of the buffer. In the above example, 
  19:../../../libDaisy/src/per/sai.h ****  * the callback function would be called once for every 48 samples.
  20:../../../libDaisy/src/per/sai.h ****  * 
ARM GAS  C:\Users\jaude\AppData\Local\Temp\ccMKA3wm.s 			page 64


  21:../../../libDaisy/src/per/sai.h ****  * Use SAI Handle like this:
  22:../../../libDaisy/src/per/sai.h ****  * 
  23:../../../libDaisy/src/per/sai.h ****  *  SaiHandle::Config sai_config;
  24:../../../libDaisy/src/per/sai.h ****  *  sai_config.periph          = SaiHandle::Config::Peripheral::SAI_1;
  25:../../../libDaisy/src/per/sai.h ****  *  sai_config.sr              = SaiHandle::Config::SampleRate::SAI_48KHZ;
  26:../../../libDaisy/src/per/sai.h ****  *  sai_config.bit_depth       = SaiHandle::Config::BitDepth::SAI_24BIT;
  27:../../../libDaisy/src/per/sai.h ****  *  sai_config.a_sync          = SaiHandle::Config::Sync::MASTER;
  28:../../../libDaisy/src/per/sai.h ****  *  sai_config.b_sync          = SaiHandle::Config::Sync::SLAVE;
  29:../../../libDaisy/src/per/sai.h ****  *  sai_config.a_dir           = SaiHandle::Config::Direction::RECEIVE;
  30:../../../libDaisy/src/per/sai.h ****  *  sai_config.b_dir           = SaiHandle::Config::Direction::TRANSMIT;
  31:../../../libDaisy/src/per/sai.h ****  *  sai_config.pin_config.fs   = {DSY_GPIOE, 4};
  32:../../../libDaisy/src/per/sai.h ****  *  sai_config.pin_config.mclk = {DSY_GPIOE, 2};
  33:../../../libDaisy/src/per/sai.h ****  *  sai_config.pin_config.sck  = {DSY_GPIOE, 5};
  34:../../../libDaisy/src/per/sai.h ****  *  sai_config.pin_config.sa   = {DSY_GPIOE, 6};
  35:../../../libDaisy/src/per/sai.h ****  *  sai_config.pin_config.sb   = {DSY_GPIOE, 3};
  36:../../../libDaisy/src/per/sai.h ****  *  // Then Initialize
  37:../../../libDaisy/src/per/sai.h ****  *  SaiHandle sai;
  38:../../../libDaisy/src/per/sai.h ****  *  sai.Init(sai_config);
  39:../../../libDaisy/src/per/sai.h ****  *  // Now you can use it:
  40:../../../libDaisy/src/per/sai.h ****  *  sai.StartDma(. . .);
  41:../../../libDaisy/src/per/sai.h ****  */
  42:../../../libDaisy/src/per/sai.h **** class SaiHandle
  43:../../../libDaisy/src/per/sai.h **** {
  44:../../../libDaisy/src/per/sai.h ****   public:
  45:../../../libDaisy/src/per/sai.h ****     /** Contains settings for initialising an SAI Interface */
  46:../../../libDaisy/src/per/sai.h ****     struct Config
  47:../../../libDaisy/src/per/sai.h ****     {
  48:../../../libDaisy/src/per/sai.h ****         /** Specifies the internal peripheral to use (mapped to different hardware pins) */
  49:../../../libDaisy/src/per/sai.h ****         enum class Peripheral
  50:../../../libDaisy/src/per/sai.h ****         {
  51:../../../libDaisy/src/per/sai.h ****             SAI_1,
  52:../../../libDaisy/src/per/sai.h ****             SAI_2,
  53:../../../libDaisy/src/per/sai.h ****         };
  54:../../../libDaisy/src/per/sai.h **** 
  55:../../../libDaisy/src/per/sai.h ****         /** Rate at which samples will be streaming to/from the device. */
  56:../../../libDaisy/src/per/sai.h ****         enum class SampleRate
  57:../../../libDaisy/src/per/sai.h ****         {
  58:../../../libDaisy/src/per/sai.h ****             SAI_8KHZ,
  59:../../../libDaisy/src/per/sai.h ****             SAI_16KHZ,
  60:../../../libDaisy/src/per/sai.h ****             SAI_32KHZ,
  61:../../../libDaisy/src/per/sai.h ****             SAI_48KHZ,
  62:../../../libDaisy/src/per/sai.h ****             SAI_96KHZ,
  63:../../../libDaisy/src/per/sai.h ****         };
  64:../../../libDaisy/src/per/sai.h **** 
  65:../../../libDaisy/src/per/sai.h ****         /** Bit Depth that the hardware expects to be transferred to/from the device. */
  66:../../../libDaisy/src/per/sai.h ****         enum class BitDepth
  67:../../../libDaisy/src/per/sai.h ****         {
  68:../../../libDaisy/src/per/sai.h ****             SAI_16BIT,
  69:../../../libDaisy/src/per/sai.h ****             SAI_24BIT,
  70:../../../libDaisy/src/per/sai.h ****             SAI_32BIT,
  71:../../../libDaisy/src/per/sai.h ****         };
  72:../../../libDaisy/src/per/sai.h **** 
  73:../../../libDaisy/src/per/sai.h ****         /** Specifies whether a particular block is the master or the slave 
  74:../../../libDaisy/src/per/sai.h ****          ** If both are set to slave, no MCLK signal will be used, and it is
  75:../../../libDaisy/src/per/sai.h ****          ** expected that the codec will have its own xtal.
  76:../../../libDaisy/src/per/sai.h ****          */
  77:../../../libDaisy/src/per/sai.h ****         enum class Sync
ARM GAS  C:\Users\jaude\AppData\Local\Temp\ccMKA3wm.s 			page 65


  78:../../../libDaisy/src/per/sai.h ****         {
  79:../../../libDaisy/src/per/sai.h ****             MASTER,
  80:../../../libDaisy/src/per/sai.h ****             SLAVE,
  81:../../../libDaisy/src/per/sai.h ****         };
  82:../../../libDaisy/src/per/sai.h **** 
  83:../../../libDaisy/src/per/sai.h ****         /** Specifies the direction for each peripheral block. */
  84:../../../libDaisy/src/per/sai.h ****         enum class Direction
  85:../../../libDaisy/src/per/sai.h ****         {
  86:../../../libDaisy/src/per/sai.h ****             TRANSMIT,
  87:../../../libDaisy/src/per/sai.h ****             RECEIVE,
  88:../../../libDaisy/src/per/sai.h ****         };
  89:../../../libDaisy/src/per/sai.h **** 
  90:../../../libDaisy/src/per/sai.h ****         Peripheral periph;
  91:../../../libDaisy/src/per/sai.h ****         struct
  92:../../../libDaisy/src/per/sai.h ****         {
  93:../../../libDaisy/src/per/sai.h ****             dsy_gpio_pin mclk, fs, sck, sa, sb;
  94:../../../libDaisy/src/per/sai.h ****         } pin_config;
  95:../../../libDaisy/src/per/sai.h ****         SampleRate sr;
  96:../../../libDaisy/src/per/sai.h ****         BitDepth   bit_depth;
  97:../../../libDaisy/src/per/sai.h ****         Sync       a_sync, b_sync;
  98:../../../libDaisy/src/per/sai.h ****         Direction  a_dir, b_dir;
  99:../../../libDaisy/src/per/sai.h ****     };
 100:../../../libDaisy/src/per/sai.h **** 
 101:../../../libDaisy/src/per/sai.h ****     /** Return values for SAI functions */
 102:../../../libDaisy/src/per/sai.h ****     enum class Result
 103:../../../libDaisy/src/per/sai.h ****     {
 104:../../../libDaisy/src/per/sai.h ****         OK,
 105:../../../libDaisy/src/per/sai.h ****         ERR,
 106:../../../libDaisy/src/per/sai.h ****     };
 107:../../../libDaisy/src/per/sai.h **** 
 108:../../../libDaisy/src/per/sai.h ****     SaiHandle() : pimpl_(nullptr) {}
 1884              		.loc 16 108 5 is_stmt 1 view .LVU457
 1885              	.LBB559:
 1886              	.LBB560:
 1887              		.loc 16 108 33 is_stmt 0 view .LVU458
 1888 000e C363     		str	r3, [r0, #60]
 1889              	.LVL99:
 1890              		.loc 16 108 33 view .LVU459
 1891              	.LBE560:
 1892              	.LBE559:
 1893              	.LBE558:
 1894              	.LBE562:
 1895              	.LBE564:
   7:chorus.cpp    **** 
 1896              		.loc 12 7 11 view .LVU460
 1897 0010 1149     		ldr	r1, .L66+8
 1898 0012 FFF7FEFF 		bl	__aeabi_atexit
 1899              	.LVL100:
 1900              	.LBB565:
 1901              	.LBI565:
  96:../../../DaisySP/Source/Effects/chorus.h ****     ~Chorus() {}
 1902              		.loc 8 96 5 is_stmt 1 view .LVU461
 1903              	.LBE565:
 1904              	.LBE581:
 1905              	.LBE584:
  96:../../../DaisySP/Source/Effects/chorus.h ****     ~Chorus() {}
 1906              		.loc 8 96 14 view .LVU462
ARM GAS  C:\Users\jaude\AppData\Local\Temp\ccMKA3wm.s 			page 66


 1907              	.LBB585:
 1908              	.LBB582:
   9:chorus.cpp    **** VariableSawOscillator osc;
 1909              		.loc 12 9 23 is_stmt 0 view .LVU463
 1910 0016 0F4A     		ldr	r2, .L66+4
 1911 0018 1049     		ldr	r1, .L66+12
 1912 001a 1148     		ldr	r0, .L66+16
 1913 001c FFF7FEFF 		bl	__aeabi_atexit
 1914              	.LVL101:
 1915              	.LBB566:
 1916              	.LBI566:
  31:../../../DaisySP/Source/Synthesis/variablesawosc.h ****     ~VariableSawOscillator() {}
 1917              		.loc 9 31 5 is_stmt 1 view .LVU464
 1918              	.LBB567:
 1919              	.LBB568:
  31:../../../DaisySP/Source/Synthesis/variablesawosc.h ****     ~VariableSawOscillator() {}
 1920              		.loc 9 31 29 is_stmt 0 view .LVU465
 1921 0020 104B     		ldr	r3, .L66+20
 1922 0022 1148     		ldr	r0, .L66+24
 1923              	.LBE568:
 1924              	.LBE567:
 1925              	.LBE566:
  10:chorus.cpp    **** HiHat<>               hat;
 1926              		.loc 12 10 23 view .LVU466
 1927 0024 1149     		ldr	r1, .L66+28
 1928              	.LBB571:
 1929              	.LBB570:
 1930              	.LBB569:
  31:../../../DaisySP/Source/Synthesis/variablesawosc.h ****     ~VariableSawOscillator() {}
 1931              		.loc 9 31 29 view .LVU467
 1932 0026 4361     		str	r3, [r0, #20]	@ float
 1933              	.LVL102:
  31:../../../DaisySP/Source/Synthesis/variablesawosc.h ****     ~VariableSawOscillator() {}
 1934              		.loc 9 31 29 view .LVU468
 1935              	.LBE569:
 1936              	.LBE570:
 1937              	.LBE571:
  10:chorus.cpp    **** HiHat<>               hat;
 1938              		.loc 12 10 23 view .LVU469
 1939 0028 0A4A     		ldr	r2, .L66+4
 1940 002a FFF7FEFF 		bl	__aeabi_atexit
 1941              	.LVL103:
 1942              	.LBB572:
 1943              	.LBI572:
 120:../../../DaisySP/Source/Drums/hihat.h ****     ~HiHat() {}
 1944              		.loc 11 120 5 is_stmt 1 view .LVU470
 1945              	.LBB573:
 1946              	.LBB574:
 1947              	.LBI574:
  35:../../../DaisySP/Source/Drums/hihat.h ****     ~SquareNoise() {}
 1948              		.loc 11 35 5 view .LVU471
  35:../../../DaisySP/Source/Drums/hihat.h ****     ~SquareNoise() {}
 1949              		.loc 11 35 5 is_stmt 0 view .LVU472
 1950              	.LBE574:
 1951              	.LBB575:
 1952              	.LBI575:
  29:../../../DaisySP/Source/Filters/svf.h ****     ~Svf() {}
ARM GAS  C:\Users\jaude\AppData\Local\Temp\ccMKA3wm.s 			page 67


 1953              		.loc 7 29 5 is_stmt 1 view .LVU473
  29:../../../DaisySP/Source/Filters/svf.h ****     ~Svf() {}
 1954              		.loc 7 29 5 is_stmt 0 view .LVU474
 1955              	.LBE575:
 1956              	.LBB576:
 1957              	.LBI576:
  29:../../../DaisySP/Source/Filters/svf.h ****     ~Svf() {}
 1958              		.loc 7 29 5 is_stmt 1 view .LVU475
  29:../../../DaisySP/Source/Filters/svf.h ****     ~Svf() {}
 1959              		.loc 7 29 5 is_stmt 0 view .LVU476
 1960              	.LBE576:
 1961              	.LBE573:
 1962              	.LBE572:
  11:chorus.cpp    **** AnalogBassDrum        kick;
 1963              		.loc 12 11 23 view .LVU477
 1964 002e 094A     		ldr	r2, .L66+4
 1965 0030 0F49     		ldr	r1, .L66+32
 1966 0032 1048     		ldr	r0, .L66+36
 1967 0034 FFF7FEFF 		bl	__aeabi_atexit
 1968              	.LVL104:
 1969              	.LBB577:
 1970              	.LBI577:
  34:../../../DaisySP/Source/Drums/analogbassdrum.h ****     ~AnalogBassDrum() {}
 1971              		.loc 6 34 5 is_stmt 1 view .LVU478
 1972              	.LBB578:
 1973              	.LBB579:
 1974              	.LBI579:
  29:../../../DaisySP/Source/Filters/svf.h ****     ~Svf() {}
 1975              		.loc 7 29 5 view .LVU479
  29:../../../DaisySP/Source/Filters/svf.h ****     ~Svf() {}
 1976              		.loc 7 29 5 is_stmt 0 view .LVU480
 1977              	.LBE579:
 1978              	.LBE578:
 1979              	.LBE577:
  12:chorus.cpp    **** 
 1980              		.loc 12 12 23 view .LVU481
 1981 0038 064A     		ldr	r2, .L66+4
 1982 003a 0F49     		ldr	r1, .L66+40
 1983 003c 0F48     		ldr	r0, .L66+44
 1984 003e FFF7FEFF 		bl	__aeabi_atexit
 1985              	.LVL105:
 1986              	.LBB580:
 1987              	.LBI580:
  22:../../../DaisySP/Source/Utility/metro.h ****     ~Metro() {}
 1988              		.loc 10 22 5 is_stmt 1 view .LVU482
  22:../../../DaisySP/Source/Utility/metro.h ****     ~Metro() {}
 1989              		.loc 10 22 5 is_stmt 0 view .LVU483
 1990              	.LBE580:
  15:chorus.cpp    **** 
 1991              		.loc 12 15 7 view .LVU484
 1992 0042 044A     		ldr	r2, .L66+4
 1993 0044 0E49     		ldr	r1, .L66+48
 1994 0046 0F48     		ldr	r0, .L66+52
 1995              	.LBE582:
 1996              	.LBE585:
 1997              		.loc 12 81 1 view .LVU485
 1998 0048 BDE80840 		pop	{r3, lr}
ARM GAS  C:\Users\jaude\AppData\Local\Temp\ccMKA3wm.s 			page 68


 1999              		.cfi_restore 14
 2000              		.cfi_restore 3
 2001              		.cfi_def_cfa_offset 0
 2002              	.LBB586:
 2003              	.LBB583:
  15:chorus.cpp    **** 
 2004              		.loc 12 15 7 view .LVU486
 2005 004c FFF7FEBF 		b	__aeabi_atexit
 2006              	.LVL106:
 2007              	.L67:
 2008              		.align	2
 2009              	.L66:
 2010 0050 00000000 		.word	.LANCHOR0
 2011 0054 00000000 		.word	__dso_handle
 2012 0058 00000000 		.word	_ZN5daisy9DaisySeedD1Ev
 2013 005c 00000000 		.word	_ZN7daisysp6ChorusD1Ev
 2014 0060 00000000 		.word	chorus
 2015 0064 CDCC4C3E 		.word	1045220557
 2016 0068 00000000 		.word	.LANCHOR5
 2017 006c 00000000 		.word	_ZN7daisysp21VariableSawOscillatorD1Ev
 2018 0070 00000000 		.word	_ZN7daisysp5HiHatINS_11SquareNoiseENS_9LinearVCAELb1EED1Ev
 2019 0074 00000000 		.word	.LANCHOR2
 2020 0078 00000000 		.word	_ZN7daisysp14AnalogBassDrumD1Ev
 2021 007c 00000000 		.word	.LANCHOR3
 2022 0080 00000000 		.word	_ZN7daisysp5MetroD1Ev
 2023 0084 00000000 		.word	.LANCHOR1
 2024              	.LBE583:
 2025              	.LBE586:
 2026              		.cfi_endproc
 2027              	.LFE5261:
 2029              		.section	.init_array,"aw",%init_array
 2030              		.align	2
 2031 0000 00000000 		.word	_GLOBAL__sub_I_hw(target1)
 2032              		.global	bass_note
 2033              		.global	pos
 2034              		.global	k_patt
 2035              		.global	h_patt
 2036              		.global	tick
 2037              		.global	kick
 2038              		.global	hat
 2039              		.global	osc
 2040              		.global	chorus
 2041              		.global	hw
 2042              		.section	.bss.bass_note,"aw",%nobits
 2043              		.set	.LANCHOR4,. + 0
 2046              	bass_note:
 2047 0000 00       		.space	1
 2048              		.section	.bss.chorus,"aw",%nobits
 2049              		.align	2
 2052              	chorus:
 2053 0000 00000000 		.space	19292
 2053      00000000 
 2053      00000000 
 2053      00000000 
 2053      00000000 
 2054              		.section	.bss.hat,"aw",%nobits
 2055              		.align	2
ARM GAS  C:\Users\jaude\AppData\Local\Temp\ccMKA3wm.s 			page 69


 2056              		.set	.LANCHOR2,. + 0
 2059              	hat:
 2060 0000 00000000 		.space	220
 2060      00000000 
 2060      00000000 
 2060      00000000 
 2060      00000000 
 2061              		.section	.bss.hw,"aw",%nobits
 2062              		.align	2
 2063              		.set	.LANCHOR0,. + 0
 2066              	hw:
 2067 0000 00000000 		.space	64
 2067      00000000 
 2067      00000000 
 2067      00000000 
 2067      00000000 
 2068              		.section	.bss.kick,"aw",%nobits
 2069              		.align	2
 2070              		.set	.LANCHOR3,. + 0
 2073              	kick:
 2074 0000 00000000 		.space	152
 2074      00000000 
 2074      00000000 
 2074      00000000 
 2074      00000000 
 2075              		.section	.bss.osc,"aw",%nobits
 2076              		.align	2
 2077              		.set	.LANCHOR5,. + 0
 2080              	osc:
 2081 0000 00000000 		.space	36
 2081      00000000 
 2081      00000000 
 2081      00000000 
 2081      00000000 
 2082              		.section	.bss.tick,"aw",%nobits
 2083              		.align	2
 2084              		.set	.LANCHOR1,. + 0
 2087              	tick:
 2088 0000 00000000 		.space	16
 2088      00000000 
 2088      00000000 
 2088      00000000 
 2089              		.section	.data.h_patt,"aw"
 2090              		.set	.LANCHOR8,. + 0
 2093              	h_patt:
 2094 0000 FF       		.byte	-1
 2095              		.section	.data.k_patt,"aw"
 2096              		.set	.LANCHOR7,. + 0
 2099              	k_patt:
 2100 0000 88       		.byte	-120
 2101              		.section	.data.pos,"aw"
 2102              		.set	.LANCHOR6,. + 0
 2105              	pos:
 2106 0000 80       		.byte	-128
 2107              		.text
 2108              	.Letext0:
 2109              		.file 17 "c:\\program files\\daisytoolchain\\arm-none-eabi\\include\\machine\\_default_types.h"
ARM GAS  C:\Users\jaude\AppData\Local\Temp\ccMKA3wm.s 			page 70


 2110              		.file 18 "c:\\program files\\daisytoolchain\\arm-none-eabi\\include\\sys\\_stdint.h"
 2111              		.file 19 "c:\\program files\\daisytoolchain\\arm-none-eabi\\include\\stdint.h"
 2112              		.file 20 "c:\\program files\\daisytoolchain\\lib\\gcc\\arm-none-eabi\\10.2.1\\include\\stddef.h"
 2113              		.file 21 "c:\\program files\\daisytoolchain\\arm-none-eabi\\include\\c++\\10.2.1\\cmath"
 2114              		.file 22 "c:\\program files\\daisytoolchain\\arm-none-eabi\\include\\c++\\10.2.1\\bits\\std_abs.h"
 2115              		.file 23 "c:\\program files\\daisytoolchain\\arm-none-eabi\\include\\c++\\10.2.1\\cstdlib"
 2116              		.file 24 "c:\\program files\\daisytoolchain\\arm-none-eabi\\include\\c++\\10.2.1\\cstdint"
 2117              		.file 25 "c:\\program files\\daisytoolchain\\arm-none-eabi\\include\\c++\\10.2.1\\type_traits"
 2118              		.file 26 "c:\\program files\\daisytoolchain\\arm-none-eabi\\include\\c++\\10.2.1\\debug\\debug.h"
 2119              		.file 27 "c:\\program files\\daisytoolchain\\arm-none-eabi\\include\\c++\\10.2.1\\arm-none-eabi\\t
 2120              		.file 28 "c:\\program files\\daisytoolchain\\arm-none-eabi\\include\\c++\\10.2.1\\bits\\algorithmf
 2121              		.file 29 "c:\\program files\\daisytoolchain\\arm-none-eabi\\include\\c++\\10.2.1\\bits\\stl_pair.h
 2122              		.file 30 "c:\\program files\\daisytoolchain\\arm-none-eabi\\include\\c++\\10.2.1\\bits\\exception_
 2123              		.file 31 "c:\\program files\\daisytoolchain\\arm-none-eabi\\include\\c++\\10.2.1\\cstdarg"
 2124              		.file 32 "c:\\program files\\daisytoolchain\\arm-none-eabi\\include\\c++\\10.2.1\\cstdio"
 2125              		.file 33 "c:\\program files\\daisytoolchain\\arm-none-eabi\\include\\c++\\10.2.1\\cstring"
 2126              		.file 34 "c:\\program files\\daisytoolchain\\arm-none-eabi\\include\\c++\\10.2.1\\cwchar"
 2127              		.file 35 "c:\\program files\\daisytoolchain\\arm-none-eabi\\include\\c++\\10.2.1\\clocale"
 2128              		.file 36 "c:\\program files\\daisytoolchain\\arm-none-eabi\\include\\c++\\10.2.1\\bits\\basic_stri
 2129              		.file 37 "c:\\program files\\daisytoolchain\\arm-none-eabi\\include\\c++\\10.2.1\\bits\\stl_tempbu
 2130              		.file 38 "c:\\program files\\daisytoolchain\\arm-none-eabi\\include\\c++\\10.2.1\\bits\\predefined
 2131              		.file 39 "c:\\program files\\daisytoolchain\\arm-none-eabi\\include\\sys\\_types.h"
 2132              		.file 40 "c:\\program files\\daisytoolchain\\arm-none-eabi\\include\\sys\\reent.h"
 2133              		.file 41 "c:\\program files\\daisytoolchain\\arm-none-eabi\\include\\sys\\lock.h"
 2134              		.file 42 "c:\\program files\\daisytoolchain\\arm-none-eabi\\include\\math.h"
 2135              		.file 43 "c:\\program files\\daisytoolchain\\arm-none-eabi\\include\\stdlib.h"
 2136              		.file 44 "c:\\program files\\daisytoolchain\\arm-none-eabi\\include\\c++\\10.2.1\\math.h"
 2137              		.file 45 "c:\\program files\\daisytoolchain\\arm-none-eabi\\include\\c++\\10.2.1\\stdlib.h"
 2138              		.file 46 "../../../libDaisy/src/daisy_core.h"
 2139              		.file 47 "../../../libDaisy/src/per/tim.h"
 2140              		.file 48 "../../../libDaisy/src/util/wav_format.h"
 2141              		.file 49 "../../../libDaisy/src/dev/max11300.h"
 2142              		.file 50 "../../../libDaisy/src/per/gpio.h"
 2143              		.file 51 "../../../libDaisy/src/dev/sdram.h"
 2144              		.file 52 "c:\\program files\\daisytoolchain\\lib\\gcc\\arm-none-eabi\\10.2.1\\include\\stdarg.h"
 2145              		.file 53 "c:\\program files\\daisytoolchain\\arm-none-eabi\\include\\stdio.h"
 2146              		.file 54 "c:\\program files\\daisytoolchain\\arm-none-eabi\\include\\string.h"
 2147              		.file 55 "../../../DaisySP/Source/Control/adenv.h"
 2148              		.file 56 "../../../DaisySP/Source/Utility/delayline.h"
 2149              		.file 57 "c:\\program files\\daisytoolchain\\arm-none-eabi\\include\\wchar.h"
 2150              		.file 58 "c:\\program files\\daisytoolchain\\arm-none-eabi\\include\\locale.h"
 2151              		.file 59 "<built-in>"
 2152              		.file 60 "../../../libDaisy/src/dev/sr_595.h"
ARM GAS  C:\Users\jaude\AppData\Local\Temp\ccMKA3wm.s 			page 71

